
/home/boemmelsebastian/pico/pico-examples/build/usb/host/host_cdc_msc_hid/host_cdc_msc_hid.elf:     file format elf32-littlearm

Sections:
Idx Name          Size      VMA       LMA       File off  Algn
  0 .boot2        00000100  10000000  10000000  00001000  2**0
                  CONTENTS, ALLOC, LOAD, READONLY, CODE
  1 .text         000087e8  10000100  10000100  00001100  2**3
                  CONTENTS, ALLOC, LOAD, READONLY, CODE
  2 .rodata       00001c00  100088e8  100088e8  000098e8  2**3
                  CONTENTS, ALLOC, LOAD, READONLY, DATA
  3 .binary_info  00000028  1000a4e8  1000a4e8  0000b4e8  2**2
                  CONTENTS, ALLOC, LOAD, DATA
  4 .ram_vector_table 000000c0  20000000  20000000  0000cbfc  2**2
                  CONTENTS
  5 .data         00000b3c  200000c0  1000a510  0000c0c0  2**4
                  CONTENTS, ALLOC, LOAD, READONLY, CODE
  6 .uninitialized_data 00000000  20000bfc  20000bfc  0000ccbc  2**0
                  CONTENTS
  7 .scratch_x    00000000  20040000  20040000  0000ccbc  2**0
                  CONTENTS
  8 .scratch_y    00000000  20041000  20041000  0000ccbc  2**0
                  CONTENTS
  9 .bss          00001518  20000c00  20000c00  0000cc00  2**3
                  ALLOC
 10 .heap         00000800  20002118  20002118  0000ccbc  2**2
                  CONTENTS, READONLY
 11 .stack_dummy  00000800  20041000  20041000  0000d4c0  2**5
                  CONTENTS, READONLY
 12 .ARM.attributes 00000028  00000000  00000000  0000dcc0  2**0
                  CONTENTS, READONLY
 13 .comment      0000009f  00000000  00000000  0000dce8  2**0
                  CONTENTS, READONLY
 14 .debug_info   00040860  00000000  00000000  0000dd87  2**0
                  CONTENTS, READONLY, DEBUGGING, OCTETS
 15 .debug_abbrev 0000b2d6  00000000  00000000  0004e5e7  2**0
                  CONTENTS, READONLY, DEBUGGING, OCTETS
 16 .debug_loc    0001c7da  00000000  00000000  000598bd  2**0
                  CONTENTS, READONLY, DEBUGGING, OCTETS
 17 .debug_aranges 000017d0  00000000  00000000  00076098  2**3
                  CONTENTS, READONLY, DEBUGGING, OCTETS
 18 .debug_ranges 00004218  00000000  00000000  00077868  2**3
                  CONTENTS, READONLY, DEBUGGING, OCTETS
 19 .debug_line   00019006  00000000  00000000  0007ba80  2**0
                  CONTENTS, READONLY, DEBUGGING, OCTETS
 20 .debug_str    000098f0  00000000  00000000  00094a86  2**0
                  CONTENTS, READONLY, DEBUGGING, OCTETS
 21 .debug_frame  000031e0  00000000  00000000  0009e378  2**2
                  CONTENTS, READONLY, DEBUGGING, OCTETS
 22 .stab         0000003c  00000000  00000000  000a1558  2**2
                  CONTENTS, READONLY, DEBUGGING
 23 .stabstr      00000075  00000000  00000000  000a1594  2**0
                  CONTENTS, READONLY, DEBUGGING

/home/boemmelsebastian/pico/pico-examples/build/usb/host/host_cdc_msc_hid/host_cdc_msc_hid.elf:     file format elf32-littlearm


Disassembly of section .boot2:

10000000 <__boot2_start__>:
10000000:	4b32b500 	.word	0x4b32b500
10000004:	60582021 	.word	0x60582021
10000008:	21026898 	.word	0x21026898
1000000c:	60984388 	.word	0x60984388
10000010:	611860d8 	.word	0x611860d8
10000014:	4b2e6158 	.word	0x4b2e6158
10000018:	60992100 	.word	0x60992100
1000001c:	61592102 	.word	0x61592102
10000020:	22f02101 	.word	0x22f02101
10000024:	492b5099 	.word	0x492b5099
10000028:	21016019 	.word	0x21016019
1000002c:	20356099 	.word	0x20356099
10000030:	f844f000 	.word	0xf844f000
10000034:	42902202 	.word	0x42902202
10000038:	2106d014 	.word	0x2106d014
1000003c:	f0006619 	.word	0xf0006619
10000040:	6e19f834 	.word	0x6e19f834
10000044:	66192101 	.word	0x66192101
10000048:	66182000 	.word	0x66182000
1000004c:	f000661a 	.word	0xf000661a
10000050:	6e19f82c 	.word	0x6e19f82c
10000054:	6e196e19 	.word	0x6e196e19
10000058:	f0002005 	.word	0xf0002005
1000005c:	2101f82f 	.word	0x2101f82f
10000060:	d1f94208 	.word	0xd1f94208
10000064:	60992100 	.word	0x60992100
10000068:	6019491b 	.word	0x6019491b
1000006c:	60592100 	.word	0x60592100
10000070:	481b491a 	.word	0x481b491a
10000074:	21016001 	.word	0x21016001
10000078:	21eb6099 	.word	0x21eb6099
1000007c:	21a06619 	.word	0x21a06619
10000080:	f0006619 	.word	0xf0006619
10000084:	2100f812 	.word	0x2100f812
10000088:	49166099 	.word	0x49166099
1000008c:	60014814 	.word	0x60014814
10000090:	60992101 	.word	0x60992101
10000094:	2800bc01 	.word	0x2800bc01
10000098:	4700d000 	.word	0x4700d000
1000009c:	49134812 	.word	0x49134812
100000a0:	c8036008 	.word	0xc8036008
100000a4:	8808f380 	.word	0x8808f380
100000a8:	b5034708 	.word	0xb5034708
100000ac:	20046a99 	.word	0x20046a99
100000b0:	d0fb4201 	.word	0xd0fb4201
100000b4:	42012001 	.word	0x42012001
100000b8:	bd03d1f8 	.word	0xbd03d1f8
100000bc:	6618b502 	.word	0x6618b502
100000c0:	f7ff6618 	.word	0xf7ff6618
100000c4:	6e18fff2 	.word	0x6e18fff2
100000c8:	bd026e18 	.word	0xbd026e18
100000cc:	40020000 	.word	0x40020000
100000d0:	18000000 	.word	0x18000000
100000d4:	00070000 	.word	0x00070000
100000d8:	005f0300 	.word	0x005f0300
100000dc:	00002221 	.word	0x00002221
100000e0:	180000f4 	.word	0x180000f4
100000e4:	a0002022 	.word	0xa0002022
100000e8:	10000100 	.word	0x10000100
100000ec:	e000ed08 	.word	0xe000ed08
	...
100000fc:	7a4eb274 	.word	0x7a4eb274

Disassembly of section .text:

10000100 <__VECTOR_TABLE>:
10000100:	20042000 	.word	0x20042000
10000104:	100001f7 	.word	0x100001f7
10000108:	100001c3 	.word	0x100001c3
1000010c:	100001c5 	.word	0x100001c5
10000110:	100001c1 	.word	0x100001c1
10000114:	100001c1 	.word	0x100001c1
10000118:	100001c1 	.word	0x100001c1
1000011c:	100001c1 	.word	0x100001c1
10000120:	100001c1 	.word	0x100001c1
10000124:	100001c1 	.word	0x100001c1
10000128:	100001c1 	.word	0x100001c1
1000012c:	100001c7 	.word	0x100001c7
10000130:	100001c1 	.word	0x100001c1
10000134:	100001c1 	.word	0x100001c1
10000138:	100001c9 	.word	0x100001c9
1000013c:	100001cb 	.word	0x100001cb
10000140:	100001cd 	.word	0x100001cd
10000144:	100001cd 	.word	0x100001cd
10000148:	100001cd 	.word	0x100001cd
1000014c:	100001cd 	.word	0x100001cd
10000150:	100001cd 	.word	0x100001cd
10000154:	100001cd 	.word	0x100001cd
10000158:	100001cd 	.word	0x100001cd
1000015c:	100001cd 	.word	0x100001cd
10000160:	100001cd 	.word	0x100001cd
10000164:	100001cd 	.word	0x100001cd
10000168:	100001cd 	.word	0x100001cd
1000016c:	100001cd 	.word	0x100001cd
10000170:	100001cd 	.word	0x100001cd
10000174:	100001cd 	.word	0x100001cd
10000178:	100001cd 	.word	0x100001cd
1000017c:	100001cd 	.word	0x100001cd
10000180:	100001cd 	.word	0x100001cd
10000184:	100001cd 	.word	0x100001cd
10000188:	100001cd 	.word	0x100001cd
1000018c:	100001cd 	.word	0x100001cd
10000190:	100001cd 	.word	0x100001cd
10000194:	100001cd 	.word	0x100001cd
10000198:	100001cd 	.word	0x100001cd
1000019c:	100001cd 	.word	0x100001cd
100001a0:	100001cd 	.word	0x100001cd
100001a4:	100001cd 	.word	0x100001cd
100001a8:	100001cd 	.word	0x100001cd
100001ac:	100001cd 	.word	0x100001cd
100001b0:	100001cd 	.word	0x100001cd
100001b4:	100001cd 	.word	0x100001cd
100001b8:	100001cd 	.word	0x100001cd
100001bc:	100001cd 	.word	0x100001cd

100001c0 <isr_invalid>:
100001c0:	be00      	bkpt	0x0000

100001c2 <isr_nmi>:
100001c2:	be00      	bkpt	0x0000

100001c4 <isr_hardfault>:
100001c4:	be00      	bkpt	0x0000

100001c6 <isr_svcall>:
100001c6:	be00      	bkpt	0x0000

100001c8 <isr_pendsv>:
100001c8:	be00      	bkpt	0x0000

100001ca <isr_systick>:
100001ca:	be00      	bkpt	0x0000

100001cc <__unhandled_user_irq>:
100001cc:	f000 f84b 	bl	10000266 <__get_current_exception>
100001d0:	3810      	subs	r0, #16

100001d2 <unhandled_user_irq_num_in_r0>:
100001d2:	be00      	bkpt	0x0000

100001d4 <binary_info_header>:
100001d4:	7188ebf2 	.word	0x7188ebf2
100001d8:	1000a4e8 	.word	0x1000a4e8
100001dc:	1000a510 	.word	0x1000a510
100001e0:	10000234 	.word	0x10000234
100001e4:	e71aa390 	.word	0xe71aa390

100001e8 <_entry_point>:
100001e8:	2000      	movs	r0, #0
100001ea:	4921      	ldr	r1, [pc, #132]	; (10000270 <__get_current_exception+0xa>)
100001ec:	6008      	str	r0, [r1, #0]
100001ee:	c806      	ldmia	r0!, {r1, r2}
100001f0:	f381 8808 	msr	MSP, r1
100001f4:	4710      	bx	r2

100001f6 <_reset_handler>:
100001f6:	481f      	ldr	r0, [pc, #124]	; (10000274 <__get_current_exception+0xe>)
100001f8:	6800      	ldr	r0, [r0, #0]
100001fa:	2800      	cmp	r0, #0
100001fc:	d12f      	bne.n	1000025e <hold_non_core0_in_bootrom>
100001fe:	a40d      	add	r4, pc, #52	; (adr r4, 10000234 <data_cpy_table>)
10000200:	cc0e      	ldmia	r4!, {r1, r2, r3}
10000202:	2900      	cmp	r1, #0
10000204:	d002      	beq.n	1000020c <_reset_handler+0x16>
10000206:	f000 f812 	bl	1000022e <data_cpy>
1000020a:	e7f9      	b.n	10000200 <_reset_handler+0xa>
1000020c:	491a      	ldr	r1, [pc, #104]	; (10000278 <__get_current_exception+0x12>)
1000020e:	4a1b      	ldr	r2, [pc, #108]	; (1000027c <__get_current_exception+0x16>)
10000210:	2000      	movs	r0, #0
10000212:	e000      	b.n	10000216 <bss_fill_test>

10000214 <bss_fill_loop>:
10000214:	c101      	stmia	r1!, {r0}

10000216 <bss_fill_test>:
10000216:	4291      	cmp	r1, r2
10000218:	d1fc      	bne.n	10000214 <bss_fill_loop>

1000021a <platform_entry>:
1000021a:	4919      	ldr	r1, [pc, #100]	; (10000280 <__get_current_exception+0x1a>)
1000021c:	4788      	blx	r1
1000021e:	4919      	ldr	r1, [pc, #100]	; (10000284 <__get_current_exception+0x1e>)
10000220:	4788      	blx	r1
10000222:	4919      	ldr	r1, [pc, #100]	; (10000288 <__get_current_exception+0x22>)
10000224:	4788      	blx	r1
10000226:	be00      	bkpt	0x0000
10000228:	e7fd      	b.n	10000226 <platform_entry+0xc>

1000022a <data_cpy_loop>:
1000022a:	c901      	ldmia	r1!, {r0}
1000022c:	c201      	stmia	r2!, {r0}

1000022e <data_cpy>:
1000022e:	429a      	cmp	r2, r3
10000230:	d3fb      	bcc.n	1000022a <data_cpy_loop>
10000232:	4770      	bx	lr

10000234 <data_cpy_table>:
10000234:	1000a510 	.word	0x1000a510
10000238:	200000c0 	.word	0x200000c0
1000023c:	20000bfc 	.word	0x20000bfc
10000240:	1000b04c 	.word	0x1000b04c
10000244:	20040000 	.word	0x20040000
10000248:	20040000 	.word	0x20040000
1000024c:	1000b04c 	.word	0x1000b04c
10000250:	20041000 	.word	0x20041000
10000254:	20041000 	.word	0x20041000
10000258:	00000000 	.word	0x00000000
1000025c:	4770      	bx	lr

1000025e <hold_non_core0_in_bootrom>:
1000025e:	480b      	ldr	r0, [pc, #44]	; (1000028c <__get_current_exception+0x26>)
10000260:	f003 f9fc 	bl	1000365c <rom_func_lookup>
10000264:	4700      	bx	r0

10000266 <__get_current_exception>:
10000266:	f3ef 8005 	mrs	r0, IPSR
1000026a:	b2c0      	uxtb	r0, r0
1000026c:	4770      	bx	lr
1000026e:	0000      	.short	0x0000
10000270:	e000ed08 	.word	0xe000ed08
10000274:	d0000000 	.word	0xd0000000
10000278:	20000c00 	.word	0x20000c00
1000027c:	20002118 	.word	0x20002118
10000280:	100020b5 	.word	0x100020b5
10000284:	10000681 	.word	0x10000681
10000288:	10002071 	.word	0x10002071
1000028c:	00005657 	.word	0x00005657

10000290 <__bi_50>:
10000290:	50520006 5360b3ab 10009c84              ..RP..`S....

1000029c <__bi_38>:
1000029c:	50520006 02031c86 10009c70              ..RP....p...

100002a8 <__bi_30>:
100002a8:	50520006 9da22254 10009c94              ..RPT"......

100002b4 <__bi_22>:
100002b4:	50520005 68f465de 1000b04c              ..RP.e.hL...

100002c0 <_init>:
100002c0:	b5f8      	push	{r3, r4, r5, r6, r7, lr}
100002c2:	46c0      	nop			; (mov r8, r8)

100002c4 <deregister_tm_clones>:
100002c4:	4804      	ldr	r0, [pc, #16]	; (100002d8 <deregister_tm_clones+0x14>)
100002c6:	4b05      	ldr	r3, [pc, #20]	; (100002dc <deregister_tm_clones+0x18>)
100002c8:	b510      	push	{r4, lr}
100002ca:	4283      	cmp	r3, r0
100002cc:	d003      	beq.n	100002d6 <deregister_tm_clones+0x12>
100002ce:	4b04      	ldr	r3, [pc, #16]	; (100002e0 <deregister_tm_clones+0x1c>)
100002d0:	2b00      	cmp	r3, #0
100002d2:	d000      	beq.n	100002d6 <deregister_tm_clones+0x12>
100002d4:	4798      	blx	r3
100002d6:	bd10      	pop	{r4, pc}
100002d8:	20000bfc 	.word	0x20000bfc
100002dc:	20000bfc 	.word	0x20000bfc
100002e0:	00000000 	.word	0x00000000

100002e4 <register_tm_clones>:
100002e4:	4806      	ldr	r0, [pc, #24]	; (10000300 <register_tm_clones+0x1c>)
100002e6:	4907      	ldr	r1, [pc, #28]	; (10000304 <register_tm_clones+0x20>)
100002e8:	1a09      	subs	r1, r1, r0
100002ea:	1089      	asrs	r1, r1, #2
100002ec:	0fcb      	lsrs	r3, r1, #31
100002ee:	1859      	adds	r1, r3, r1
100002f0:	b510      	push	{r4, lr}
100002f2:	1049      	asrs	r1, r1, #1
100002f4:	d003      	beq.n	100002fe <register_tm_clones+0x1a>
100002f6:	4b04      	ldr	r3, [pc, #16]	; (10000308 <register_tm_clones+0x24>)
100002f8:	2b00      	cmp	r3, #0
100002fa:	d000      	beq.n	100002fe <register_tm_clones+0x1a>
100002fc:	4798      	blx	r3
100002fe:	bd10      	pop	{r4, pc}
10000300:	20000bfc 	.word	0x20000bfc
10000304:	20000bfc 	.word	0x20000bfc
10000308:	00000000 	.word	0x00000000

1000030c <__do_global_dtors_aux>:
1000030c:	b510      	push	{r4, lr}
1000030e:	4c07      	ldr	r4, [pc, #28]	; (1000032c <__do_global_dtors_aux+0x20>)
10000310:	7823      	ldrb	r3, [r4, #0]
10000312:	2b00      	cmp	r3, #0
10000314:	d109      	bne.n	1000032a <__do_global_dtors_aux+0x1e>
10000316:	f7ff ffd5 	bl	100002c4 <deregister_tm_clones>
1000031a:	4b05      	ldr	r3, [pc, #20]	; (10000330 <__do_global_dtors_aux+0x24>)
1000031c:	2b00      	cmp	r3, #0
1000031e:	d002      	beq.n	10000326 <__do_global_dtors_aux+0x1a>
10000320:	4804      	ldr	r0, [pc, #16]	; (10000334 <__do_global_dtors_aux+0x28>)
10000322:	e000      	b.n	10000326 <__do_global_dtors_aux+0x1a>
10000324:	bf00      	nop
10000326:	2301      	movs	r3, #1
10000328:	7023      	strb	r3, [r4, #0]
1000032a:	bd10      	pop	{r4, pc}
1000032c:	20000d00 	.word	0x20000d00
10000330:	00000000 	.word	0x00000000
10000334:	100088e8 	.word	0x100088e8

10000338 <frame_dummy>:
10000338:	4b05      	ldr	r3, [pc, #20]	; (10000350 <frame_dummy+0x18>)
1000033a:	b510      	push	{r4, lr}
1000033c:	2b00      	cmp	r3, #0
1000033e:	d003      	beq.n	10000348 <frame_dummy+0x10>
10000340:	4904      	ldr	r1, [pc, #16]	; (10000354 <frame_dummy+0x1c>)
10000342:	4805      	ldr	r0, [pc, #20]	; (10000358 <frame_dummy+0x20>)
10000344:	e000      	b.n	10000348 <frame_dummy+0x10>
10000346:	bf00      	nop
10000348:	f7ff ffcc 	bl	100002e4 <register_tm_clones>
1000034c:	bd10      	pop	{r4, pc}
1000034e:	46c0      	nop			; (mov r8, r8)
10000350:	00000000 	.word	0x00000000
10000354:	20000d04 	.word	0x20000d04
10000358:	100088e8 	.word	0x100088e8

1000035c <process_kbd_report>:
1000035c:	b570      	push	{r4, r5, r6, lr}
1000035e:	0005      	movs	r5, r0
10000360:	2400      	movs	r4, #0
10000362:	e004      	b.n	1000036e <process_kbd_report+0x12>
10000364:	2300      	movs	r3, #0
10000366:	2b00      	cmp	r3, #0
10000368:	d014      	beq.n	10000394 <process_kbd_report+0x38>
1000036a:	3401      	adds	r4, #1
1000036c:	b2e4      	uxtb	r4, r4
1000036e:	2c05      	cmp	r4, #5
10000370:	d829      	bhi.n	100003c6 <process_kbd_report+0x6a>
10000372:	192b      	adds	r3, r5, r4
10000374:	7899      	ldrb	r1, [r3, #2]
10000376:	2900      	cmp	r1, #0
10000378:	d0f7      	beq.n	1000036a <process_kbd_report+0xe>
1000037a:	2300      	movs	r3, #0
1000037c:	2b05      	cmp	r3, #5
1000037e:	d8f1      	bhi.n	10000364 <process_kbd_report+0x8>
10000380:	4a14      	ldr	r2, [pc, #80]	; (100003d4 <process_kbd_report+0x78>)
10000382:	18d2      	adds	r2, r2, r3
10000384:	7892      	ldrb	r2, [r2, #2]
10000386:	4291      	cmp	r1, r2
10000388:	d002      	beq.n	10000390 <process_kbd_report+0x34>
1000038a:	3301      	adds	r3, #1
1000038c:	b2db      	uxtb	r3, r3
1000038e:	e7f5      	b.n	1000037c <process_kbd_report+0x20>
10000390:	2301      	movs	r3, #1
10000392:	e7e8      	b.n	10000366 <process_kbd_report+0xa>
10000394:	782a      	ldrb	r2, [r5, #0]
10000396:	3322      	adds	r3, #34	; 0x22
10000398:	4013      	ands	r3, r2
1000039a:	1e5a      	subs	r2, r3, #1
1000039c:	4193      	sbcs	r3, r2
1000039e:	b2db      	uxtb	r3, r3
100003a0:	0049      	lsls	r1, r1, #1
100003a2:	4a0d      	ldr	r2, [pc, #52]	; (100003d8 <process_kbd_report+0x7c>)
100003a4:	1851      	adds	r1, r2, r1
100003a6:	5cce      	ldrb	r6, [r1, r3]
100003a8:	0030      	movs	r0, r6
100003aa:	f004 f9d7 	bl	1000475c <__wrap_putchar>
100003ae:	2e0d      	cmp	r6, #13
100003b0:	d005      	beq.n	100003be <process_kbd_report+0x62>
100003b2:	4b0a      	ldr	r3, [pc, #40]	; (100003dc <process_kbd_report+0x80>)
100003b4:	681b      	ldr	r3, [r3, #0]
100003b6:	6898      	ldr	r0, [r3, #8]
100003b8:	f007 fba4 	bl	10007b04 <fflush>
100003bc:	e7d5      	b.n	1000036a <process_kbd_report+0xe>
100003be:	200a      	movs	r0, #10
100003c0:	f004 f9cc 	bl	1000475c <__wrap_putchar>
100003c4:	e7f5      	b.n	100003b2 <process_kbd_report+0x56>
100003c6:	2208      	movs	r2, #8
100003c8:	0029      	movs	r1, r5
100003ca:	4802      	ldr	r0, [pc, #8]	; (100003d4 <process_kbd_report+0x78>)
100003cc:	f004 f89e 	bl	1000450c <__wrap___aeabi_memcpy>
100003d0:	bd70      	pop	{r4, r5, r6, pc}
100003d2:	46c0      	nop			; (mov r8, r8)
100003d4:	20001c4c 	.word	0x20001c4c
100003d8:	10008904 	.word	0x10008904
100003dc:	200003a0 	.word	0x200003a0

100003e0 <hid_app_task>:
100003e0:	4770      	bx	lr
	...

100003e4 <tuh_hid_mount_cb>:
100003e4:	b5f0      	push	{r4, r5, r6, r7, lr}
100003e6:	b087      	sub	sp, #28
100003e8:	0005      	movs	r5, r0
100003ea:	000c      	movs	r4, r1
100003ec:	9200      	str	r2, [sp, #0]
100003ee:	9301      	str	r3, [sp, #4]
100003f0:	000a      	movs	r2, r1
100003f2:	0001      	movs	r1, r0
100003f4:	4819      	ldr	r0, [pc, #100]	; (1000045c <tuh_hid_mount_cb+0x78>)
100003f6:	f004 fa3b 	bl	10004870 <__wrap_printf>
100003fa:	af03      	add	r7, sp, #12
100003fc:	4b18      	ldr	r3, [pc, #96]	; (10000460 <tuh_hid_mount_cb+0x7c>)
100003fe:	003a      	movs	r2, r7
10000400:	cb43      	ldmia	r3!, {r0, r1, r6}
10000402:	c243      	stmia	r2!, {r0, r1, r6}
10000404:	0021      	movs	r1, r4
10000406:	0028      	movs	r0, r5
10000408:	f006 fbb2 	bl	10006b70 <tuh_hid_interface_protocol>
1000040c:	0006      	movs	r6, r0
1000040e:	0083      	lsls	r3, r0, #2
10000410:	59d9      	ldr	r1, [r3, r7]
10000412:	4814      	ldr	r0, [pc, #80]	; (10000464 <tuh_hid_mount_cb+0x80>)
10000414:	f004 fa2c 	bl	10004870 <__wrap_printf>
10000418:	2e00      	cmp	r6, #0
1000041a:	d007      	beq.n	1000042c <tuh_hid_mount_cb+0x48>
1000041c:	0021      	movs	r1, r4
1000041e:	0028      	movs	r0, r5
10000420:	f006 fbb6 	bl	10006b90 <tuh_hid_receive_report>
10000424:	2800      	cmp	r0, #0
10000426:	d014      	beq.n	10000452 <tuh_hid_mount_cb+0x6e>
10000428:	b007      	add	sp, #28
1000042a:	bdf0      	pop	{r4, r5, r6, r7, pc}
1000042c:	4e0e      	ldr	r6, [pc, #56]	; (10000468 <tuh_hid_mount_cb+0x84>)
1000042e:	00e7      	lsls	r7, r4, #3
10000430:	193b      	adds	r3, r7, r4
10000432:	0058      	lsls	r0, r3, #1
10000434:	1830      	adds	r0, r6, r0
10000436:	3002      	adds	r0, #2
10000438:	9b01      	ldr	r3, [sp, #4]
1000043a:	9a00      	ldr	r2, [sp, #0]
1000043c:	2104      	movs	r1, #4
1000043e:	f006 fd31 	bl	10006ea4 <tuh_hid_parse_report_descriptor>
10000442:	0001      	movs	r1, r0
10000444:	193b      	adds	r3, r7, r4
10000446:	005a      	lsls	r2, r3, #1
10000448:	5590      	strb	r0, [r2, r6]
1000044a:	4808      	ldr	r0, [pc, #32]	; (1000046c <tuh_hid_mount_cb+0x88>)
1000044c:	f004 fa10 	bl	10004870 <__wrap_printf>
10000450:	e7e4      	b.n	1000041c <tuh_hid_mount_cb+0x38>
10000452:	4807      	ldr	r0, [pc, #28]	; (10000470 <tuh_hid_mount_cb+0x8c>)
10000454:	f004 f9da 	bl	1000480c <__wrap_puts>
10000458:	e7e6      	b.n	10000428 <tuh_hid_mount_cb+0x44>
1000045a:	46c0      	nop			; (mov r8, r8)
1000045c:	10008a9c 	.word	0x10008a9c
10000460:	100088e8 	.word	0x100088e8
10000464:	10008ad0 	.word	0x10008ad0
10000468:	20001bc8 	.word	0x20001bc8
1000046c:	10008af0 	.word	0x10008af0
10000470:	10008b08 	.word	0x10008b08

10000474 <tuh_hid_umount_cb>:
10000474:	b510      	push	{r4, lr}
10000476:	000a      	movs	r2, r1
10000478:	0001      	movs	r1, r0
1000047a:	4802      	ldr	r0, [pc, #8]	; (10000484 <tuh_hid_umount_cb+0x10>)
1000047c:	f004 f9f8 	bl	10004870 <__wrap_printf>
10000480:	bd10      	pop	{r4, pc}
10000482:	46c0      	nop			; (mov r8, r8)
10000484:	10008b34 	.word	0x10008b34

10000488 <cursor_movement>:
10000488:	b510      	push	{r4, lr}
1000048a:	0013      	movs	r3, r2
1000048c:	000a      	movs	r2, r1
1000048e:	0001      	movs	r1, r0
10000490:	4801      	ldr	r0, [pc, #4]	; (10000498 <cursor_movement+0x10>)
10000492:	f004 f9ed 	bl	10004870 <__wrap_printf>
10000496:	bd10      	pop	{r4, pc}
10000498:	100088f4 	.word	0x100088f4

1000049c <process_mouse_report>:
1000049c:	b510      	push	{r4, lr}
1000049e:	0004      	movs	r4, r0
100004a0:	7803      	ldrb	r3, [r0, #0]
100004a2:	2b00      	cmp	r3, #0
100004a4:	d00b      	beq.n	100004be <process_mouse_report+0x22>
100004a6:	07da      	lsls	r2, r3, #31
100004a8:	d512      	bpl.n	100004d0 <process_mouse_report+0x34>
100004aa:	214c      	movs	r1, #76	; 0x4c
100004ac:	075a      	lsls	r2, r3, #29
100004ae:	d511      	bpl.n	100004d4 <process_mouse_report+0x38>
100004b0:	224d      	movs	r2, #77	; 0x4d
100004b2:	079b      	lsls	r3, r3, #30
100004b4:	d510      	bpl.n	100004d8 <process_mouse_report+0x3c>
100004b6:	2352      	movs	r3, #82	; 0x52
100004b8:	4808      	ldr	r0, [pc, #32]	; (100004dc <process_mouse_report+0x40>)
100004ba:	f004 f9d9 	bl	10004870 <__wrap_printf>
100004be:	2203      	movs	r2, #3
100004c0:	56a2      	ldrsb	r2, [r4, r2]
100004c2:	2102      	movs	r1, #2
100004c4:	5661      	ldrsb	r1, [r4, r1]
100004c6:	2001      	movs	r0, #1
100004c8:	5620      	ldrsb	r0, [r4, r0]
100004ca:	f7ff ffdd 	bl	10000488 <cursor_movement>
100004ce:	bd10      	pop	{r4, pc}
100004d0:	212d      	movs	r1, #45	; 0x2d
100004d2:	e7eb      	b.n	100004ac <process_mouse_report+0x10>
100004d4:	222d      	movs	r2, #45	; 0x2d
100004d6:	e7ec      	b.n	100004b2 <process_mouse_report+0x16>
100004d8:	232d      	movs	r3, #45	; 0x2d
100004da:	e7ed      	b.n	100004b8 <process_mouse_report+0x1c>
100004dc:	10008a74 	.word	0x10008a74

100004e0 <process_generic_report>:
100004e0:	b570      	push	{r4, r5, r6, lr}
100004e2:	0015      	movs	r5, r2
100004e4:	4a1c      	ldr	r2, [pc, #112]	; (10000558 <process_generic_report+0x78>)
100004e6:	00cb      	lsls	r3, r1, #3
100004e8:	185c      	adds	r4, r3, r1
100004ea:	0060      	lsls	r0, r4, #1
100004ec:	0004      	movs	r4, r0
100004ee:	5c80      	ldrb	r0, [r0, r2]
100004f0:	1912      	adds	r2, r2, r4
100004f2:	1c94      	adds	r4, r2, #2
100004f4:	2801      	cmp	r0, #1
100004f6:	d00b      	beq.n	10000510 <process_generic_report+0x30>
100004f8:	782e      	ldrb	r6, [r5, #0]
100004fa:	2300      	movs	r3, #0
100004fc:	4283      	cmp	r3, r0
100004fe:	d20c      	bcs.n	1000051a <process_generic_report+0x3a>
10000500:	009a      	lsls	r2, r3, #2
10000502:	18a2      	adds	r2, r4, r2
10000504:	7811      	ldrb	r1, [r2, #0]
10000506:	42b1      	cmp	r1, r6
10000508:	d008      	beq.n	1000051c <process_generic_report+0x3c>
1000050a:	3301      	adds	r3, #1
1000050c:	b2db      	uxtb	r3, r3
1000050e:	e7f5      	b.n	100004fc <process_generic_report+0x1c>
10000510:	7893      	ldrb	r3, [r2, #2]
10000512:	2b00      	cmp	r3, #0
10000514:	d1f0      	bne.n	100004f8 <process_generic_report+0x18>
10000516:	0022      	movs	r2, r4
10000518:	e001      	b.n	1000051e <process_generic_report+0x3e>
1000051a:	2200      	movs	r2, #0
1000051c:	3501      	adds	r5, #1
1000051e:	2a00      	cmp	r2, #0
10000520:	d003      	beq.n	1000052a <process_generic_report+0x4a>
10000522:	8853      	ldrh	r3, [r2, #2]
10000524:	2b01      	cmp	r3, #1
10000526:	d004      	beq.n	10000532 <process_generic_report+0x52>
10000528:	bd70      	pop	{r4, r5, r6, pc}
1000052a:	480c      	ldr	r0, [pc, #48]	; (1000055c <process_generic_report+0x7c>)
1000052c:	f004 f96e 	bl	1000480c <__wrap_puts>
10000530:	e7fa      	b.n	10000528 <process_generic_report+0x48>
10000532:	7853      	ldrb	r3, [r2, #1]
10000534:	2b02      	cmp	r3, #2
10000536:	d008      	beq.n	1000054a <process_generic_report+0x6a>
10000538:	2b06      	cmp	r3, #6
1000053a:	d1f5      	bne.n	10000528 <process_generic_report+0x48>
1000053c:	4808      	ldr	r0, [pc, #32]	; (10000560 <process_generic_report+0x80>)
1000053e:	f004 f965 	bl	1000480c <__wrap_puts>
10000542:	0028      	movs	r0, r5
10000544:	f7ff ff0a 	bl	1000035c <process_kbd_report>
10000548:	e7ee      	b.n	10000528 <process_generic_report+0x48>
1000054a:	4806      	ldr	r0, [pc, #24]	; (10000564 <process_generic_report+0x84>)
1000054c:	f004 f95e 	bl	1000480c <__wrap_puts>
10000550:	0028      	movs	r0, r5
10000552:	f7ff ffa3 	bl	1000049c <process_mouse_report>
10000556:	e7e7      	b.n	10000528 <process_generic_report+0x48>
10000558:	20001bc8 	.word	0x20001bc8
1000055c:	10008a04 	.word	0x10008a04
10000560:	10008a38 	.word	0x10008a38
10000564:	10008a58 	.word	0x10008a58

10000568 <tuh_hid_report_received_cb>:
10000568:	b5f8      	push	{r3, r4, r5, r6, r7, lr}
1000056a:	0004      	movs	r4, r0
1000056c:	000d      	movs	r5, r1
1000056e:	0016      	movs	r6, r2
10000570:	001f      	movs	r7, r3
10000572:	f006 fafd 	bl	10006b70 <tuh_hid_interface_protocol>
10000576:	2801      	cmp	r0, #1
10000578:	d008      	beq.n	1000058c <tuh_hid_report_received_cb+0x24>
1000057a:	2802      	cmp	r0, #2
1000057c:	d010      	beq.n	100005a0 <tuh_hid_report_received_cb+0x38>
1000057e:	003b      	movs	r3, r7
10000580:	0032      	movs	r2, r6
10000582:	0029      	movs	r1, r5
10000584:	0020      	movs	r0, r4
10000586:	f7ff ffab 	bl	100004e0 <process_generic_report>
1000058a:	e002      	b.n	10000592 <tuh_hid_report_received_cb+0x2a>
1000058c:	0030      	movs	r0, r6
1000058e:	f7ff fee5 	bl	1000035c <process_kbd_report>
10000592:	0029      	movs	r1, r5
10000594:	0020      	movs	r0, r4
10000596:	f006 fafb 	bl	10006b90 <tuh_hid_receive_report>
1000059a:	2800      	cmp	r0, #0
1000059c:	d004      	beq.n	100005a8 <tuh_hid_report_received_cb+0x40>
1000059e:	bdf8      	pop	{r3, r4, r5, r6, r7, pc}
100005a0:	0030      	movs	r0, r6
100005a2:	f7ff ff7b 	bl	1000049c <process_mouse_report>
100005a6:	e7f4      	b.n	10000592 <tuh_hid_report_received_cb+0x2a>
100005a8:	4801      	ldr	r0, [pc, #4]	; (100005b0 <tuh_hid_report_received_cb+0x48>)
100005aa:	f004 f92f 	bl	1000480c <__wrap_puts>
100005ae:	e7f6      	b.n	1000059e <tuh_hid_report_received_cb+0x36>
100005b0:	10008b08 	.word	0x10008b08

100005b4 <tuh_mount_cb>:
100005b4:	b510      	push	{r4, lr}
100005b6:	0004      	movs	r4, r0
100005b8:	0001      	movs	r1, r0
100005ba:	4805      	ldr	r0, [pc, #20]	; (100005d0 <tuh_mount_cb+0x1c>)
100005bc:	f004 f958 	bl	10004870 <__wrap_printf>
100005c0:	2301      	movs	r3, #1
100005c2:	2240      	movs	r2, #64	; 0x40
100005c4:	4903      	ldr	r1, [pc, #12]	; (100005d4 <tuh_mount_cb+0x20>)
100005c6:	0020      	movs	r0, r4
100005c8:	f006 f89c 	bl	10006704 <tuh_cdc_receive>
100005cc:	bd10      	pop	{r4, pc}
100005ce:	46c0      	nop			; (mov r8, r8)
100005d0:	10008c14 	.word	0x10008c14
100005d4:	20001c54 	.word	0x20001c54

100005d8 <tuh_umount_cb>:
100005d8:	b510      	push	{r4, lr}
100005da:	0001      	movs	r1, r0
100005dc:	4801      	ldr	r0, [pc, #4]	; (100005e4 <tuh_umount_cb+0xc>)
100005de:	f004 f947 	bl	10004870 <__wrap_printf>
100005e2:	bd10      	pop	{r4, pc}
100005e4:	10008c3c 	.word	0x10008c3c

100005e8 <tuh_cdc_xfer_isr>:
100005e8:	b570      	push	{r4, r5, r6, lr}
100005ea:	0005      	movs	r5, r0
100005ec:	4c07      	ldr	r4, [pc, #28]	; (1000060c <tuh_cdc_xfer_isr+0x24>)
100005ee:	0020      	movs	r0, r4
100005f0:	f004 f93e 	bl	10004870 <__wrap_printf>
100005f4:	2240      	movs	r2, #64	; 0x40
100005f6:	2100      	movs	r1, #0
100005f8:	0020      	movs	r0, r4
100005fa:	f003 ff81 	bl	10004500 <__wrap_memset>
100005fe:	2301      	movs	r3, #1
10000600:	2240      	movs	r2, #64	; 0x40
10000602:	0021      	movs	r1, r4
10000604:	0028      	movs	r0, r5
10000606:	f006 f87d 	bl	10006704 <tuh_cdc_receive>
1000060a:	bd70      	pop	{r4, r5, r6, pc}
1000060c:	20001c54 	.word	0x20001c54

10000610 <led_blinking_task>:
10000610:	b510      	push	{r4, lr}
10000612:	f001 f92d 	bl	10001870 <time_us_64>
10000616:	2900      	cmp	r1, #0
10000618:	db0c      	blt.n	10000634 <led_blinking_task+0x24>
1000061a:	d011      	beq.n	10000640 <led_blinking_task+0x30>
1000061c:	22fa      	movs	r2, #250	; 0xfa
1000061e:	0092      	lsls	r2, r2, #2
10000620:	2300      	movs	r3, #0
10000622:	f003 f8b1 	bl	10003788 <__wrap___aeabi_uldivmod>
10000626:	4b10      	ldr	r3, [pc, #64]	; (10000668 <led_blinking_task+0x58>)
10000628:	681b      	ldr	r3, [r3, #0]
1000062a:	1ac0      	subs	r0, r0, r3
1000062c:	4a0f      	ldr	r2, [pc, #60]	; (1000066c <led_blinking_task+0x5c>)
1000062e:	4290      	cmp	r0, r2
10000630:	d80b      	bhi.n	1000064a <led_blinking_task+0x3a>
10000632:	bd10      	pop	{r4, pc}
10000634:	4b0e      	ldr	r3, [pc, #56]	; (10000670 <led_blinking_task+0x60>)
10000636:	4a0f      	ldr	r2, [pc, #60]	; (10000674 <led_blinking_task+0x64>)
10000638:	213f      	movs	r1, #63	; 0x3f
1000063a:	480f      	ldr	r0, [pc, #60]	; (10000678 <led_blinking_task+0x68>)
1000063c:	f001 fd1c 	bl	10002078 <__assert_func>
10000640:	21fa      	movs	r1, #250	; 0xfa
10000642:	0089      	lsls	r1, r1, #2
10000644:	f003 f85e 	bl	10003704 <__wrap___aeabi_uidiv>
10000648:	e7ed      	b.n	10000626 <led_blinking_task+0x16>
1000064a:	3201      	adds	r2, #1
1000064c:	4694      	mov	ip, r2
1000064e:	4463      	add	r3, ip
10000650:	4a05      	ldr	r2, [pc, #20]	; (10000668 <led_blinking_task+0x58>)
10000652:	6013      	str	r3, [r2, #0]
10000654:	4c09      	ldr	r4, [pc, #36]	; (1000067c <led_blinking_task+0x6c>)
10000656:	7820      	ldrb	r0, [r4, #0]
10000658:	f007 f980 	bl	1000795c <board_led_write>
1000065c:	7823      	ldrb	r3, [r4, #0]
1000065e:	2201      	movs	r2, #1
10000660:	4053      	eors	r3, r2
10000662:	7023      	strb	r3, [r4, #0]
10000664:	e7e5      	b.n	10000632 <led_blinking_task+0x22>
10000666:	46c0      	nop			; (mov r8, r8)
10000668:	20001c9c 	.word	0x20001c9c
1000066c:	000003e7 	.word	0x000003e7
10000670:	10008b84 	.word	0x10008b84
10000674:	10008b6c 	.word	0x10008b6c
10000678:	10008ba0 	.word	0x10008ba0
1000067c:	20001cbb 	.word	0x20001cbb

10000680 <main>:
10000680:	b510      	push	{r4, lr}
10000682:	f007 f953 	bl	1000792c <board_init>
10000686:	4806      	ldr	r0, [pc, #24]	; (100006a0 <main+0x20>)
10000688:	f004 f8c0 	bl	1000480c <__wrap_puts>
1000068c:	f006 ffe6 	bl	1000765c <tusb_init>
10000690:	f005 fa34 	bl	10005afc <tuh_task>
10000694:	f7ff ffbc 	bl	10000610 <led_blinking_task>
10000698:	f7ff fea2 	bl	100003e0 <hid_app_task>
1000069c:	e7f8      	b.n	10000690 <main+0x10>
1000069e:	46c0      	nop			; (mov r8, r8)
100006a0:	10008bf0 	.word	0x10008bf0

100006a4 <inquiry_complete_cb>:
100006a4:	b570      	push	{r4, r5, r6, lr}
100006a6:	0004      	movs	r4, r0
100006a8:	000d      	movs	r5, r1
100006aa:	7b13      	ldrb	r3, [r2, #12]
100006ac:	2b00      	cmp	r3, #0
100006ae:	d126      	bne.n	100006fe <inquiry_complete_cb+0x5a>
100006b0:	4915      	ldr	r1, [pc, #84]	; (10000708 <inquiry_complete_cb+0x64>)
100006b2:	000b      	movs	r3, r1
100006b4:	3320      	adds	r3, #32
100006b6:	000a      	movs	r2, r1
100006b8:	3210      	adds	r2, #16
100006ba:	3108      	adds	r1, #8
100006bc:	4813      	ldr	r0, [pc, #76]	; (1000070c <inquiry_complete_cb+0x68>)
100006be:	f004 f8d7 	bl	10004870 <__wrap_printf>
100006c2:	7b69      	ldrb	r1, [r5, #13]
100006c4:	0020      	movs	r0, r4
100006c6:	f006 fcab 	bl	10007020 <tuh_msc_get_block_count>
100006ca:	0006      	movs	r6, r0
100006cc:	7b69      	ldrb	r1, [r5, #13]
100006ce:	0020      	movs	r0, r4
100006d0:	f006 fcb4 	bl	1000703c <tuh_msc_get_block_size>
100006d4:	0004      	movs	r4, r0
100006d6:	0001      	movs	r1, r0
100006d8:	2080      	movs	r0, #128	; 0x80
100006da:	0340      	lsls	r0, r0, #13
100006dc:	f003 f812 	bl	10003704 <__wrap___aeabi_uidiv>
100006e0:	0001      	movs	r1, r0
100006e2:	0030      	movs	r0, r6
100006e4:	f003 f80e 	bl	10003704 <__wrap___aeabi_uidiv>
100006e8:	0001      	movs	r1, r0
100006ea:	4809      	ldr	r0, [pc, #36]	; (10000710 <inquiry_complete_cb+0x6c>)
100006ec:	f004 f8c0 	bl	10004870 <__wrap_printf>
100006f0:	0022      	movs	r2, r4
100006f2:	0031      	movs	r1, r6
100006f4:	4807      	ldr	r0, [pc, #28]	; (10000714 <inquiry_complete_cb+0x70>)
100006f6:	f004 f8bb 	bl	10004870 <__wrap_printf>
100006fa:	2001      	movs	r0, #1
100006fc:	bd70      	pop	{r4, r5, r6, pc}
100006fe:	4806      	ldr	r0, [pc, #24]	; (10000718 <inquiry_complete_cb+0x74>)
10000700:	f004 f884 	bl	1000480c <__wrap_puts>
10000704:	2000      	movs	r0, #0
10000706:	e7f9      	b.n	100006fc <inquiry_complete_cb+0x58>
10000708:	20001c18 	.word	0x20001c18
1000070c:	10008c78 	.word	0x10008c78
10000710:	10008c90 	.word	0x10008c90
10000714:	10008ca4 	.word	0x10008ca4
10000718:	10008c68 	.word	0x10008c68

1000071c <tuh_msc_mount_cb>:
1000071c:	b510      	push	{r4, lr}
1000071e:	0004      	movs	r4, r0
10000720:	4804      	ldr	r0, [pc, #16]	; (10000734 <tuh_msc_mount_cb+0x18>)
10000722:	f004 f873 	bl	1000480c <__wrap_puts>
10000726:	4b04      	ldr	r3, [pc, #16]	; (10000738 <tuh_msc_mount_cb+0x1c>)
10000728:	4a04      	ldr	r2, [pc, #16]	; (1000073c <tuh_msc_mount_cb+0x20>)
1000072a:	2100      	movs	r1, #0
1000072c:	0020      	movs	r0, r4
1000072e:	f006 fcff 	bl	10007130 <tuh_msc_inquiry>
10000732:	bd10      	pop	{r4, pc}
10000734:	10008ccc 	.word	0x10008ccc
10000738:	100006a5 	.word	0x100006a5
1000073c:	20001c18 	.word	0x20001c18

10000740 <tuh_msc_umount_cb>:
10000740:	b510      	push	{r4, lr}
10000742:	4802      	ldr	r0, [pc, #8]	; (1000074c <tuh_msc_umount_cb+0xc>)
10000744:	f004 f862 	bl	1000480c <__wrap_puts>
10000748:	bd10      	pop	{r4, pc}
1000074a:	46c0      	nop			; (mov r8, r8)
1000074c:	10008cf0 	.word	0x10008cf0

10000750 <gpio_set_function>:
10000750:	b510      	push	{r4, lr}
10000752:	0083      	lsls	r3, r0, #2
10000754:	4a08      	ldr	r2, [pc, #32]	; (10000778 <gpio_set_function+0x28>)
10000756:	4694      	mov	ip, r2
10000758:	4463      	add	r3, ip
1000075a:	681c      	ldr	r4, [r3, #0]
1000075c:	2240      	movs	r2, #64	; 0x40
1000075e:	4062      	eors	r2, r4
10000760:	24c0      	movs	r4, #192	; 0xc0
10000762:	4014      	ands	r4, r2
10000764:	2280      	movs	r2, #128	; 0x80
10000766:	0152      	lsls	r2, r2, #5
10000768:	4313      	orrs	r3, r2
1000076a:	601c      	str	r4, [r3, #0]
1000076c:	00c0      	lsls	r0, r0, #3
1000076e:	4b03      	ldr	r3, [pc, #12]	; (1000077c <gpio_set_function+0x2c>)
10000770:	469c      	mov	ip, r3
10000772:	4460      	add	r0, ip
10000774:	6041      	str	r1, [r0, #4]
10000776:	bd10      	pop	{r4, pc}
10000778:	4001c004 	.word	0x4001c004
1000077c:	40014000 	.word	0x40014000

10000780 <gpio_init>:
10000780:	b510      	push	{r4, lr}
10000782:	2301      	movs	r3, #1
10000784:	4083      	lsls	r3, r0
10000786:	22d0      	movs	r2, #208	; 0xd0
10000788:	0612      	lsls	r2, r2, #24
1000078a:	6293      	str	r3, [r2, #40]	; 0x28
1000078c:	6193      	str	r3, [r2, #24]
1000078e:	2105      	movs	r1, #5
10000790:	f7ff ffde 	bl	10000750 <gpio_set_function>
10000794:	bd10      	pop	{r4, pc}
	...

10000798 <hw_claim_lock>:
10000798:	f3ef 8010 	mrs	r0, PRIMASK
1000079c:	b672      	cpsid	i
1000079e:	4b03      	ldr	r3, [pc, #12]	; (100007ac <hw_claim_lock+0x14>)
100007a0:	681b      	ldr	r3, [r3, #0]
100007a2:	2b00      	cmp	r3, #0
100007a4:	d0fb      	beq.n	1000079e <hw_claim_lock+0x6>
100007a6:	f3bf 8f5f 	dmb	sy
100007aa:	4770      	bx	lr
100007ac:	d000012c 	.word	0xd000012c

100007b0 <hw_claim_unlock>:
100007b0:	f3bf 8f5f 	dmb	sy
100007b4:	4b02      	ldr	r3, [pc, #8]	; (100007c0 <hw_claim_unlock+0x10>)
100007b6:	2200      	movs	r2, #0
100007b8:	601a      	str	r2, [r3, #0]
100007ba:	f380 8810 	msr	PRIMASK, r0
100007be:	4770      	bx	lr
100007c0:	d000012c 	.word	0xd000012c

100007c4 <hw_claim_or_assert>:
100007c4:	b570      	push	{r4, r5, r6, lr}
100007c6:	0005      	movs	r5, r0
100007c8:	000e      	movs	r6, r1
100007ca:	0014      	movs	r4, r2
100007cc:	f7ff ffe4 	bl	10000798 <hw_claim_lock>
100007d0:	08f2      	lsrs	r2, r6, #3
100007d2:	18aa      	adds	r2, r5, r2
100007d4:	7815      	ldrb	r5, [r2, #0]
100007d6:	2107      	movs	r1, #7
100007d8:	4031      	ands	r1, r6
100007da:	2301      	movs	r3, #1
100007dc:	408b      	lsls	r3, r1
100007de:	422b      	tst	r3, r5
100007e0:	d105      	bne.n	100007ee <hw_claim_or_assert+0x2a>
100007e2:	b2db      	uxtb	r3, r3
100007e4:	432b      	orrs	r3, r5
100007e6:	7013      	strb	r3, [r2, #0]
100007e8:	f7ff ffe2 	bl	100007b0 <hw_claim_unlock>
100007ec:	bd70      	pop	{r4, r5, r6, pc}
100007ee:	0031      	movs	r1, r6
100007f0:	0020      	movs	r0, r4
100007f2:	f001 fcdb 	bl	100021ac <panic>

100007f6 <hw_claim_unused_from_range>:
100007f6:	b5f0      	push	{r4, r5, r6, r7, lr}
100007f8:	b083      	sub	sp, #12
100007fa:	0007      	movs	r7, r0
100007fc:	9101      	str	r1, [sp, #4]
100007fe:	0014      	movs	r4, r2
10000800:	001e      	movs	r6, r3
10000802:	f7ff ffc9 	bl	10000798 <hw_claim_lock>
10000806:	42b4      	cmp	r4, r6
10000808:	d80e      	bhi.n	10000828 <hw_claim_unused_from_range+0x32>
1000080a:	08e2      	lsrs	r2, r4, #3
1000080c:	18ba      	adds	r2, r7, r2
1000080e:	7815      	ldrb	r5, [r2, #0]
10000810:	2107      	movs	r1, #7
10000812:	4021      	ands	r1, r4
10000814:	2301      	movs	r3, #1
10000816:	408b      	lsls	r3, r1
10000818:	422b      	tst	r3, r5
1000081a:	d001      	beq.n	10000820 <hw_claim_unused_from_range+0x2a>
1000081c:	3401      	adds	r4, #1
1000081e:	e7f2      	b.n	10000806 <hw_claim_unused_from_range+0x10>
10000820:	b2db      	uxtb	r3, r3
10000822:	432b      	orrs	r3, r5
10000824:	7013      	strb	r3, [r2, #0]
10000826:	e001      	b.n	1000082c <hw_claim_unused_from_range+0x36>
10000828:	2401      	movs	r4, #1
1000082a:	4264      	negs	r4, r4
1000082c:	f7ff ffc0 	bl	100007b0 <hw_claim_unlock>
10000830:	2c00      	cmp	r4, #0
10000832:	db02      	blt.n	1000083a <hw_claim_unused_from_range+0x44>
10000834:	0020      	movs	r0, r4
10000836:	b003      	add	sp, #12
10000838:	bdf0      	pop	{r4, r5, r6, r7, pc}
1000083a:	9b01      	ldr	r3, [sp, #4]
1000083c:	2b00      	cmp	r3, #0
1000083e:	d0f9      	beq.n	10000834 <hw_claim_unused_from_range+0x3e>
10000840:	9808      	ldr	r0, [sp, #32]
10000842:	f001 fcb3 	bl	100021ac <panic>
	...

10000848 <running_on_fpga>:
10000848:	4b03      	ldr	r3, [pc, #12]	; (10000858 <running_on_fpga+0x10>)
1000084a:	681b      	ldr	r3, [r3, #0]
1000084c:	2002      	movs	r0, #2
1000084e:	4018      	ands	r0, r3
10000850:	1e43      	subs	r3, r0, #1
10000852:	4198      	sbcs	r0, r3
10000854:	b2c0      	uxtb	r0, r0
10000856:	4770      	bx	lr
10000858:	4006c000 	.word	0x4006c000

1000085c <spin_locks_reset>:
1000085c:	2300      	movs	r3, #0
1000085e:	2b1f      	cmp	r3, #31
10000860:	d808      	bhi.n	10000874 <spin_locks_reset+0x18>
10000862:	4a05      	ldr	r2, [pc, #20]	; (10000878 <spin_locks_reset+0x1c>)
10000864:	189a      	adds	r2, r3, r2
10000866:	0092      	lsls	r2, r2, #2
10000868:	f3bf 8f5f 	dmb	sy
1000086c:	2100      	movs	r1, #0
1000086e:	6011      	str	r1, [r2, #0]
10000870:	3301      	adds	r3, #1
10000872:	e7f4      	b.n	1000085e <spin_locks_reset+0x2>
10000874:	4770      	bx	lr
10000876:	46c0      	nop			; (mov r8, r8)
10000878:	34000040 	.word	0x34000040

1000087c <next_striped_spin_lock_num>:
1000087c:	4a05      	ldr	r2, [pc, #20]	; (10000894 <next_striped_spin_lock_num+0x18>)
1000087e:	7810      	ldrb	r0, [r2, #0]
10000880:	1c43      	adds	r3, r0, #1
10000882:	b2db      	uxtb	r3, r3
10000884:	7013      	strb	r3, [r2, #0]
10000886:	2b17      	cmp	r3, #23
10000888:	d902      	bls.n	10000890 <next_striped_spin_lock_num+0x14>
1000088a:	0013      	movs	r3, r2
1000088c:	2210      	movs	r2, #16
1000088e:	701a      	strb	r2, [r3, #0]
10000890:	4770      	bx	lr
10000892:	46c0      	nop			; (mov r8, r8)
10000894:	200002c8 	.word	0x200002c8

10000898 <spin_lock_claim_unused>:
10000898:	b500      	push	{lr}
1000089a:	b083      	sub	sp, #12
1000089c:	0001      	movs	r1, r0
1000089e:	4b04      	ldr	r3, [pc, #16]	; (100008b0 <spin_lock_claim_unused+0x18>)
100008a0:	9300      	str	r3, [sp, #0]
100008a2:	231f      	movs	r3, #31
100008a4:	2218      	movs	r2, #24
100008a6:	4803      	ldr	r0, [pc, #12]	; (100008b4 <spin_lock_claim_unused+0x1c>)
100008a8:	f7ff ffa5 	bl	100007f6 <hw_claim_unused_from_range>
100008ac:	b003      	add	sp, #12
100008ae:	bd00      	pop	{pc}
100008b0:	10008d14 	.word	0x10008d14
100008b4:	20001910 	.word	0x20001910

100008b8 <set_raw_irq_handler_and_unlock>:
100008b8:	4b07      	ldr	r3, [pc, #28]	; (100008d8 <set_raw_irq_handler_and_unlock+0x20>)
100008ba:	689b      	ldr	r3, [r3, #8]
100008bc:	3010      	adds	r0, #16
100008be:	0080      	lsls	r0, r0, #2
100008c0:	5019      	str	r1, [r3, r0]
100008c2:	f3bf 8f5f 	dmb	sy
100008c6:	f3bf 8f5f 	dmb	sy
100008ca:	4b04      	ldr	r3, [pc, #16]	; (100008dc <set_raw_irq_handler_and_unlock+0x24>)
100008cc:	2100      	movs	r1, #0
100008ce:	6019      	str	r1, [r3, #0]
100008d0:	f382 8810 	msr	PRIMASK, r2
100008d4:	4770      	bx	lr
100008d6:	46c0      	nop			; (mov r8, r8)
100008d8:	e000ed00 	.word	0xe000ed00
100008dc:	d0000124 	.word	0xd0000124

100008e0 <make_branch>:
100008e0:	b510      	push	{r4, lr}
100008e2:	1a09      	subs	r1, r1, r0
100008e4:	1f0b      	subs	r3, r1, #4
100008e6:	4a0a      	ldr	r2, [pc, #40]	; (10000910 <make_branch+0x30>)
100008e8:	4694      	mov	ip, r2
100008ea:	4461      	add	r1, ip
100008ec:	4a09      	ldr	r2, [pc, #36]	; (10000914 <make_branch+0x34>)
100008ee:	4291      	cmp	r1, r2
100008f0:	d808      	bhi.n	10000904 <make_branch+0x24>
100008f2:	07da      	lsls	r2, r3, #31
100008f4:	d406      	bmi.n	10000904 <make_branch+0x24>
100008f6:	105b      	asrs	r3, r3, #1
100008f8:	055b      	lsls	r3, r3, #21
100008fa:	0d5b      	lsrs	r3, r3, #21
100008fc:	4806      	ldr	r0, [pc, #24]	; (10000918 <make_branch+0x38>)
100008fe:	4318      	orrs	r0, r3
10000900:	b280      	uxth	r0, r0
10000902:	bd10      	pop	{r4, pc}
10000904:	4b05      	ldr	r3, [pc, #20]	; (1000091c <make_branch+0x3c>)
10000906:	4a06      	ldr	r2, [pc, #24]	; (10000920 <make_branch+0x40>)
10000908:	2199      	movs	r1, #153	; 0x99
1000090a:	4806      	ldr	r0, [pc, #24]	; (10000924 <make_branch+0x44>)
1000090c:	f001 fbb4 	bl	10002078 <__assert_func>
10000910:	000007fc 	.word	0x000007fc
10000914:	00000ffe 	.word	0x00000ffe
10000918:	ffffe000 	.word	0xffffe000
1000091c:	10008f3c 	.word	0x10008f3c
10000920:	10008d4c 	.word	0x10008d4c
10000924:	10008f6c 	.word	0x10008f6c

10000928 <insert_branch_and_link>:
10000928:	b510      	push	{r4, lr}
1000092a:	1a09      	subs	r1, r1, r0
1000092c:	3904      	subs	r1, #4
1000092e:	084c      	lsrs	r4, r1, #1
10000930:	0b09      	lsrs	r1, r1, #12
10000932:	d108      	bne.n	10000946 <insert_branch_and_link+0x1e>
10000934:	0549      	lsls	r1, r1, #21
10000936:	0d49      	lsrs	r1, r1, #21
10000938:	4a06      	ldr	r2, [pc, #24]	; (10000954 <insert_branch_and_link+0x2c>)
1000093a:	4311      	orrs	r1, r2
1000093c:	8001      	strh	r1, [r0, #0]
1000093e:	4b06      	ldr	r3, [pc, #24]	; (10000958 <insert_branch_and_link+0x30>)
10000940:	4323      	orrs	r3, r4
10000942:	8043      	strh	r3, [r0, #2]
10000944:	bd10      	pop	{r4, pc}
10000946:	4b05      	ldr	r3, [pc, #20]	; (1000095c <insert_branch_and_link+0x34>)
10000948:	4a05      	ldr	r2, [pc, #20]	; (10000960 <insert_branch_and_link+0x38>)
1000094a:	21a1      	movs	r1, #161	; 0xa1
1000094c:	4805      	ldr	r0, [pc, #20]	; (10000964 <insert_branch_and_link+0x3c>)
1000094e:	f001 fb93 	bl	10002078 <__assert_func>
10000952:	46c0      	nop			; (mov r8, r8)
10000954:	fffff000 	.word	0xfffff000
10000958:	fffff800 	.word	0xfffff800
1000095c:	10008db0 	.word	0x10008db0
10000960:	10008d58 	.word	0x10008d58
10000964:	10008f6c 	.word	0x10008f6c

10000968 <irq_is_enabled>:
10000968:	2301      	movs	r3, #1
1000096a:	4083      	lsls	r3, r0
1000096c:	4a03      	ldr	r2, [pc, #12]	; (1000097c <irq_is_enabled+0x14>)
1000096e:	6810      	ldr	r0, [r2, #0]
10000970:	4018      	ands	r0, r3
10000972:	1e43      	subs	r3, r0, #1
10000974:	4198      	sbcs	r0, r3
10000976:	b2c0      	uxtb	r0, r0
10000978:	4770      	bx	lr
1000097a:	46c0      	nop			; (mov r8, r8)
1000097c:	e000e100 	.word	0xe000e100

10000980 <irq_set_mask_enabled>:
10000980:	2900      	cmp	r1, #0
10000982:	d004      	beq.n	1000098e <irq_set_mask_enabled+0xe>
10000984:	4b03      	ldr	r3, [pc, #12]	; (10000994 <irq_set_mask_enabled+0x14>)
10000986:	6018      	str	r0, [r3, #0]
10000988:	4b03      	ldr	r3, [pc, #12]	; (10000998 <irq_set_mask_enabled+0x18>)
1000098a:	6018      	str	r0, [r3, #0]
1000098c:	4770      	bx	lr
1000098e:	4b03      	ldr	r3, [pc, #12]	; (1000099c <irq_set_mask_enabled+0x1c>)
10000990:	6018      	str	r0, [r3, #0]
10000992:	e7fb      	b.n	1000098c <irq_set_mask_enabled+0xc>
10000994:	e000e280 	.word	0xe000e280
10000998:	e000e100 	.word	0xe000e100
1000099c:	e000e180 	.word	0xe000e180

100009a0 <irq_set_enabled>:
100009a0:	b510      	push	{r4, lr}
100009a2:	2301      	movs	r3, #1
100009a4:	4083      	lsls	r3, r0
100009a6:	0018      	movs	r0, r3
100009a8:	f7ff ffea 	bl	10000980 <irq_set_mask_enabled>
100009ac:	bd10      	pop	{r4, pc}
	...

100009b0 <irq_get_vtable_handler>:
100009b0:	4b02      	ldr	r3, [pc, #8]	; (100009bc <irq_get_vtable_handler+0xc>)
100009b2:	689b      	ldr	r3, [r3, #8]
100009b4:	3010      	adds	r0, #16
100009b6:	0080      	lsls	r0, r0, #2
100009b8:	58c0      	ldr	r0, [r0, r3]
100009ba:	4770      	bx	lr
100009bc:	e000ed00 	.word	0xe000ed00

100009c0 <irq_set_exclusive_handler>:
100009c0:	b570      	push	{r4, r5, r6, lr}
100009c2:	0004      	movs	r4, r0
100009c4:	000d      	movs	r5, r1
100009c6:	f3ef 8610 	mrs	r6, PRIMASK
100009ca:	b672      	cpsid	i
100009cc:	4b0c      	ldr	r3, [pc, #48]	; (10000a00 <irq_set_exclusive_handler+0x40>)
100009ce:	681b      	ldr	r3, [r3, #0]
100009d0:	2b00      	cmp	r3, #0
100009d2:	d0fb      	beq.n	100009cc <irq_set_exclusive_handler+0xc>
100009d4:	f3bf 8f5f 	dmb	sy
100009d8:	0020      	movs	r0, r4
100009da:	f7ff ffe9 	bl	100009b0 <irq_get_vtable_handler>
100009de:	4b09      	ldr	r3, [pc, #36]	; (10000a04 <irq_set_exclusive_handler+0x44>)
100009e0:	4298      	cmp	r0, r3
100009e2:	d001      	beq.n	100009e8 <irq_set_exclusive_handler+0x28>
100009e4:	42a8      	cmp	r0, r5
100009e6:	d105      	bne.n	100009f4 <irq_set_exclusive_handler+0x34>
100009e8:	0032      	movs	r2, r6
100009ea:	0029      	movs	r1, r5
100009ec:	0020      	movs	r0, r4
100009ee:	f7ff ff63 	bl	100008b8 <set_raw_irq_handler_and_unlock>
100009f2:	bd70      	pop	{r4, r5, r6, pc}
100009f4:	4b04      	ldr	r3, [pc, #16]	; (10000a08 <irq_set_exclusive_handler+0x48>)
100009f6:	4a05      	ldr	r2, [pc, #20]	; (10000a0c <irq_set_exclusive_handler+0x4c>)
100009f8:	217c      	movs	r1, #124	; 0x7c
100009fa:	4805      	ldr	r0, [pc, #20]	; (10000a10 <irq_set_exclusive_handler+0x50>)
100009fc:	f001 fb3c 	bl	10002078 <__assert_func>
10000a00:	d0000124 	.word	0xd0000124
10000a04:	100001cd 	.word	0x100001cd
10000a08:	10008f04 	.word	0x10008f04
10000a0c:	10008d30 	.word	0x10008d30
10000a10:	10008f6c 	.word	0x10008f6c

10000a14 <irq_remove_handler>:
10000a14:	b5f0      	push	{r4, r5, r6, r7, lr}
10000a16:	46c6      	mov	lr, r8
10000a18:	b500      	push	{lr}
10000a1a:	b084      	sub	sp, #16
10000a1c:	9001      	str	r0, [sp, #4]
10000a1e:	000d      	movs	r5, r1
10000a20:	f3ef 8610 	mrs	r6, PRIMASK
10000a24:	b672      	cpsid	i
10000a26:	4b55      	ldr	r3, [pc, #340]	; (10000b7c <irq_remove_handler+0x168>)
10000a28:	681b      	ldr	r3, [r3, #0]
10000a2a:	2b00      	cmp	r3, #0
10000a2c:	d0fb      	beq.n	10000a26 <irq_remove_handler+0x12>
10000a2e:	f3bf 8f5f 	dmb	sy
10000a32:	4b53      	ldr	r3, [pc, #332]	; (10000b80 <irq_remove_handler+0x16c>)
10000a34:	689a      	ldr	r2, [r3, #8]
10000a36:	9c01      	ldr	r4, [sp, #4]
10000a38:	3410      	adds	r4, #16
10000a3a:	00a3      	lsls	r3, r4, #2
10000a3c:	58d7      	ldr	r7, [r2, r3]
10000a3e:	4b51      	ldr	r3, [pc, #324]	; (10000b84 <irq_remove_handler+0x170>)
10000a40:	429f      	cmp	r7, r3
10000a42:	d007      	beq.n	10000a54 <irq_remove_handler+0x40>
10000a44:	42af      	cmp	r7, r5
10000a46:	d100      	bne.n	10000a4a <irq_remove_handler+0x36>
10000a48:	e096      	b.n	10000b78 <irq_remove_handler+0x164>
10000a4a:	9702      	str	r7, [sp, #8]
10000a4c:	4b4e      	ldr	r3, [pc, #312]	; (10000b88 <irq_remove_handler+0x174>)
10000a4e:	1afb      	subs	r3, r7, r3
10000a50:	2b2f      	cmp	r3, #47	; 0x2f
10000a52:	d908      	bls.n	10000a66 <irq_remove_handler+0x52>
10000a54:	0032      	movs	r2, r6
10000a56:	0039      	movs	r1, r7
10000a58:	9801      	ldr	r0, [sp, #4]
10000a5a:	f7ff ff2d 	bl	100008b8 <set_raw_irq_handler_and_unlock>
10000a5e:	b004      	add	sp, #16
10000a60:	bc04      	pop	{r2}
10000a62:	4690      	mov	r8, r2
10000a64:	bdf0      	pop	{r4, r5, r6, r7, pc}
10000a66:	9801      	ldr	r0, [sp, #4]
10000a68:	f7ff ff7e 	bl	10000968 <irq_is_enabled>
10000a6c:	9003      	str	r0, [sp, #12]
10000a6e:	2100      	movs	r1, #0
10000a70:	9801      	ldr	r0, [sp, #4]
10000a72:	f7ff ff95 	bl	100009a0 <irq_set_enabled>
10000a76:	f3bf 8f5f 	dmb	sy
10000a7a:	f7ff fbf4 	bl	10000266 <__get_current_exception>
10000a7e:	1e01      	subs	r1, r0, #0
10000a80:	d001      	beq.n	10000a86 <irq_remove_handler+0x72>
10000a82:	4284      	cmp	r4, r0
10000a84:	d111      	bne.n	10000aaa <irq_remove_handler+0x96>
10000a86:	2301      	movs	r3, #1
10000a88:	9c02      	ldr	r4, [sp, #8]
10000a8a:	439c      	bics	r4, r3
10000a8c:	2000      	movs	r0, #0
10000a8e:	68a3      	ldr	r3, [r4, #8]
10000a90:	42ab      	cmp	r3, r5
10000a92:	d012      	beq.n	10000aba <irq_remove_handler+0xa6>
10000a94:	2206      	movs	r2, #6
10000a96:	56a2      	ldrsb	r2, [r4, r2]
10000a98:	2a00      	cmp	r2, #0
10000a9a:	db0d      	blt.n	10000ab8 <irq_remove_handler+0xa4>
10000a9c:	0053      	lsls	r3, r2, #1
10000a9e:	189b      	adds	r3, r3, r2
10000aa0:	009a      	lsls	r2, r3, #2
10000aa2:	0020      	movs	r0, r4
10000aa4:	4c38      	ldr	r4, [pc, #224]	; (10000b88 <irq_remove_handler+0x174>)
10000aa6:	18a4      	adds	r4, r4, r2
10000aa8:	e7f1      	b.n	10000a8e <irq_remove_handler+0x7a>
10000aaa:	212c      	movs	r1, #44	; 0x2c
10000aac:	4b37      	ldr	r3, [pc, #220]	; (10000b8c <irq_remove_handler+0x178>)
10000aae:	4a38      	ldr	r2, [pc, #224]	; (10000b90 <irq_remove_handler+0x17c>)
10000ab0:	31ff      	adds	r1, #255	; 0xff
10000ab2:	4838      	ldr	r0, [pc, #224]	; (10000b94 <irq_remove_handler+0x180>)
10000ab4:	f001 fae0 	bl	10002078 <__assert_func>
10000ab8:	0020      	movs	r0, r4
10000aba:	42ab      	cmp	r3, r5
10000abc:	d155      	bne.n	10000b6a <irq_remove_handler+0x156>
10000abe:	2306      	movs	r3, #6
10000ac0:	56e3      	ldrsb	r3, [r4, r3]
10000ac2:	4698      	mov	r8, r3
10000ac4:	2b00      	cmp	r3, #0
10000ac6:	db36      	blt.n	10000b36 <irq_remove_handler+0x122>
10000ac8:	005a      	lsls	r2, r3, #1
10000aca:	4442      	add	r2, r8
10000acc:	0091      	lsls	r1, r2, #2
10000ace:	4b2e      	ldr	r3, [pc, #184]	; (10000b88 <irq_remove_handler+0x174>)
10000ad0:	185b      	adds	r3, r3, r1
10000ad2:	689a      	ldr	r2, [r3, #8]
10000ad4:	60a2      	str	r2, [r4, #8]
10000ad6:	79da      	ldrb	r2, [r3, #7]
10000ad8:	71e2      	strb	r2, [r4, #7]
10000ada:	799b      	ldrb	r3, [r3, #6]
10000adc:	b25b      	sxtb	r3, r3
10000ade:	71a3      	strb	r3, [r4, #6]
10000ae0:	2b00      	cmp	r3, #0
10000ae2:	da12      	bge.n	10000b0a <irq_remove_handler+0xf6>
10000ae4:	20bd      	movs	r0, #189	; 0xbd
10000ae6:	0200      	lsls	r0, r0, #8
10000ae8:	80a0      	strh	r0, [r4, #4]
10000aea:	4643      	mov	r3, r8
10000aec:	005b      	lsls	r3, r3, #1
10000aee:	4443      	add	r3, r8
10000af0:	009a      	lsls	r2, r3, #2
10000af2:	4b25      	ldr	r3, [pc, #148]	; (10000b88 <irq_remove_handler+0x174>)
10000af4:	189b      	adds	r3, r3, r2
10000af6:	4a28      	ldr	r2, [pc, #160]	; (10000b98 <irq_remove_handler+0x184>)
10000af8:	7811      	ldrb	r1, [r2, #0]
10000afa:	7199      	strb	r1, [r3, #6]
10000afc:	4643      	mov	r3, r8
10000afe:	7013      	strb	r3, [r2, #0]
10000b00:	9903      	ldr	r1, [sp, #12]
10000b02:	9801      	ldr	r0, [sp, #4]
10000b04:	f7ff ff4c 	bl	100009a0 <irq_set_enabled>
10000b08:	e7a4      	b.n	10000a54 <irq_remove_handler+0x40>
10000b0a:	1d20      	adds	r0, r4, #4
10000b0c:	4a1e      	ldr	r2, [pc, #120]	; (10000b88 <irq_remove_handler+0x174>)
10000b0e:	188b      	adds	r3, r1, r2
10000b10:	1d1a      	adds	r2, r3, #4
10000b12:	889b      	ldrh	r3, [r3, #4]
10000b14:	0ad9      	lsrs	r1, r3, #11
10000b16:	291c      	cmp	r1, #28
10000b18:	d107      	bne.n	10000b2a <irq_remove_handler+0x116>
10000b1a:	0559      	lsls	r1, r3, #21
10000b1c:	1549      	asrs	r1, r1, #21
10000b1e:	3102      	adds	r1, #2
10000b20:	0049      	lsls	r1, r1, #1
10000b22:	1851      	adds	r1, r2, r1
10000b24:	f7ff fedc 	bl	100008e0 <make_branch>
10000b28:	e7de      	b.n	10000ae8 <irq_remove_handler+0xd4>
10000b2a:	4b1c      	ldr	r3, [pc, #112]	; (10000b9c <irq_remove_handler+0x188>)
10000b2c:	4a1c      	ldr	r2, [pc, #112]	; (10000ba0 <irq_remove_handler+0x18c>)
10000b2e:	21a7      	movs	r1, #167	; 0xa7
10000b30:	4818      	ldr	r0, [pc, #96]	; (10000b94 <irq_remove_handler+0x180>)
10000b32:	f001 faa1 	bl	10002078 <__assert_func>
10000b36:	2900      	cmp	r1, #0
10000b38:	d112      	bne.n	10000b60 <irq_remove_handler+0x14c>
10000b3a:	2800      	cmp	r0, #0
10000b3c:	d00e      	beq.n	10000b5c <irq_remove_handler+0x148>
10000b3e:	23ff      	movs	r3, #255	; 0xff
10000b40:	7183      	strb	r3, [r0, #6]
10000b42:	4b18      	ldr	r3, [pc, #96]	; (10000ba4 <irq_remove_handler+0x190>)
10000b44:	8083      	strh	r3, [r0, #4]
10000b46:	4a14      	ldr	r2, [pc, #80]	; (10000b98 <irq_remove_handler+0x184>)
10000b48:	7813      	ldrb	r3, [r2, #0]
10000b4a:	71a3      	strb	r3, [r4, #6]
10000b4c:	4b16      	ldr	r3, [pc, #88]	; (10000ba8 <irq_remove_handler+0x194>)
10000b4e:	490e      	ldr	r1, [pc, #56]	; (10000b88 <irq_remove_handler+0x174>)
10000b50:	1a64      	subs	r4, r4, r1
10000b52:	4164      	adcs	r4, r4
10000b54:	4363      	muls	r3, r4
10000b56:	0d1b      	lsrs	r3, r3, #20
10000b58:	7013      	strb	r3, [r2, #0]
10000b5a:	e7d1      	b.n	10000b00 <irq_remove_handler+0xec>
10000b5c:	4f09      	ldr	r7, [pc, #36]	; (10000b84 <irq_remove_handler+0x170>)
10000b5e:	e7f2      	b.n	10000b46 <irq_remove_handler+0x132>
10000b60:	1d20      	adds	r0, r4, #4
10000b62:	4912      	ldr	r1, [pc, #72]	; (10000bac <irq_remove_handler+0x198>)
10000b64:	f7ff fee0 	bl	10000928 <insert_branch_and_link>
10000b68:	e7ca      	b.n	10000b00 <irq_remove_handler+0xec>
10000b6a:	2160      	movs	r1, #96	; 0x60
10000b6c:	4b10      	ldr	r3, [pc, #64]	; (10000bb0 <irq_remove_handler+0x19c>)
10000b6e:	4a08      	ldr	r2, [pc, #32]	; (10000b90 <irq_remove_handler+0x17c>)
10000b70:	31ff      	adds	r1, #255	; 0xff
10000b72:	4808      	ldr	r0, [pc, #32]	; (10000b94 <irq_remove_handler+0x180>)
10000b74:	f001 fa80 	bl	10002078 <__assert_func>
10000b78:	4f02      	ldr	r7, [pc, #8]	; (10000b84 <irq_remove_handler+0x170>)
10000b7a:	e76b      	b.n	10000a54 <irq_remove_handler+0x40>
10000b7c:	d0000124 	.word	0xd0000124
10000b80:	e000ed00 	.word	0xe000ed00
10000b84:	100001cd 	.word	0x100001cd
10000b88:	200002cc 	.word	0x200002cc
10000b8c:	10008ed8 	.word	0x10008ed8
10000b90:	10008d80 	.word	0x10008d80
10000b94:	10008f6c 	.word	0x10008f6c
10000b98:	20001cba 	.word	0x20001cba
10000b9c:	10008e84 	.word	0x10008e84
10000ba0:	10008d70 	.word	0x10008d70
10000ba4:	ffffbd00 	.word	0xffffbd00
10000ba8:	0000aaaa 	.word	0x0000aaaa
10000bac:	20000306 	.word	0x20000306
10000bb0:	10008efc 	.word	0x10008efc

10000bb4 <irq_add_tail_to_free_list>:
10000bb4:	b5f8      	push	{r3, r4, r5, r6, r7, lr}
10000bb6:	0004      	movs	r4, r0
10000bb8:	2601      	movs	r6, #1
10000bba:	4306      	orrs	r6, r0
10000bbc:	4b2d      	ldr	r3, [pc, #180]	; (10000c74 <irq_add_tail_to_free_list+0xc0>)
10000bbe:	1af3      	subs	r3, r6, r3
10000bc0:	2b2f      	cmp	r3, #47	; 0x2f
10000bc2:	d828      	bhi.n	10000c16 <irq_add_tail_to_free_list+0x62>
10000bc4:	f7ff fb4f 	bl	10000266 <__get_current_exception>
10000bc8:	2800      	cmp	r0, #0
10000bca:	d02b      	beq.n	10000c24 <irq_add_tail_to_free_list+0x70>
10000bcc:	f3ef 8710 	mrs	r7, PRIMASK
10000bd0:	b672      	cpsid	i
10000bd2:	4b29      	ldr	r3, [pc, #164]	; (10000c78 <irq_add_tail_to_free_list+0xc4>)
10000bd4:	681b      	ldr	r3, [r3, #0]
10000bd6:	2b00      	cmp	r3, #0
10000bd8:	d0fb      	beq.n	10000bd2 <irq_add_tail_to_free_list+0x1e>
10000bda:	f3bf 8f5f 	dmb	sy
10000bde:	4d27      	ldr	r5, [pc, #156]	; (10000c7c <irq_add_tail_to_free_list+0xc8>)
10000be0:	0022      	movs	r2, r4
10000be2:	4924      	ldr	r1, [pc, #144]	; (10000c74 <irq_add_tail_to_free_list+0xc0>)
10000be4:	1a52      	subs	r2, r2, r1
10000be6:	4152      	adcs	r2, r2
10000be8:	4355      	muls	r5, r2
10000bea:	0d2d      	lsrs	r5, r5, #20
10000bec:	b26d      	sxtb	r5, r5
10000bee:	4b24      	ldr	r3, [pc, #144]	; (10000c80 <irq_add_tail_to_free_list+0xcc>)
10000bf0:	689b      	ldr	r3, [r3, #8]
10000bf2:	0080      	lsls	r0, r0, #2
10000bf4:	581b      	ldr	r3, [r3, r0]
10000bf6:	42b3      	cmp	r3, r6
10000bf8:	d01b      	beq.n	10000c32 <irq_add_tail_to_free_list+0x7e>
10000bfa:	2300      	movs	r3, #0
10000bfc:	2b03      	cmp	r3, #3
10000bfe:	d832      	bhi.n	10000c66 <irq_add_tail_to_free_list+0xb2>
10000c00:	005a      	lsls	r2, r3, #1
10000c02:	18d2      	adds	r2, r2, r3
10000c04:	0091      	lsls	r1, r2, #2
10000c06:	4a1b      	ldr	r2, [pc, #108]	; (10000c74 <irq_add_tail_to_free_list+0xc0>)
10000c08:	1852      	adds	r2, r2, r1
10000c0a:	7992      	ldrb	r2, [r2, #6]
10000c0c:	b252      	sxtb	r2, r2
10000c0e:	42aa      	cmp	r2, r5
10000c10:	d01f      	beq.n	10000c52 <irq_add_tail_to_free_list+0x9e>
10000c12:	3301      	adds	r3, #1
10000c14:	e7f2      	b.n	10000bfc <irq_add_tail_to_free_list+0x48>
10000c16:	21c2      	movs	r1, #194	; 0xc2
10000c18:	4b1a      	ldr	r3, [pc, #104]	; (10000c84 <irq_add_tail_to_free_list+0xd0>)
10000c1a:	4a1b      	ldr	r2, [pc, #108]	; (10000c88 <irq_add_tail_to_free_list+0xd4>)
10000c1c:	0049      	lsls	r1, r1, #1
10000c1e:	481b      	ldr	r0, [pc, #108]	; (10000c8c <irq_add_tail_to_free_list+0xd8>)
10000c20:	f001 fa2a 	bl	10002078 <__assert_func>
10000c24:	2188      	movs	r1, #136	; 0x88
10000c26:	4b1a      	ldr	r3, [pc, #104]	; (10000c90 <irq_add_tail_to_free_list+0xdc>)
10000c28:	4a17      	ldr	r2, [pc, #92]	; (10000c88 <irq_add_tail_to_free_list+0xd4>)
10000c2a:	31ff      	adds	r1, #255	; 0xff
10000c2c:	4817      	ldr	r0, [pc, #92]	; (10000c8c <irq_add_tail_to_free_list+0xd8>)
10000c2e:	f001 fa23 	bl	10002078 <__assert_func>
10000c32:	4b13      	ldr	r3, [pc, #76]	; (10000c80 <irq_add_tail_to_free_list+0xcc>)
10000c34:	689b      	ldr	r3, [r3, #8]
10000c36:	4a17      	ldr	r2, [pc, #92]	; (10000c94 <irq_add_tail_to_free_list+0xe0>)
10000c38:	501a      	str	r2, [r3, r0]
10000c3a:	4b17      	ldr	r3, [pc, #92]	; (10000c98 <irq_add_tail_to_free_list+0xe4>)
10000c3c:	781a      	ldrb	r2, [r3, #0]
10000c3e:	71a2      	strb	r2, [r4, #6]
10000c40:	701d      	strb	r5, [r3, #0]
10000c42:	f3bf 8f5f 	dmb	sy
10000c46:	4b0c      	ldr	r3, [pc, #48]	; (10000c78 <irq_add_tail_to_free_list+0xc4>)
10000c48:	2200      	movs	r2, #0
10000c4a:	601a      	str	r2, [r3, #0]
10000c4c:	f387 8810 	msr	PRIMASK, r7
10000c50:	bdf8      	pop	{r3, r4, r5, r6, r7, pc}
10000c52:	4908      	ldr	r1, [pc, #32]	; (10000c74 <irq_add_tail_to_free_list+0xc0>)
10000c54:	005a      	lsls	r2, r3, #1
10000c56:	18d6      	adds	r6, r2, r3
10000c58:	00b0      	lsls	r0, r6, #2
10000c5a:	1808      	adds	r0, r1, r0
10000c5c:	26ff      	movs	r6, #255	; 0xff
10000c5e:	7186      	strb	r6, [r0, #6]
10000c60:	4b0e      	ldr	r3, [pc, #56]	; (10000c9c <irq_add_tail_to_free_list+0xe8>)
10000c62:	8083      	strh	r3, [r0, #4]
10000c64:	e7e9      	b.n	10000c3a <irq_add_tail_to_free_list+0x86>
10000c66:	21cc      	movs	r1, #204	; 0xcc
10000c68:	4b0d      	ldr	r3, [pc, #52]	; (10000ca0 <irq_add_tail_to_free_list+0xec>)
10000c6a:	4a07      	ldr	r2, [pc, #28]	; (10000c88 <irq_add_tail_to_free_list+0xd4>)
10000c6c:	0049      	lsls	r1, r1, #1
10000c6e:	4807      	ldr	r0, [pc, #28]	; (10000c8c <irq_add_tail_to_free_list+0xd8>)
10000c70:	f001 fa02 	bl	10002078 <__assert_func>
10000c74:	200002cc 	.word	0x200002cc
10000c78:	d0000124 	.word	0xd0000124
10000c7c:	0000aaaa 	.word	0x0000aaaa
10000c80:	e000ed00 	.word	0xe000ed00
10000c84:	10008e9c 	.word	0x10008e9c
10000c88:	10008d94 	.word	0x10008d94
10000c8c:	10008f6c 	.word	0x10008f6c
10000c90:	10008ec4 	.word	0x10008ec4
10000c94:	100001cd 	.word	0x100001cd
10000c98:	20001cba 	.word	0x20001cba
10000c9c:	ffffbd00 	.word	0xffffbd00
10000ca0:	10008ed0 	.word	0x10008ed0

10000ca4 <irq_init_priorities>:
10000ca4:	2200      	movs	r2, #0
10000ca6:	4b04      	ldr	r3, [pc, #16]	; (10000cb8 <irq_init_priorities+0x14>)
10000ca8:	e002      	b.n	10000cb0 <irq_init_priorities+0xc>
10000caa:	4904      	ldr	r1, [pc, #16]	; (10000cbc <irq_init_priorities+0x18>)
10000cac:	c302      	stmia	r3!, {r1}
10000cae:	3201      	adds	r2, #1
10000cb0:	2a07      	cmp	r2, #7
10000cb2:	d9fa      	bls.n	10000caa <irq_init_priorities+0x6>
10000cb4:	4770      	bx	lr
10000cb6:	46c0      	nop			; (mov r8, r8)
10000cb8:	e000e400 	.word	0xe000e400
10000cbc:	80808080 	.word	0x80808080

10000cc0 <lock_init>:
10000cc0:	4b02      	ldr	r3, [pc, #8]	; (10000ccc <lock_init+0xc>)
10000cc2:	469c      	mov	ip, r3
10000cc4:	4461      	add	r1, ip
10000cc6:	0089      	lsls	r1, r1, #2
10000cc8:	6001      	str	r1, [r0, #0]
10000cca:	4770      	bx	lr
10000ccc:	34000040 	.word	0x34000040

10000cd0 <sleep_until_callback>:
10000cd0:	4b0a      	ldr	r3, [pc, #40]	; (10000cfc <sleep_until_callback+0x2c>)
10000cd2:	681a      	ldr	r2, [r3, #0]
10000cd4:	f3ef 8110 	mrs	r1, PRIMASK
10000cd8:	b672      	cpsid	i
10000cda:	6813      	ldr	r3, [r2, #0]
10000cdc:	2b00      	cmp	r3, #0
10000cde:	d0fc      	beq.n	10000cda <sleep_until_callback+0xa>
10000ce0:	f3bf 8f5f 	dmb	sy
10000ce4:	4b05      	ldr	r3, [pc, #20]	; (10000cfc <sleep_until_callback+0x2c>)
10000ce6:	681b      	ldr	r3, [r3, #0]
10000ce8:	f3bf 8f5f 	dmb	sy
10000cec:	2200      	movs	r2, #0
10000cee:	601a      	str	r2, [r3, #0]
10000cf0:	f381 8810 	msr	PRIMASK, r1
10000cf4:	bf40      	sev
10000cf6:	2000      	movs	r0, #0
10000cf8:	2100      	movs	r1, #0
10000cfa:	4770      	bx	lr
10000cfc:	20001c98 	.word	0x20001c98

10000d00 <alarm_pool_post_alloc_init>:
10000d00:	b570      	push	{r4, r5, r6, lr}
10000d02:	0005      	movs	r5, r0
10000d04:	000c      	movs	r4, r1
10000d06:	0008      	movs	r0, r1
10000d08:	f000 fda6 	bl	10001858 <hardware_alarm_claim>
10000d0c:	0020      	movs	r0, r4
10000d0e:	f000 fead 	bl	10001a6c <hardware_alarm_cancel>
10000d12:	4908      	ldr	r1, [pc, #32]	; (10000d34 <alarm_pool_post_alloc_init+0x34>)
10000d14:	0020      	movs	r0, r4
10000d16:	f000 fded 	bl	100018f4 <hardware_alarm_set_callback>
10000d1a:	f7ff fdaf 	bl	1000087c <next_striped_spin_lock_num>
10000d1e:	4b06      	ldr	r3, [pc, #24]	; (10000d38 <alarm_pool_post_alloc_init+0x38>)
10000d20:	469c      	mov	ip, r3
10000d22:	4460      	add	r0, ip
10000d24:	0080      	lsls	r0, r0, #2
10000d26:	6068      	str	r0, [r5, #4]
10000d28:	752c      	strb	r4, [r5, #20]
10000d2a:	00a4      	lsls	r4, r4, #2
10000d2c:	4b03      	ldr	r3, [pc, #12]	; (10000d3c <alarm_pool_post_alloc_init+0x3c>)
10000d2e:	50e5      	str	r5, [r4, r3]
10000d30:	bd70      	pop	{r4, r5, r6, pc}
10000d32:	46c0      	nop			; (mov r8, r8)
10000d34:	10001021 	.word	0x10001021
10000d38:	34000040 	.word	0x34000040
10000d3c:	20001c3c 	.word	0x20001c3c

10000d40 <timer_pool_entry_comparator>:
10000d40:	b510      	push	{r4, lr}
10000d42:	2900      	cmp	r1, #0
10000d44:	d022      	beq.n	10000d8c <timer_pool_entry_comparator+0x4c>
10000d46:	6803      	ldr	r3, [r0, #0]
10000d48:	7b1b      	ldrb	r3, [r3, #12]
10000d4a:	4299      	cmp	r1, r3
10000d4c:	d81e      	bhi.n	10000d8c <timer_pool_entry_comparator+0x4c>
10000d4e:	4b17      	ldr	r3, [pc, #92]	; (10000dac <timer_pool_entry_comparator+0x6c>)
10000d50:	469c      	mov	ip, r3
10000d52:	4461      	add	r1, ip
10000d54:	0109      	lsls	r1, r1, #4
10000d56:	6883      	ldr	r3, [r0, #8]
10000d58:	469c      	mov	ip, r3
10000d5a:	4461      	add	r1, ip
10000d5c:	680c      	ldr	r4, [r1, #0]
10000d5e:	6849      	ldr	r1, [r1, #4]
10000d60:	2a00      	cmp	r2, #0
10000d62:	d019      	beq.n	10000d98 <timer_pool_entry_comparator+0x58>
10000d64:	6803      	ldr	r3, [r0, #0]
10000d66:	7b1b      	ldrb	r3, [r3, #12]
10000d68:	429a      	cmp	r2, r3
10000d6a:	d815      	bhi.n	10000d98 <timer_pool_entry_comparator+0x58>
10000d6c:	6883      	ldr	r3, [r0, #8]
10000d6e:	480f      	ldr	r0, [pc, #60]	; (10000dac <timer_pool_entry_comparator+0x6c>)
10000d70:	4684      	mov	ip, r0
10000d72:	4462      	add	r2, ip
10000d74:	0112      	lsls	r2, r2, #4
10000d76:	189a      	adds	r2, r3, r2
10000d78:	6810      	ldr	r0, [r2, #0]
10000d7a:	6853      	ldr	r3, [r2, #4]
10000d7c:	0002      	movs	r2, r0
10000d7e:	2001      	movs	r0, #1
10000d80:	428b      	cmp	r3, r1
10000d82:	d801      	bhi.n	10000d88 <timer_pool_entry_comparator+0x48>
10000d84:	d00e      	beq.n	10000da4 <timer_pool_entry_comparator+0x64>
10000d86:	2000      	movs	r0, #0
10000d88:	b2c0      	uxtb	r0, r0
10000d8a:	bd10      	pop	{r4, pc}
10000d8c:	4b08      	ldr	r3, [pc, #32]	; (10000db0 <timer_pool_entry_comparator+0x70>)
10000d8e:	4a09      	ldr	r2, [pc, #36]	; (10000db4 <timer_pool_entry_comparator+0x74>)
10000d90:	213b      	movs	r1, #59	; 0x3b
10000d92:	4809      	ldr	r0, [pc, #36]	; (10000db8 <timer_pool_entry_comparator+0x78>)
10000d94:	f001 f970 	bl	10002078 <__assert_func>
10000d98:	4b05      	ldr	r3, [pc, #20]	; (10000db0 <timer_pool_entry_comparator+0x70>)
10000d9a:	4a06      	ldr	r2, [pc, #24]	; (10000db4 <timer_pool_entry_comparator+0x74>)
10000d9c:	213b      	movs	r1, #59	; 0x3b
10000d9e:	4806      	ldr	r0, [pc, #24]	; (10000db8 <timer_pool_entry_comparator+0x78>)
10000da0:	f001 f96a 	bl	10002078 <__assert_func>
10000da4:	42a2      	cmp	r2, r4
10000da6:	d8ef      	bhi.n	10000d88 <timer_pool_entry_comparator+0x48>
10000da8:	e7ed      	b.n	10000d86 <timer_pool_entry_comparator+0x46>
10000daa:	46c0      	nop			; (mov r8, r8)
10000dac:	0fffffff 	.word	0x0fffffff
10000db0:	10009164 	.word	0x10009164
10000db4:	1000900c 	.word	0x1000900c
10000db8:	1000927c 	.word	0x1000927c

10000dbc <ph_add_child_node>:
10000dbc:	b510      	push	{r4, lr}
10000dbe:	2900      	cmp	r1, #0
10000dc0:	d01e      	beq.n	10000e00 <ph_add_child_node+0x44>
10000dc2:	7b03      	ldrb	r3, [r0, #12]
10000dc4:	4299      	cmp	r1, r3
10000dc6:	d81b      	bhi.n	10000e00 <ph_add_child_node+0x44>
10000dc8:	004b      	lsls	r3, r1, #1
10000dca:	185b      	adds	r3, r3, r1
10000dcc:	3b03      	subs	r3, #3
10000dce:	6804      	ldr	r4, [r0, #0]
10000dd0:	46a4      	mov	ip, r4
10000dd2:	4463      	add	r3, ip
10000dd4:	2900      	cmp	r1, #0
10000dd6:	d019      	beq.n	10000e0c <ph_add_child_node+0x50>
10000dd8:	2a00      	cmp	r2, #0
10000dda:	d01d      	beq.n	10000e18 <ph_add_child_node+0x5c>
10000ddc:	4291      	cmp	r1, r2
10000dde:	d021      	beq.n	10000e24 <ph_add_child_node+0x68>
10000de0:	2a00      	cmp	r2, #0
10000de2:	d025      	beq.n	10000e30 <ph_add_child_node+0x74>
10000de4:	7b04      	ldrb	r4, [r0, #12]
10000de6:	42a2      	cmp	r2, r4
10000de8:	d822      	bhi.n	10000e30 <ph_add_child_node+0x74>
10000dea:	6804      	ldr	r4, [r0, #0]
10000dec:	0050      	lsls	r0, r2, #1
10000dee:	1880      	adds	r0, r0, r2
10000df0:	3803      	subs	r0, #3
10000df2:	1820      	adds	r0, r4, r0
10000df4:	7081      	strb	r1, [r0, #2]
10000df6:	7819      	ldrb	r1, [r3, #0]
10000df8:	2900      	cmp	r1, #0
10000dfa:	d11f      	bne.n	10000e3c <ph_add_child_node+0x80>
10000dfc:	701a      	strb	r2, [r3, #0]
10000dfe:	bd10      	pop	{r4, pc}
10000e00:	4b10      	ldr	r3, [pc, #64]	; (10000e44 <ph_add_child_node+0x88>)
10000e02:	4a11      	ldr	r2, [pc, #68]	; (10000e48 <ph_add_child_node+0x8c>)
10000e04:	2168      	movs	r1, #104	; 0x68
10000e06:	4811      	ldr	r0, [pc, #68]	; (10000e4c <ph_add_child_node+0x90>)
10000e08:	f001 f936 	bl	10002078 <__assert_func>
10000e0c:	4b10      	ldr	r3, [pc, #64]	; (10000e50 <ph_add_child_node+0x94>)
10000e0e:	4a11      	ldr	r2, [pc, #68]	; (10000e54 <ph_add_child_node+0x98>)
10000e10:	316f      	adds	r1, #111	; 0x6f
10000e12:	480e      	ldr	r0, [pc, #56]	; (10000e4c <ph_add_child_node+0x90>)
10000e14:	f001 f930 	bl	10002078 <__assert_func>
10000e18:	4b0f      	ldr	r3, [pc, #60]	; (10000e58 <ph_add_child_node+0x9c>)
10000e1a:	4a0e      	ldr	r2, [pc, #56]	; (10000e54 <ph_add_child_node+0x98>)
10000e1c:	2170      	movs	r1, #112	; 0x70
10000e1e:	480b      	ldr	r0, [pc, #44]	; (10000e4c <ph_add_child_node+0x90>)
10000e20:	f001 f92a 	bl	10002078 <__assert_func>
10000e24:	4b0d      	ldr	r3, [pc, #52]	; (10000e5c <ph_add_child_node+0xa0>)
10000e26:	4a0b      	ldr	r2, [pc, #44]	; (10000e54 <ph_add_child_node+0x98>)
10000e28:	2171      	movs	r1, #113	; 0x71
10000e2a:	4808      	ldr	r0, [pc, #32]	; (10000e4c <ph_add_child_node+0x90>)
10000e2c:	f001 f924 	bl	10002078 <__assert_func>
10000e30:	4b04      	ldr	r3, [pc, #16]	; (10000e44 <ph_add_child_node+0x88>)
10000e32:	4a05      	ldr	r2, [pc, #20]	; (10000e48 <ph_add_child_node+0x8c>)
10000e34:	2168      	movs	r1, #104	; 0x68
10000e36:	4805      	ldr	r0, [pc, #20]	; (10000e4c <ph_add_child_node+0x90>)
10000e38:	f001 f91e 	bl	10002078 <__assert_func>
10000e3c:	7041      	strb	r1, [r0, #1]
10000e3e:	701a      	strb	r2, [r3, #0]
10000e40:	e7dd      	b.n	10000dfe <ph_add_child_node+0x42>
10000e42:	46c0      	nop			; (mov r8, r8)
10000e44:	100091c8 	.word	0x100091c8
10000e48:	10008fcc 	.word	0x10008fcc
10000e4c:	100091e4 	.word	0x100091e4
10000e50:	10009238 	.word	0x10009238
10000e54:	10008fd8 	.word	0x10008fd8
10000e58:	10009244 	.word	0x10009244
10000e5c:	10009250 	.word	0x10009250

10000e60 <ph_merge_nodes>:
10000e60:	b570      	push	{r4, r5, r6, lr}
10000e62:	0006      	movs	r6, r0
10000e64:	000d      	movs	r5, r1
10000e66:	0014      	movs	r4, r2
10000e68:	2900      	cmp	r1, #0
10000e6a:	d014      	beq.n	10000e96 <ph_merge_nodes+0x36>
10000e6c:	2a00      	cmp	r2, #0
10000e6e:	d014      	beq.n	10000e9a <ph_merge_nodes+0x3a>
10000e70:	6880      	ldr	r0, [r0, #8]
10000e72:	6873      	ldr	r3, [r6, #4]
10000e74:	4798      	blx	r3
10000e76:	2800      	cmp	r0, #0
10000e78:	d006      	beq.n	10000e88 <ph_merge_nodes+0x28>
10000e7a:	0022      	movs	r2, r4
10000e7c:	0029      	movs	r1, r5
10000e7e:	0030      	movs	r0, r6
10000e80:	f7ff ff9c 	bl	10000dbc <ph_add_child_node>
10000e84:	0028      	movs	r0, r5
10000e86:	e007      	b.n	10000e98 <ph_merge_nodes+0x38>
10000e88:	002a      	movs	r2, r5
10000e8a:	0021      	movs	r1, r4
10000e8c:	0030      	movs	r0, r6
10000e8e:	f7ff ff95 	bl	10000dbc <ph_add_child_node>
10000e92:	0020      	movs	r0, r4
10000e94:	e000      	b.n	10000e98 <ph_merge_nodes+0x38>
10000e96:	0010      	movs	r0, r2
10000e98:	bd70      	pop	{r4, r5, r6, pc}
10000e9a:	0008      	movs	r0, r1
10000e9c:	e7fc      	b.n	10000e98 <ph_merge_nodes+0x38>
	...

10000ea0 <add_alarm_under_lock>:
10000ea0:	b570      	push	{r4, r5, r6, lr}
10000ea2:	46ce      	mov	lr, r9
10000ea4:	b500      	push	{lr}
10000ea6:	b083      	sub	sp, #12
10000ea8:	0005      	movs	r5, r0
10000eaa:	9200      	str	r2, [sp, #0]
10000eac:	9301      	str	r3, [sp, #4]
10000eae:	ab0a      	add	r3, sp, #40	; 0x28
10000eb0:	781c      	ldrb	r4, [r3, #0]
10000eb2:	ab0b      	add	r3, sp, #44	; 0x2c
10000eb4:	781b      	ldrb	r3, [r3, #0]
10000eb6:	4699      	mov	r9, r3
10000eb8:	2c00      	cmp	r4, #0
10000eba:	d028      	beq.n	10000f0e <add_alarm_under_lock+0x6e>
10000ebc:	6803      	ldr	r3, [r0, #0]
10000ebe:	7b5a      	ldrb	r2, [r3, #13]
10000ec0:	4294      	cmp	r4, r2
10000ec2:	d109      	bne.n	10000ed8 <add_alarm_under_lock+0x38>
10000ec4:	2301      	movs	r3, #1
10000ec6:	2b00      	cmp	r3, #0
10000ec8:	d11b      	bne.n	10000f02 <add_alarm_under_lock+0x62>
10000eca:	2c00      	cmp	r4, #0
10000ecc:	d13d      	bne.n	10000f4a <add_alarm_under_lock+0xaa>
10000ece:	0020      	movs	r0, r4
10000ed0:	b003      	add	sp, #12
10000ed2:	bc04      	pop	{r2}
10000ed4:	4691      	mov	r9, r2
10000ed6:	bd70      	pop	{r4, r5, r6, pc}
10000ed8:	2c00      	cmp	r4, #0
10000eda:	d00c      	beq.n	10000ef6 <add_alarm_under_lock+0x56>
10000edc:	7b1a      	ldrb	r2, [r3, #12]
10000ede:	4294      	cmp	r4, r2
10000ee0:	d809      	bhi.n	10000ef6 <add_alarm_under_lock+0x56>
10000ee2:	681a      	ldr	r2, [r3, #0]
10000ee4:	0063      	lsls	r3, r4, #1
10000ee6:	191b      	adds	r3, r3, r4
10000ee8:	3b03      	subs	r3, #3
10000eea:	18d3      	adds	r3, r2, r3
10000eec:	789b      	ldrb	r3, [r3, #2]
10000eee:	2b00      	cmp	r3, #0
10000ef0:	d0e9      	beq.n	10000ec6 <add_alarm_under_lock+0x26>
10000ef2:	2301      	movs	r3, #1
10000ef4:	e7e7      	b.n	10000ec6 <add_alarm_under_lock+0x26>
10000ef6:	4b3f      	ldr	r3, [pc, #252]	; (10000ff4 <add_alarm_under_lock+0x154>)
10000ef8:	4a3f      	ldr	r2, [pc, #252]	; (10000ff8 <add_alarm_under_lock+0x158>)
10000efa:	2168      	movs	r1, #104	; 0x68
10000efc:	483f      	ldr	r0, [pc, #252]	; (10000ffc <add_alarm_under_lock+0x15c>)
10000efe:	f001 f8bb 	bl	10002078 <__assert_func>
10000f02:	4b3f      	ldr	r3, [pc, #252]	; (10001000 <add_alarm_under_lock+0x160>)
10000f04:	4a3f      	ldr	r2, [pc, #252]	; (10001004 <add_alarm_under_lock+0x164>)
10000f06:	2165      	movs	r1, #101	; 0x65
10000f08:	483f      	ldr	r0, [pc, #252]	; (10001008 <add_alarm_under_lock+0x168>)
10000f0a:	f001 f8b5 	bl	10002078 <__assert_func>
10000f0e:	6803      	ldr	r3, [r0, #0]
10000f10:	7b9c      	ldrb	r4, [r3, #14]
10000f12:	2c00      	cmp	r4, #0
10000f14:	d0d9      	beq.n	10000eca <add_alarm_under_lock+0x2a>
10000f16:	d012      	beq.n	10000f3e <add_alarm_under_lock+0x9e>
10000f18:	7b1a      	ldrb	r2, [r3, #12]
10000f1a:	4294      	cmp	r4, r2
10000f1c:	d80f      	bhi.n	10000f3e <add_alarm_under_lock+0x9e>
10000f1e:	0062      	lsls	r2, r4, #1
10000f20:	1912      	adds	r2, r2, r4
10000f22:	3a03      	subs	r2, #3
10000f24:	6819      	ldr	r1, [r3, #0]
10000f26:	468c      	mov	ip, r1
10000f28:	4462      	add	r2, ip
10000f2a:	7851      	ldrb	r1, [r2, #1]
10000f2c:	7399      	strb	r1, [r3, #14]
10000f2e:	2900      	cmp	r1, #0
10000f30:	d100      	bne.n	10000f34 <add_alarm_under_lock+0x94>
10000f32:	73d9      	strb	r1, [r3, #15]
10000f34:	2300      	movs	r3, #0
10000f36:	7093      	strb	r3, [r2, #2]
10000f38:	7053      	strb	r3, [r2, #1]
10000f3a:	7013      	strb	r3, [r2, #0]
10000f3c:	e7c5      	b.n	10000eca <add_alarm_under_lock+0x2a>
10000f3e:	4b2d      	ldr	r3, [pc, #180]	; (10000ff4 <add_alarm_under_lock+0x154>)
10000f40:	4a2d      	ldr	r2, [pc, #180]	; (10000ff8 <add_alarm_under_lock+0x158>)
10000f42:	2168      	movs	r1, #104	; 0x68
10000f44:	482d      	ldr	r0, [pc, #180]	; (10000ffc <add_alarm_under_lock+0x15c>)
10000f46:	f001 f897 	bl	10002078 <__assert_func>
10000f4a:	2c00      	cmp	r4, #0
10000f4c:	d03b      	beq.n	10000fc6 <add_alarm_under_lock+0x126>
10000f4e:	682b      	ldr	r3, [r5, #0]
10000f50:	7b1b      	ldrb	r3, [r3, #12]
10000f52:	429c      	cmp	r4, r3
10000f54:	d837      	bhi.n	10000fc6 <add_alarm_under_lock+0x126>
10000f56:	4b2d      	ldr	r3, [pc, #180]	; (1000100c <add_alarm_under_lock+0x16c>)
10000f58:	18e3      	adds	r3, r4, r3
10000f5a:	011b      	lsls	r3, r3, #4
10000f5c:	68aa      	ldr	r2, [r5, #8]
10000f5e:	4694      	mov	ip, r2
10000f60:	4463      	add	r3, ip
10000f62:	9900      	ldr	r1, [sp, #0]
10000f64:	9a01      	ldr	r2, [sp, #4]
10000f66:	6019      	str	r1, [r3, #0]
10000f68:	605a      	str	r2, [r3, #4]
10000f6a:	9a08      	ldr	r2, [sp, #32]
10000f6c:	609a      	str	r2, [r3, #8]
10000f6e:	9a09      	ldr	r2, [sp, #36]	; 0x24
10000f70:	60da      	str	r2, [r3, #12]
10000f72:	682e      	ldr	r6, [r5, #0]
10000f74:	2c00      	cmp	r4, #0
10000f76:	d02c      	beq.n	10000fd2 <add_alarm_under_lock+0x132>
10000f78:	d031      	beq.n	10000fde <add_alarm_under_lock+0x13e>
10000f7a:	7b33      	ldrb	r3, [r6, #12]
10000f7c:	429c      	cmp	r4, r3
10000f7e:	d82e      	bhi.n	10000fde <add_alarm_under_lock+0x13e>
10000f80:	0063      	lsls	r3, r4, #1
10000f82:	191b      	adds	r3, r3, r4
10000f84:	3b03      	subs	r3, #3
10000f86:	6832      	ldr	r2, [r6, #0]
10000f88:	4694      	mov	ip, r2
10000f8a:	4463      	add	r3, ip
10000f8c:	2200      	movs	r2, #0
10000f8e:	709a      	strb	r2, [r3, #2]
10000f90:	705a      	strb	r2, [r3, #1]
10000f92:	701a      	strb	r2, [r3, #0]
10000f94:	7b71      	ldrb	r1, [r6, #13]
10000f96:	0022      	movs	r2, r4
10000f98:	0030      	movs	r0, r6
10000f9a:	f7ff ff61 	bl	10000e60 <ph_merge_nodes>
10000f9e:	7370      	strb	r0, [r6, #13]
10000fa0:	4284      	cmp	r4, r0
10000fa2:	d000      	beq.n	10000fa6 <add_alarm_under_lock+0x106>
10000fa4:	e793      	b.n	10000ece <add_alarm_under_lock+0x2e>
10000fa6:	7d28      	ldrb	r0, [r5, #20]
10000fa8:	9a00      	ldr	r2, [sp, #0]
10000faa:	9b01      	ldr	r3, [sp, #4]
10000fac:	f000 fcea 	bl	10001984 <hardware_alarm_set_target>
10000fb0:	1e06      	subs	r6, r0, #0
10000fb2:	d002      	beq.n	10000fba <add_alarm_under_lock+0x11a>
10000fb4:	464b      	mov	r3, r9
10000fb6:	2b00      	cmp	r3, #0
10000fb8:	d017      	beq.n	10000fea <add_alarm_under_lock+0x14a>
10000fba:	9b0c      	ldr	r3, [sp, #48]	; 0x30
10000fbc:	2b00      	cmp	r3, #0
10000fbe:	d100      	bne.n	10000fc2 <add_alarm_under_lock+0x122>
10000fc0:	e785      	b.n	10000ece <add_alarm_under_lock+0x2e>
10000fc2:	701e      	strb	r6, [r3, #0]
10000fc4:	e783      	b.n	10000ece <add_alarm_under_lock+0x2e>
10000fc6:	4b12      	ldr	r3, [pc, #72]	; (10001010 <add_alarm_under_lock+0x170>)
10000fc8:	4a12      	ldr	r2, [pc, #72]	; (10001014 <add_alarm_under_lock+0x174>)
10000fca:	213b      	movs	r1, #59	; 0x3b
10000fcc:	480e      	ldr	r0, [pc, #56]	; (10001008 <add_alarm_under_lock+0x168>)
10000fce:	f001 f853 	bl	10002078 <__assert_func>
10000fd2:	4b11      	ldr	r3, [pc, #68]	; (10001018 <add_alarm_under_lock+0x178>)
10000fd4:	4a11      	ldr	r2, [pc, #68]	; (1000101c <add_alarm_under_lock+0x17c>)
10000fd6:	21a5      	movs	r1, #165	; 0xa5
10000fd8:	4808      	ldr	r0, [pc, #32]	; (10000ffc <add_alarm_under_lock+0x15c>)
10000fda:	f001 f84d 	bl	10002078 <__assert_func>
10000fde:	4b05      	ldr	r3, [pc, #20]	; (10000ff4 <add_alarm_under_lock+0x154>)
10000fe0:	4a05      	ldr	r2, [pc, #20]	; (10000ff8 <add_alarm_under_lock+0x158>)
10000fe2:	2168      	movs	r1, #104	; 0x68
10000fe4:	4805      	ldr	r0, [pc, #20]	; (10000ffc <add_alarm_under_lock+0x15c>)
10000fe6:	f001 f847 	bl	10002078 <__assert_func>
10000fea:	6828      	ldr	r0, [r5, #0]
10000fec:	0021      	movs	r1, r4
10000fee:	f000 fef3 	bl	10001dd8 <ph_remove_and_free_node>
10000ff2:	e7e2      	b.n	10000fba <add_alarm_under_lock+0x11a>
10000ff4:	100091c8 	.word	0x100091c8
10000ff8:	10008fcc 	.word	0x10008fcc
10000ffc:	100091e4 	.word	0x100091e4
10001000:	10009090 	.word	0x10009090
10001004:	10009044 	.word	0x10009044
10001008:	1000927c 	.word	0x1000927c
1000100c:	0fffffff 	.word	0x0fffffff
10001010:	10009164 	.word	0x10009164
10001014:	1000900c 	.word	0x1000900c
10001018:	10009278 	.word	0x10009278
1000101c:	10008fec 	.word	0x10008fec

10001020 <alarm_pool_alarm_callback>:
10001020:	b5f0      	push	{r4, r5, r6, r7, lr}
10001022:	46de      	mov	lr, fp
10001024:	4657      	mov	r7, sl
10001026:	464e      	mov	r6, r9
10001028:	4645      	mov	r5, r8
1000102a:	b5e0      	push	{r5, r6, r7, lr}
1000102c:	b08b      	sub	sp, #44	; 0x2c
1000102e:	9009      	str	r0, [sp, #36]	; 0x24
10001030:	2300      	movs	r3, #0
10001032:	9308      	str	r3, [sp, #32]
10001034:	0082      	lsls	r2, r0, #2
10001036:	4bb2      	ldr	r3, [pc, #712]	; (10001300 <alarm_pool_alarm_callback+0x2e0>)
10001038:	58d7      	ldr	r7, [r2, r3]
1000103a:	003d      	movs	r5, r7
1000103c:	e052      	b.n	100010e4 <alarm_pool_alarm_callback+0xc4>
1000103e:	4bb1      	ldr	r3, [pc, #708]	; (10001304 <alarm_pool_alarm_callback+0x2e4>)
10001040:	4ab1      	ldr	r2, [pc, #708]	; (10001308 <alarm_pool_alarm_callback+0x2e8>)
10001042:	213f      	movs	r1, #63	; 0x3f
10001044:	48b1      	ldr	r0, [pc, #708]	; (1000130c <alarm_pool_alarm_callback+0x2ec>)
10001046:	f001 f817 	bl	10002078 <__assert_func>
1000104a:	4bb1      	ldr	r3, [pc, #708]	; (10001310 <alarm_pool_alarm_callback+0x2f0>)
1000104c:	4ab1      	ldr	r2, [pc, #708]	; (10001314 <alarm_pool_alarm_callback+0x2f4>)
1000104e:	213b      	movs	r1, #59	; 0x3b
10001050:	48b1      	ldr	r0, [pc, #708]	; (10001318 <alarm_pool_alarm_callback+0x2f8>)
10001052:	f001 f811 	bl	10002078 <__assert_func>
10001056:	2b00      	cmp	r3, #0
10001058:	d101      	bne.n	1000105e <alarm_pool_alarm_callback+0x3e>
1000105a:	2a00      	cmp	r2, #0
1000105c:	d168      	bne.n	10001130 <alarm_pool_alarm_callback+0x110>
1000105e:	2100      	movs	r1, #0
10001060:	4660      	mov	r0, ip
10001062:	f000 feaf 	bl	10001dc4 <ph_remove_head>
10001066:	42a0      	cmp	r0, r4
10001068:	d119      	bne.n	1000109e <alarm_pool_alarm_callback+0x7e>
1000106a:	6832      	ldr	r2, [r6, #0]
1000106c:	6873      	ldr	r3, [r6, #4]
1000106e:	9206      	str	r2, [sp, #24]
10001070:	9307      	str	r3, [sp, #28]
10001072:	68b3      	ldr	r3, [r6, #8]
10001074:	4698      	mov	r8, r3
10001076:	68f3      	ldr	r3, [r6, #12]
10001078:	469a      	mov	sl, r3
1000107a:	4643      	mov	r3, r8
1000107c:	2b00      	cmp	r3, #0
1000107e:	d014      	beq.n	100010aa <alarm_pool_alarm_callback+0x8a>
10001080:	2c00      	cmp	r4, #0
10001082:	d018      	beq.n	100010b6 <alarm_pool_alarm_callback+0x96>
10001084:	682b      	ldr	r3, [r5, #0]
10001086:	7b1b      	ldrb	r3, [r3, #12]
10001088:	429c      	cmp	r4, r3
1000108a:	d814      	bhi.n	100010b6 <alarm_pool_alarm_callback+0x96>
1000108c:	1e63      	subs	r3, r4, #1
1000108e:	68ea      	ldr	r2, [r5, #12]
10001090:	5cd3      	ldrb	r3, [r2, r3]
10001092:	9308      	str	r3, [sp, #32]
10001094:	021b      	lsls	r3, r3, #8
10001096:	4318      	orrs	r0, r3
10001098:	6128      	str	r0, [r5, #16]
1000109a:	2000      	movs	r0, #0
1000109c:	e015      	b.n	100010ca <alarm_pool_alarm_callback+0xaa>
1000109e:	4b9f      	ldr	r3, [pc, #636]	; (1000131c <alarm_pool_alarm_callback+0x2fc>)
100010a0:	4a9f      	ldr	r2, [pc, #636]	; (10001320 <alarm_pool_alarm_callback+0x300>)
100010a2:	218c      	movs	r1, #140	; 0x8c
100010a4:	489c      	ldr	r0, [pc, #624]	; (10001318 <alarm_pool_alarm_callback+0x2f8>)
100010a6:	f000 ffe7 	bl	10002078 <__assert_func>
100010aa:	4b9e      	ldr	r3, [pc, #632]	; (10001324 <alarm_pool_alarm_callback+0x304>)
100010ac:	4a9c      	ldr	r2, [pc, #624]	; (10001320 <alarm_pool_alarm_callback+0x300>)
100010ae:	2190      	movs	r1, #144	; 0x90
100010b0:	4899      	ldr	r0, [pc, #612]	; (10001318 <alarm_pool_alarm_callback+0x2f8>)
100010b2:	f000 ffe1 	bl	10002078 <__assert_func>
100010b6:	4b96      	ldr	r3, [pc, #600]	; (10001310 <alarm_pool_alarm_callback+0x2f0>)
100010b8:	4a9b      	ldr	r2, [pc, #620]	; (10001328 <alarm_pool_alarm_callback+0x308>)
100010ba:	2140      	movs	r1, #64	; 0x40
100010bc:	4896      	ldr	r0, [pc, #600]	; (10001318 <alarm_pool_alarm_callback+0x2f8>)
100010be:	f000 ffdb 	bl	10002078 <__assert_func>
100010c2:	2300      	movs	r3, #0
100010c4:	469a      	mov	sl, r3
100010c6:	4698      	mov	r8, r3
100010c8:	2000      	movs	r0, #0
100010ca:	686b      	ldr	r3, [r5, #4]
100010cc:	f3bf 8f5f 	dmb	sy
100010d0:	2200      	movs	r2, #0
100010d2:	601a      	str	r2, [r3, #0]
100010d4:	f387 8810 	msr	PRIMASK, r7
100010d8:	4643      	mov	r3, r8
100010da:	2b00      	cmp	r3, #0
100010dc:	d131      	bne.n	10001142 <alarm_pool_alarm_callback+0x122>
100010de:	2800      	cmp	r0, #0
100010e0:	d100      	bne.n	100010e4 <alarm_pool_alarm_callback+0xc4>
100010e2:	e105      	b.n	100012f0 <alarm_pool_alarm_callback+0x2d0>
100010e4:	f000 fbc4 	bl	10001870 <time_us_64>
100010e8:	2900      	cmp	r1, #0
100010ea:	dba8      	blt.n	1000103e <alarm_pool_alarm_callback+0x1e>
100010ec:	2300      	movs	r3, #0
100010ee:	2400      	movs	r4, #0
100010f0:	9306      	str	r3, [sp, #24]
100010f2:	9407      	str	r4, [sp, #28]
100010f4:	686a      	ldr	r2, [r5, #4]
100010f6:	f3ef 8710 	mrs	r7, PRIMASK
100010fa:	b672      	cpsid	i
100010fc:	6813      	ldr	r3, [r2, #0]
100010fe:	2b00      	cmp	r3, #0
10001100:	d0fc      	beq.n	100010fc <alarm_pool_alarm_callback+0xdc>
10001102:	f3bf 8f5f 	dmb	sy
10001106:	682b      	ldr	r3, [r5, #0]
10001108:	469c      	mov	ip, r3
1000110a:	7b5c      	ldrb	r4, [r3, #13]
1000110c:	2c00      	cmp	r4, #0
1000110e:	d0d8      	beq.n	100010c2 <alarm_pool_alarm_callback+0xa2>
10001110:	d09b      	beq.n	1000104a <alarm_pool_alarm_callback+0x2a>
10001112:	7b1b      	ldrb	r3, [r3, #12]
10001114:	429c      	cmp	r4, r3
10001116:	d898      	bhi.n	1000104a <alarm_pool_alarm_callback+0x2a>
10001118:	4b84      	ldr	r3, [pc, #528]	; (1000132c <alarm_pool_alarm_callback+0x30c>)
1000111a:	18e6      	adds	r6, r4, r3
1000111c:	0136      	lsls	r6, r6, #4
1000111e:	68ab      	ldr	r3, [r5, #8]
10001120:	4698      	mov	r8, r3
10001122:	4446      	add	r6, r8
10001124:	6832      	ldr	r2, [r6, #0]
10001126:	6873      	ldr	r3, [r6, #4]
10001128:	1a12      	subs	r2, r2, r0
1000112a:	418b      	sbcs	r3, r1
1000112c:	2b00      	cmp	r3, #0
1000112e:	dd92      	ble.n	10001056 <alarm_pool_alarm_callback+0x36>
10001130:	6832      	ldr	r2, [r6, #0]
10001132:	6873      	ldr	r3, [r6, #4]
10001134:	9809      	ldr	r0, [sp, #36]	; 0x24
10001136:	f000 fc25 	bl	10001984 <hardware_alarm_set_target>
1000113a:	2300      	movs	r3, #0
1000113c:	469a      	mov	sl, r3
1000113e:	4698      	mov	r8, r3
10001140:	e7c3      	b.n	100010ca <alarm_pool_alarm_callback+0xaa>
10001142:	9b08      	ldr	r3, [sp, #32]
10001144:	021b      	lsls	r3, r3, #8
10001146:	4323      	orrs	r3, r4
10001148:	4699      	mov	r9, r3
1000114a:	4651      	mov	r1, sl
1000114c:	0018      	movs	r0, r3
1000114e:	47c0      	blx	r8
10001150:	0006      	movs	r6, r0
10001152:	000f      	movs	r7, r1
10001154:	686a      	ldr	r2, [r5, #4]
10001156:	f3ef 8b10 	mrs	fp, PRIMASK
1000115a:	b672      	cpsid	i
1000115c:	6813      	ldr	r3, [r2, #0]
1000115e:	2b00      	cmp	r3, #0
10001160:	d0fc      	beq.n	1000115c <alarm_pool_alarm_callback+0x13c>
10001162:	f3bf 8f5f 	dmb	sy
10001166:	2f00      	cmp	r7, #0
10001168:	db26      	blt.n	100011b8 <alarm_pool_alarm_callback+0x198>
1000116a:	2f00      	cmp	r7, #0
1000116c:	dd52      	ble.n	10001214 <alarm_pool_alarm_callback+0x1f4>
1000116e:	692b      	ldr	r3, [r5, #16]
10001170:	2b00      	cmp	r3, #0
10001172:	d053      	beq.n	1000121c <alarm_pool_alarm_callback+0x1fc>
10001174:	454b      	cmp	r3, r9
10001176:	d174      	bne.n	10001262 <alarm_pool_alarm_callback+0x242>
10001178:	f000 fb7a 	bl	10001870 <time_us_64>
1000117c:	0002      	movs	r2, r0
1000117e:	1e0b      	subs	r3, r1, #0
10001180:	db75      	blt.n	1000126e <alarm_pool_alarm_callback+0x24e>
10001182:	0001      	movs	r1, r0
10001184:	0018      	movs	r0, r3
10001186:	1992      	adds	r2, r2, r6
10001188:	417b      	adcs	r3, r7
1000118a:	4298      	cmp	r0, r3
1000118c:	d802      	bhi.n	10001194 <alarm_pool_alarm_callback+0x174>
1000118e:	d104      	bne.n	1000119a <alarm_pool_alarm_callback+0x17a>
10001190:	4291      	cmp	r1, r2
10001192:	d902      	bls.n	1000119a <alarm_pool_alarm_callback+0x17a>
10001194:	2201      	movs	r2, #1
10001196:	4252      	negs	r2, r2
10001198:	17d3      	asrs	r3, r2, #31
1000119a:	2b00      	cmp	r3, #0
1000119c:	db6d      	blt.n	1000127a <alarm_pool_alarm_callback+0x25a>
1000119e:	2100      	movs	r1, #0
100011a0:	9104      	str	r1, [sp, #16]
100011a2:	3101      	adds	r1, #1
100011a4:	9103      	str	r1, [sp, #12]
100011a6:	9402      	str	r4, [sp, #8]
100011a8:	4651      	mov	r1, sl
100011aa:	9101      	str	r1, [sp, #4]
100011ac:	4641      	mov	r1, r8
100011ae:	9100      	str	r1, [sp, #0]
100011b0:	0028      	movs	r0, r5
100011b2:	f7ff fe75 	bl	10000ea0 <add_alarm_under_lock>
100011b6:	e04b      	b.n	10001250 <alarm_pool_alarm_callback+0x230>
100011b8:	692b      	ldr	r3, [r5, #16]
100011ba:	2b00      	cmp	r3, #0
100011bc:	d0d5      	beq.n	1000116a <alarm_pool_alarm_callback+0x14a>
100011be:	454b      	cmp	r3, r9
100011c0:	d11c      	bne.n	100011fc <alarm_pool_alarm_callback+0x1dc>
100011c2:	9a06      	ldr	r2, [sp, #24]
100011c4:	9b07      	ldr	r3, [sp, #28]
100011c6:	0010      	movs	r0, r2
100011c8:	0019      	movs	r1, r3
100011ca:	1b92      	subs	r2, r2, r6
100011cc:	41bb      	sbcs	r3, r7
100011ce:	4299      	cmp	r1, r3
100011d0:	d802      	bhi.n	100011d8 <alarm_pool_alarm_callback+0x1b8>
100011d2:	d104      	bne.n	100011de <alarm_pool_alarm_callback+0x1be>
100011d4:	4290      	cmp	r0, r2
100011d6:	d902      	bls.n	100011de <alarm_pool_alarm_callback+0x1be>
100011d8:	2201      	movs	r2, #1
100011da:	4252      	negs	r2, r2
100011dc:	17d3      	asrs	r3, r2, #31
100011de:	2b00      	cmp	r3, #0
100011e0:	db12      	blt.n	10001208 <alarm_pool_alarm_callback+0x1e8>
100011e2:	2100      	movs	r1, #0
100011e4:	9104      	str	r1, [sp, #16]
100011e6:	3101      	adds	r1, #1
100011e8:	9103      	str	r1, [sp, #12]
100011ea:	9402      	str	r4, [sp, #8]
100011ec:	4651      	mov	r1, sl
100011ee:	9101      	str	r1, [sp, #4]
100011f0:	4641      	mov	r1, r8
100011f2:	9100      	str	r1, [sp, #0]
100011f4:	0028      	movs	r0, r5
100011f6:	f7ff fe53 	bl	10000ea0 <add_alarm_under_lock>
100011fa:	e029      	b.n	10001250 <alarm_pool_alarm_callback+0x230>
100011fc:	4b4c      	ldr	r3, [pc, #304]	; (10001330 <alarm_pool_alarm_callback+0x310>)
100011fe:	4a48      	ldr	r2, [pc, #288]	; (10001320 <alarm_pool_alarm_callback+0x300>)
10001200:	219f      	movs	r1, #159	; 0x9f
10001202:	4845      	ldr	r0, [pc, #276]	; (10001318 <alarm_pool_alarm_callback+0x2f8>)
10001204:	f000 ff38 	bl	10002078 <__assert_func>
10001208:	4b3e      	ldr	r3, [pc, #248]	; (10001304 <alarm_pool_alarm_callback+0x2e4>)
1000120a:	4a3f      	ldr	r2, [pc, #252]	; (10001308 <alarm_pool_alarm_callback+0x2e8>)
1000120c:	213f      	movs	r1, #63	; 0x3f
1000120e:	483f      	ldr	r0, [pc, #252]	; (1000130c <alarm_pool_alarm_callback+0x2ec>)
10001210:	f000 ff32 	bl	10002078 <__assert_func>
10001214:	2f00      	cmp	r7, #0
10001216:	d101      	bne.n	1000121c <alarm_pool_alarm_callback+0x1fc>
10001218:	2e00      	cmp	r6, #0
1000121a:	d1a8      	bne.n	1000116e <alarm_pool_alarm_callback+0x14e>
1000121c:	682a      	ldr	r2, [r5, #0]
1000121e:	2c00      	cmp	r4, #0
10001220:	d047      	beq.n	100012b2 <alarm_pool_alarm_callback+0x292>
10001222:	7b53      	ldrb	r3, [r2, #13]
10001224:	429c      	cmp	r4, r3
10001226:	d12e      	bne.n	10001286 <alarm_pool_alarm_callback+0x266>
10001228:	2301      	movs	r3, #1
1000122a:	2b00      	cmp	r3, #0
1000122c:	d141      	bne.n	100012b2 <alarm_pool_alarm_callback+0x292>
1000122e:	7bd3      	ldrb	r3, [r2, #15]
10001230:	2b00      	cmp	r3, #0
10001232:	d144      	bne.n	100012be <alarm_pool_alarm_callback+0x29e>
10001234:	73d4      	strb	r4, [r2, #15]
10001236:	2c00      	cmp	r4, #0
10001238:	d054      	beq.n	100012e4 <alarm_pool_alarm_callback+0x2c4>
1000123a:	682b      	ldr	r3, [r5, #0]
1000123c:	7b1b      	ldrb	r3, [r3, #12]
1000123e:	429c      	cmp	r4, r3
10001240:	d850      	bhi.n	100012e4 <alarm_pool_alarm_callback+0x2c4>
10001242:	3c01      	subs	r4, #1
10001244:	68eb      	ldr	r3, [r5, #12]
10001246:	469c      	mov	ip, r3
10001248:	4464      	add	r4, ip
1000124a:	7823      	ldrb	r3, [r4, #0]
1000124c:	3301      	adds	r3, #1
1000124e:	7023      	strb	r3, [r4, #0]
10001250:	2300      	movs	r3, #0
10001252:	612b      	str	r3, [r5, #16]
10001254:	686a      	ldr	r2, [r5, #4]
10001256:	f3bf 8f5f 	dmb	sy
1000125a:	6013      	str	r3, [r2, #0]
1000125c:	f38b 8810 	msr	PRIMASK, fp
10001260:	e740      	b.n	100010e4 <alarm_pool_alarm_callback+0xc4>
10001262:	4b33      	ldr	r3, [pc, #204]	; (10001330 <alarm_pool_alarm_callback+0x310>)
10001264:	4a2e      	ldr	r2, [pc, #184]	; (10001320 <alarm_pool_alarm_callback+0x300>)
10001266:	21a2      	movs	r1, #162	; 0xa2
10001268:	482b      	ldr	r0, [pc, #172]	; (10001318 <alarm_pool_alarm_callback+0x2f8>)
1000126a:	f000 ff05 	bl	10002078 <__assert_func>
1000126e:	4b25      	ldr	r3, [pc, #148]	; (10001304 <alarm_pool_alarm_callback+0x2e4>)
10001270:	4a25      	ldr	r2, [pc, #148]	; (10001308 <alarm_pool_alarm_callback+0x2e8>)
10001272:	213f      	movs	r1, #63	; 0x3f
10001274:	4825      	ldr	r0, [pc, #148]	; (1000130c <alarm_pool_alarm_callback+0x2ec>)
10001276:	f000 feff 	bl	10002078 <__assert_func>
1000127a:	4b22      	ldr	r3, [pc, #136]	; (10001304 <alarm_pool_alarm_callback+0x2e4>)
1000127c:	4a22      	ldr	r2, [pc, #136]	; (10001308 <alarm_pool_alarm_callback+0x2e8>)
1000127e:	213f      	movs	r1, #63	; 0x3f
10001280:	4822      	ldr	r0, [pc, #136]	; (1000130c <alarm_pool_alarm_callback+0x2ec>)
10001282:	f000 fef9 	bl	10002078 <__assert_func>
10001286:	2c00      	cmp	r4, #0
10001288:	d00d      	beq.n	100012a6 <alarm_pool_alarm_callback+0x286>
1000128a:	7b13      	ldrb	r3, [r2, #12]
1000128c:	429c      	cmp	r4, r3
1000128e:	d80a      	bhi.n	100012a6 <alarm_pool_alarm_callback+0x286>
10001290:	0063      	lsls	r3, r4, #1
10001292:	191b      	adds	r3, r3, r4
10001294:	3b03      	subs	r3, #3
10001296:	6811      	ldr	r1, [r2, #0]
10001298:	468c      	mov	ip, r1
1000129a:	4463      	add	r3, ip
1000129c:	789b      	ldrb	r3, [r3, #2]
1000129e:	2b00      	cmp	r3, #0
100012a0:	d0c3      	beq.n	1000122a <alarm_pool_alarm_callback+0x20a>
100012a2:	2301      	movs	r3, #1
100012a4:	e7c1      	b.n	1000122a <alarm_pool_alarm_callback+0x20a>
100012a6:	4b23      	ldr	r3, [pc, #140]	; (10001334 <alarm_pool_alarm_callback+0x314>)
100012a8:	4a23      	ldr	r2, [pc, #140]	; (10001338 <alarm_pool_alarm_callback+0x318>)
100012aa:	2168      	movs	r1, #104	; 0x68
100012ac:	4823      	ldr	r0, [pc, #140]	; (1000133c <alarm_pool_alarm_callback+0x31c>)
100012ae:	f000 fee3 	bl	10002078 <__assert_func>
100012b2:	4b23      	ldr	r3, [pc, #140]	; (10001340 <alarm_pool_alarm_callback+0x320>)
100012b4:	4a23      	ldr	r2, [pc, #140]	; (10001344 <alarm_pool_alarm_callback+0x324>)
100012b6:	21f6      	movs	r1, #246	; 0xf6
100012b8:	4820      	ldr	r0, [pc, #128]	; (1000133c <alarm_pool_alarm_callback+0x31c>)
100012ba:	f000 fedd 	bl	10002078 <__assert_func>
100012be:	2b00      	cmp	r3, #0
100012c0:	d00a      	beq.n	100012d8 <alarm_pool_alarm_callback+0x2b8>
100012c2:	7b11      	ldrb	r1, [r2, #12]
100012c4:	428b      	cmp	r3, r1
100012c6:	d807      	bhi.n	100012d8 <alarm_pool_alarm_callback+0x2b8>
100012c8:	0059      	lsls	r1, r3, #1
100012ca:	18cb      	adds	r3, r1, r3
100012cc:	3b03      	subs	r3, #3
100012ce:	6811      	ldr	r1, [r2, #0]
100012d0:	468c      	mov	ip, r1
100012d2:	4463      	add	r3, ip
100012d4:	705c      	strb	r4, [r3, #1]
100012d6:	e7ad      	b.n	10001234 <alarm_pool_alarm_callback+0x214>
100012d8:	4b16      	ldr	r3, [pc, #88]	; (10001334 <alarm_pool_alarm_callback+0x314>)
100012da:	4a17      	ldr	r2, [pc, #92]	; (10001338 <alarm_pool_alarm_callback+0x318>)
100012dc:	2168      	movs	r1, #104	; 0x68
100012de:	4817      	ldr	r0, [pc, #92]	; (1000133c <alarm_pool_alarm_callback+0x31c>)
100012e0:	f000 feca 	bl	10002078 <__assert_func>
100012e4:	4b0a      	ldr	r3, [pc, #40]	; (10001310 <alarm_pool_alarm_callback+0x2f0>)
100012e6:	4a10      	ldr	r2, [pc, #64]	; (10001328 <alarm_pool_alarm_callback+0x308>)
100012e8:	2140      	movs	r1, #64	; 0x40
100012ea:	480b      	ldr	r0, [pc, #44]	; (10001318 <alarm_pool_alarm_callback+0x2f8>)
100012ec:	f000 fec4 	bl	10002078 <__assert_func>
100012f0:	b00b      	add	sp, #44	; 0x2c
100012f2:	bc3c      	pop	{r2, r3, r4, r5}
100012f4:	4690      	mov	r8, r2
100012f6:	4699      	mov	r9, r3
100012f8:	46a2      	mov	sl, r4
100012fa:	46ab      	mov	fp, r5
100012fc:	bdf0      	pop	{r4, r5, r6, r7, pc}
100012fe:	46c0      	nop			; (mov r8, r8)
10001300:	20001c3c 	.word	0x20001c3c
10001304:	10008b84 	.word	0x10008b84
10001308:	10008fb4 	.word	0x10008fb4
1000130c:	10008ba0 	.word	0x10008ba0
10001310:	10009164 	.word	0x10009164
10001314:	1000900c 	.word	0x1000900c
10001318:	1000927c 	.word	0x1000927c
1000131c:	100090b8 	.word	0x100090b8
10001320:	1000905c 	.word	0x1000905c
10001324:	100090d0 	.word	0x100090d0
10001328:	10009018 	.word	0x10009018
1000132c:	0fffffff 	.word	0x0fffffff
10001330:	100090dc 	.word	0x100090dc
10001334:	100091c8 	.word	0x100091c8
10001338:	10008fcc 	.word	0x10008fcc
1000133c:	100091e4 	.word	0x100091e4
10001340:	10009118 	.word	0x10009118
10001344:	10008ffc 	.word	0x10008ffc

10001348 <alarm_pool_init_default>:
10001348:	b510      	push	{r4, lr}
1000134a:	4b0a      	ldr	r3, [pc, #40]	; (10001374 <alarm_pool_init_default+0x2c>)
1000134c:	685b      	ldr	r3, [r3, #4]
1000134e:	2b00      	cmp	r3, #0
10001350:	d004      	beq.n	1000135c <alarm_pool_init_default+0x14>
10001352:	210a      	movs	r1, #10
10001354:	4808      	ldr	r0, [pc, #32]	; (10001378 <alarm_pool_init_default+0x30>)
10001356:	f7ff fcb3 	bl	10000cc0 <lock_init>
1000135a:	bd10      	pop	{r4, pc}
1000135c:	4c05      	ldr	r4, [pc, #20]	; (10001374 <alarm_pool_init_default+0x2c>)
1000135e:	0023      	movs	r3, r4
10001360:	4a06      	ldr	r2, [pc, #24]	; (1000137c <alarm_pool_init_default+0x34>)
10001362:	2110      	movs	r1, #16
10001364:	6820      	ldr	r0, [r4, #0]
10001366:	f000 fc4b 	bl	10001c00 <ph_post_alloc_init>
1000136a:	2103      	movs	r1, #3
1000136c:	0020      	movs	r0, r4
1000136e:	f7ff fcc7 	bl	10000d00 <alarm_pool_post_alloc_init>
10001372:	e7ee      	b.n	10001352 <alarm_pool_init_default+0xa>
10001374:	20000314 	.word	0x20000314
10001378:	20001c98 	.word	0x20001c98
1000137c:	10000d41 	.word	0x10000d41

10001380 <alarm_pool_get_default>:
10001380:	b510      	push	{r4, lr}
10001382:	4b06      	ldr	r3, [pc, #24]	; (1000139c <alarm_pool_get_default+0x1c>)
10001384:	685b      	ldr	r3, [r3, #4]
10001386:	2b00      	cmp	r3, #0
10001388:	d001      	beq.n	1000138e <alarm_pool_get_default+0xe>
1000138a:	4804      	ldr	r0, [pc, #16]	; (1000139c <alarm_pool_get_default+0x1c>)
1000138c:	bd10      	pop	{r4, pc}
1000138e:	4b04      	ldr	r3, [pc, #16]	; (100013a0 <alarm_pool_get_default+0x20>)
10001390:	4a04      	ldr	r2, [pc, #16]	; (100013a4 <alarm_pool_get_default+0x24>)
10001392:	215c      	movs	r1, #92	; 0x5c
10001394:	4804      	ldr	r0, [pc, #16]	; (100013a8 <alarm_pool_get_default+0x28>)
10001396:	f000 fe6f 	bl	10002078 <__assert_func>
1000139a:	46c0      	nop			; (mov r8, r8)
1000139c:	20000314 	.word	0x20000314
100013a0:	10009198 	.word	0x10009198
100013a4:	1000902c 	.word	0x1000902c
100013a8:	1000927c 	.word	0x1000927c

100013ac <alarm_pool_add_alarm_at>:
100013ac:	b5f0      	push	{r4, r5, r6, r7, lr}
100013ae:	46d6      	mov	lr, sl
100013b0:	464f      	mov	r7, r9
100013b2:	4646      	mov	r6, r8
100013b4:	b5c0      	push	{r6, r7, lr}
100013b6:	b088      	sub	sp, #32
100013b8:	4680      	mov	r8, r0
100013ba:	0016      	movs	r6, r2
100013bc:	001f      	movs	r7, r3
100013be:	9b10      	ldr	r3, [sp, #64]	; 0x40
100013c0:	4699      	mov	r9, r3
100013c2:	ab12      	add	r3, sp, #72	; 0x48
100013c4:	781b      	ldrb	r3, [r3, #0]
100013c6:	469a      	mov	sl, r3
100013c8:	231f      	movs	r3, #31
100013ca:	446b      	add	r3, sp
100013cc:	2200      	movs	r2, #0
100013ce:	701a      	strb	r2, [r3, #0]
100013d0:	e032      	b.n	10001438 <alarm_pool_add_alarm_at+0x8c>
100013d2:	2800      	cmp	r0, #0
100013d4:	d009      	beq.n	100013ea <alarm_pool_add_alarm_at+0x3e>
100013d6:	4642      	mov	r2, r8
100013d8:	6812      	ldr	r2, [r2, #0]
100013da:	7b12      	ldrb	r2, [r2, #12]
100013dc:	4290      	cmp	r0, r2
100013de:	d804      	bhi.n	100013ea <alarm_pool_add_alarm_at+0x3e>
100013e0:	1e42      	subs	r2, r0, #1
100013e2:	4641      	mov	r1, r8
100013e4:	68c9      	ldr	r1, [r1, #12]
100013e6:	5c8a      	ldrb	r2, [r1, r2]
100013e8:	e042      	b.n	10001470 <alarm_pool_add_alarm_at+0xc4>
100013ea:	4b3f      	ldr	r3, [pc, #252]	; (100014e8 <alarm_pool_add_alarm_at+0x13c>)
100013ec:	4a3f      	ldr	r2, [pc, #252]	; (100014ec <alarm_pool_add_alarm_at+0x140>)
100013ee:	2140      	movs	r1, #64	; 0x40
100013f0:	483f      	ldr	r0, [pc, #252]	; (100014f0 <alarm_pool_add_alarm_at+0x144>)
100013f2:	f000 fe41 	bl	10002078 <__assert_func>
100013f6:	2000      	movs	r0, #0
100013f8:	2b00      	cmp	r3, #0
100013fa:	d06d      	beq.n	100014d8 <alarm_pool_add_alarm_at+0x12c>
100013fc:	4653      	mov	r3, sl
100013fe:	2b00      	cmp	r3, #0
10001400:	d06a      	beq.n	100014d8 <alarm_pool_add_alarm_at+0x12c>
10001402:	9911      	ldr	r1, [sp, #68]	; 0x44
10001404:	47c8      	blx	r9
10001406:	0004      	movs	r4, r0
10001408:	000d      	movs	r5, r1
1000140a:	0003      	movs	r3, r0
1000140c:	430b      	orrs	r3, r1
1000140e:	d069      	beq.n	100014e4 <alarm_pool_add_alarm_at+0x138>
10001410:	2900      	cmp	r1, #0
10001412:	db3f      	blt.n	10001494 <alarm_pool_add_alarm_at+0xe8>
10001414:	f000 fa2c 	bl	10001870 <time_us_64>
10001418:	2900      	cmp	r1, #0
1000141a:	db4f      	blt.n	100014bc <alarm_pool_add_alarm_at+0x110>
1000141c:	1824      	adds	r4, r4, r0
1000141e:	414d      	adcs	r5, r1
10001420:	42a9      	cmp	r1, r5
10001422:	d802      	bhi.n	1000142a <alarm_pool_add_alarm_at+0x7e>
10001424:	d104      	bne.n	10001430 <alarm_pool_add_alarm_at+0x84>
10001426:	42a0      	cmp	r0, r4
10001428:	d902      	bls.n	10001430 <alarm_pool_add_alarm_at+0x84>
1000142a:	2401      	movs	r4, #1
1000142c:	4264      	negs	r4, r4
1000142e:	17e5      	asrs	r5, r4, #31
10001430:	2d00      	cmp	r5, #0
10001432:	db49      	blt.n	100014c8 <alarm_pool_add_alarm_at+0x11c>
10001434:	0026      	movs	r6, r4
10001436:	002f      	movs	r7, r5
10001438:	4643      	mov	r3, r8
1000143a:	685a      	ldr	r2, [r3, #4]
1000143c:	f3ef 8410 	mrs	r4, PRIMASK
10001440:	b672      	cpsid	i
10001442:	6813      	ldr	r3, [r2, #0]
10001444:	2b00      	cmp	r3, #0
10001446:	d0fc      	beq.n	10001442 <alarm_pool_add_alarm_at+0x96>
10001448:	f3bf 8f5f 	dmb	sy
1000144c:	231f      	movs	r3, #31
1000144e:	446b      	add	r3, sp
10001450:	9304      	str	r3, [sp, #16]
10001452:	2300      	movs	r3, #0
10001454:	9303      	str	r3, [sp, #12]
10001456:	9302      	str	r3, [sp, #8]
10001458:	9b11      	ldr	r3, [sp, #68]	; 0x44
1000145a:	9301      	str	r3, [sp, #4]
1000145c:	464b      	mov	r3, r9
1000145e:	9300      	str	r3, [sp, #0]
10001460:	0032      	movs	r2, r6
10001462:	003b      	movs	r3, r7
10001464:	4640      	mov	r0, r8
10001466:	f7ff fd1b 	bl	10000ea0 <add_alarm_under_lock>
1000146a:	1e03      	subs	r3, r0, #0
1000146c:	d1b1      	bne.n	100013d2 <alarm_pool_add_alarm_at+0x26>
1000146e:	0002      	movs	r2, r0
10001470:	4641      	mov	r1, r8
10001472:	6849      	ldr	r1, [r1, #4]
10001474:	f3bf 8f5f 	dmb	sy
10001478:	2500      	movs	r5, #0
1000147a:	600d      	str	r5, [r1, #0]
1000147c:	f384 8810 	msr	PRIMASK, r4
10001480:	2b00      	cmp	r3, #0
10001482:	d027      	beq.n	100014d4 <alarm_pool_add_alarm_at+0x128>
10001484:	231f      	movs	r3, #31
10001486:	446b      	add	r3, sp
10001488:	781b      	ldrb	r3, [r3, #0]
1000148a:	2b00      	cmp	r3, #0
1000148c:	d1b3      	bne.n	100013f6 <alarm_pool_add_alarm_at+0x4a>
1000148e:	0212      	lsls	r2, r2, #8
10001490:	4310      	orrs	r0, r2
10001492:	e7b1      	b.n	100013f8 <alarm_pool_add_alarm_at+0x4c>
10001494:	0032      	movs	r2, r6
10001496:	003b      	movs	r3, r7
10001498:	1b36      	subs	r6, r6, r4
1000149a:	41af      	sbcs	r7, r5
1000149c:	42bb      	cmp	r3, r7
1000149e:	d802      	bhi.n	100014a6 <alarm_pool_add_alarm_at+0xfa>
100014a0:	d104      	bne.n	100014ac <alarm_pool_add_alarm_at+0x100>
100014a2:	42b2      	cmp	r2, r6
100014a4:	d902      	bls.n	100014ac <alarm_pool_add_alarm_at+0x100>
100014a6:	2601      	movs	r6, #1
100014a8:	4276      	negs	r6, r6
100014aa:	17f7      	asrs	r7, r6, #31
100014ac:	2f00      	cmp	r7, #0
100014ae:	dac3      	bge.n	10001438 <alarm_pool_add_alarm_at+0x8c>
100014b0:	4b10      	ldr	r3, [pc, #64]	; (100014f4 <alarm_pool_add_alarm_at+0x148>)
100014b2:	4a11      	ldr	r2, [pc, #68]	; (100014f8 <alarm_pool_add_alarm_at+0x14c>)
100014b4:	213f      	movs	r1, #63	; 0x3f
100014b6:	4811      	ldr	r0, [pc, #68]	; (100014fc <alarm_pool_add_alarm_at+0x150>)
100014b8:	f000 fdde 	bl	10002078 <__assert_func>
100014bc:	4b0d      	ldr	r3, [pc, #52]	; (100014f4 <alarm_pool_add_alarm_at+0x148>)
100014be:	4a0e      	ldr	r2, [pc, #56]	; (100014f8 <alarm_pool_add_alarm_at+0x14c>)
100014c0:	213f      	movs	r1, #63	; 0x3f
100014c2:	480e      	ldr	r0, [pc, #56]	; (100014fc <alarm_pool_add_alarm_at+0x150>)
100014c4:	f000 fdd8 	bl	10002078 <__assert_func>
100014c8:	4b0a      	ldr	r3, [pc, #40]	; (100014f4 <alarm_pool_add_alarm_at+0x148>)
100014ca:	4a0b      	ldr	r2, [pc, #44]	; (100014f8 <alarm_pool_add_alarm_at+0x14c>)
100014cc:	213f      	movs	r1, #63	; 0x3f
100014ce:	480b      	ldr	r0, [pc, #44]	; (100014fc <alarm_pool_add_alarm_at+0x150>)
100014d0:	f000 fdd2 	bl	10002078 <__assert_func>
100014d4:	2001      	movs	r0, #1
100014d6:	4240      	negs	r0, r0
100014d8:	b008      	add	sp, #32
100014da:	bc1c      	pop	{r2, r3, r4}
100014dc:	4690      	mov	r8, r2
100014de:	4699      	mov	r9, r3
100014e0:	46a2      	mov	sl, r4
100014e2:	bdf0      	pop	{r4, r5, r6, r7, pc}
100014e4:	2000      	movs	r0, #0
100014e6:	e7f7      	b.n	100014d8 <alarm_pool_add_alarm_at+0x12c>
100014e8:	10009164 	.word	0x10009164
100014ec:	10009018 	.word	0x10009018
100014f0:	1000927c 	.word	0x1000927c
100014f4:	10008b84 	.word	0x10008b84
100014f8:	10008fb4 	.word	0x10008fb4
100014fc:	10008ba0 	.word	0x10008ba0

10001500 <alarm_pool_cancel_alarm>:
10001500:	b570      	push	{r4, r5, r6, lr}
10001502:	0004      	movs	r4, r0
10001504:	6842      	ldr	r2, [r0, #4]
10001506:	f3ef 8510 	mrs	r5, PRIMASK
1000150a:	b672      	cpsid	i
1000150c:	6813      	ldr	r3, [r2, #0]
1000150e:	2b00      	cmp	r3, #0
10001510:	d0fc      	beq.n	1000150c <alarm_pool_cancel_alarm+0xc>
10001512:	f3bf 8f5f 	dmb	sy
10001516:	b2ca      	uxtb	r2, r1
10001518:	6826      	ldr	r6, [r4, #0]
1000151a:	7b73      	ldrb	r3, [r6, #13]
1000151c:	429a      	cmp	r2, r3
1000151e:	d11b      	bne.n	10001558 <alarm_pool_cancel_alarm+0x58>
10001520:	2001      	movs	r0, #1
10001522:	2800      	cmp	r0, #0
10001524:	d04a      	beq.n	100015bc <alarm_pool_cancel_alarm+0xbc>
10001526:	6923      	ldr	r3, [r4, #16]
10001528:	428b      	cmp	r3, r1
1000152a:	d02d      	beq.n	10001588 <alarm_pool_cancel_alarm+0x88>
1000152c:	0a09      	lsrs	r1, r1, #8
1000152e:	b2c9      	uxtb	r1, r1
10001530:	2a00      	cmp	r2, #0
10001532:	d030      	beq.n	10001596 <alarm_pool_cancel_alarm+0x96>
10001534:	6823      	ldr	r3, [r4, #0]
10001536:	7b1b      	ldrb	r3, [r3, #12]
10001538:	429a      	cmp	r2, r3
1000153a:	d82c      	bhi.n	10001596 <alarm_pool_cancel_alarm+0x96>
1000153c:	1e53      	subs	r3, r2, #1
1000153e:	68e0      	ldr	r0, [r4, #12]
10001540:	5cc3      	ldrb	r3, [r0, r3]
10001542:	428b      	cmp	r3, r1
10001544:	d02d      	beq.n	100015a2 <alarm_pool_cancel_alarm+0xa2>
10001546:	2000      	movs	r0, #0
10001548:	6863      	ldr	r3, [r4, #4]
1000154a:	f3bf 8f5f 	dmb	sy
1000154e:	2200      	movs	r2, #0
10001550:	601a      	str	r2, [r3, #0]
10001552:	f385 8810 	msr	PRIMASK, r5
10001556:	bd70      	pop	{r4, r5, r6, pc}
10001558:	2a00      	cmp	r2, #0
1000155a:	d00d      	beq.n	10001578 <alarm_pool_cancel_alarm+0x78>
1000155c:	7b33      	ldrb	r3, [r6, #12]
1000155e:	429a      	cmp	r2, r3
10001560:	d80a      	bhi.n	10001578 <alarm_pool_cancel_alarm+0x78>
10001562:	0053      	lsls	r3, r2, #1
10001564:	189b      	adds	r3, r3, r2
10001566:	3b03      	subs	r3, #3
10001568:	6830      	ldr	r0, [r6, #0]
1000156a:	4684      	mov	ip, r0
1000156c:	4463      	add	r3, ip
1000156e:	789b      	ldrb	r3, [r3, #2]
10001570:	2b00      	cmp	r3, #0
10001572:	d107      	bne.n	10001584 <alarm_pool_cancel_alarm+0x84>
10001574:	2000      	movs	r0, #0
10001576:	e7d4      	b.n	10001522 <alarm_pool_cancel_alarm+0x22>
10001578:	4b13      	ldr	r3, [pc, #76]	; (100015c8 <alarm_pool_cancel_alarm+0xc8>)
1000157a:	4a14      	ldr	r2, [pc, #80]	; (100015cc <alarm_pool_cancel_alarm+0xcc>)
1000157c:	2168      	movs	r1, #104	; 0x68
1000157e:	4814      	ldr	r0, [pc, #80]	; (100015d0 <alarm_pool_cancel_alarm+0xd0>)
10001580:	f000 fd7a 	bl	10002078 <__assert_func>
10001584:	2001      	movs	r0, #1
10001586:	e7cc      	b.n	10001522 <alarm_pool_cancel_alarm+0x22>
10001588:	2185      	movs	r1, #133	; 0x85
1000158a:	4b12      	ldr	r3, [pc, #72]	; (100015d4 <alarm_pool_cancel_alarm+0xd4>)
1000158c:	4a12      	ldr	r2, [pc, #72]	; (100015d8 <alarm_pool_cancel_alarm+0xd8>)
1000158e:	0049      	lsls	r1, r1, #1
10001590:	4812      	ldr	r0, [pc, #72]	; (100015dc <alarm_pool_cancel_alarm+0xdc>)
10001592:	f000 fd71 	bl	10002078 <__assert_func>
10001596:	4b12      	ldr	r3, [pc, #72]	; (100015e0 <alarm_pool_cancel_alarm+0xe0>)
10001598:	4a12      	ldr	r2, [pc, #72]	; (100015e4 <alarm_pool_cancel_alarm+0xe4>)
1000159a:	2140      	movs	r1, #64	; 0x40
1000159c:	480f      	ldr	r0, [pc, #60]	; (100015dc <alarm_pool_cancel_alarm+0xdc>)
1000159e:	f000 fd6b 	bl	10002078 <__assert_func>
100015a2:	0011      	movs	r1, r2
100015a4:	0030      	movs	r0, r6
100015a6:	f000 fc17 	bl	10001dd8 <ph_remove_and_free_node>
100015aa:	2800      	cmp	r0, #0
100015ac:	d1cc      	bne.n	10001548 <alarm_pool_cancel_alarm+0x48>
100015ae:	2112      	movs	r1, #18
100015b0:	4b0d      	ldr	r3, [pc, #52]	; (100015e8 <alarm_pool_cancel_alarm+0xe8>)
100015b2:	4a09      	ldr	r2, [pc, #36]	; (100015d8 <alarm_pool_cancel_alarm+0xd8>)
100015b4:	31ff      	adds	r1, #255	; 0xff
100015b6:	4809      	ldr	r0, [pc, #36]	; (100015dc <alarm_pool_cancel_alarm+0xdc>)
100015b8:	f000 fd5e 	bl	10002078 <__assert_func>
100015bc:	6923      	ldr	r3, [r4, #16]
100015be:	428b      	cmp	r3, r1
100015c0:	d1c2      	bne.n	10001548 <alarm_pool_cancel_alarm+0x48>
100015c2:	2300      	movs	r3, #0
100015c4:	6123      	str	r3, [r4, #16]
100015c6:	e7bf      	b.n	10001548 <alarm_pool_cancel_alarm+0x48>
100015c8:	100091c8 	.word	0x100091c8
100015cc:	10008fcc 	.word	0x10008fcc
100015d0:	100091e4 	.word	0x100091e4
100015d4:	1000913c 	.word	0x1000913c
100015d8:	10009078 	.word	0x10009078
100015dc:	1000927c 	.word	0x1000927c
100015e0:	10009164 	.word	0x10009164
100015e4:	10009018 	.word	0x10009018
100015e8:	10009160 	.word	0x10009160

100015ec <sleep_until>:
100015ec:	b5f0      	push	{r4, r5, r6, r7, lr}
100015ee:	b087      	sub	sp, #28
100015f0:	0006      	movs	r6, r0
100015f2:	000f      	movs	r7, r1
100015f4:	f7fe fe37 	bl	10000266 <__get_current_exception>
100015f8:	2800      	cmp	r0, #0
100015fa:	d11e      	bne.n	1000163a <sleep_until+0x4e>
100015fc:	2406      	movs	r4, #6
100015fe:	4264      	negs	r4, r4
10001600:	17e5      	asrs	r5, r4, #31
10001602:	19a4      	adds	r4, r4, r6
10001604:	417d      	adcs	r5, r7
10001606:	42bd      	cmp	r5, r7
10001608:	d802      	bhi.n	10001610 <sleep_until+0x24>
1000160a:	d103      	bne.n	10001614 <sleep_until+0x28>
1000160c:	42b4      	cmp	r4, r6
1000160e:	d901      	bls.n	10001614 <sleep_until+0x28>
10001610:	2400      	movs	r4, #0
10001612:	2500      	movs	r5, #0
10001614:	2d00      	cmp	r5, #0
10001616:	db13      	blt.n	10001640 <sleep_until+0x54>
10001618:	9404      	str	r4, [sp, #16]
1000161a:	9505      	str	r5, [sp, #20]
1000161c:	f000 f928 	bl	10001870 <time_us_64>
10001620:	2900      	cmp	r1, #0
10001622:	db13      	blt.n	1000164c <sleep_until+0x60>
10001624:	1a24      	subs	r4, r4, r0
10001626:	418d      	sbcs	r5, r1
10001628:	2d00      	cmp	r5, #0
1000162a:	dc17      	bgt.n	1000165c <sleep_until+0x70>
1000162c:	d014      	beq.n	10001658 <sleep_until+0x6c>
1000162e:	0030      	movs	r0, r6
10001630:	0039      	movs	r1, r7
10001632:	f000 f929 	bl	10001888 <busy_wait_until>
10001636:	b007      	add	sp, #28
10001638:	bdf0      	pop	{r4, r5, r6, r7, pc}
1000163a:	4823      	ldr	r0, [pc, #140]	; (100016c8 <sleep_until+0xdc>)
1000163c:	f000 fdb6 	bl	100021ac <panic>
10001640:	4b22      	ldr	r3, [pc, #136]	; (100016cc <sleep_until+0xe0>)
10001642:	4a23      	ldr	r2, [pc, #140]	; (100016d0 <sleep_until+0xe4>)
10001644:	213f      	movs	r1, #63	; 0x3f
10001646:	4823      	ldr	r0, [pc, #140]	; (100016d4 <sleep_until+0xe8>)
10001648:	f000 fd16 	bl	10002078 <__assert_func>
1000164c:	4b1f      	ldr	r3, [pc, #124]	; (100016cc <sleep_until+0xe0>)
1000164e:	4a20      	ldr	r2, [pc, #128]	; (100016d0 <sleep_until+0xe4>)
10001650:	213f      	movs	r1, #63	; 0x3f
10001652:	4820      	ldr	r0, [pc, #128]	; (100016d4 <sleep_until+0xe8>)
10001654:	f000 fd10 	bl	10002078 <__assert_func>
10001658:	2c00      	cmp	r4, #0
1000165a:	d0e8      	beq.n	1000162e <sleep_until+0x42>
1000165c:	f7ff fe90 	bl	10001380 <alarm_pool_get_default>
10001660:	2300      	movs	r3, #0
10001662:	9302      	str	r3, [sp, #8]
10001664:	9301      	str	r3, [sp, #4]
10001666:	4b1c      	ldr	r3, [pc, #112]	; (100016d8 <sleep_until+0xec>)
10001668:	9300      	str	r3, [sp, #0]
1000166a:	9a04      	ldr	r2, [sp, #16]
1000166c:	9b05      	ldr	r3, [sp, #20]
1000166e:	f7ff fe9d 	bl	100013ac <alarm_pool_add_alarm_at>
10001672:	2800      	cmp	r0, #0
10001674:	da18      	bge.n	100016a8 <sleep_until+0xbc>
10001676:	e7da      	b.n	1000162e <sleep_until+0x42>
10001678:	2300      	movs	r3, #0
1000167a:	e000      	b.n	1000167e <sleep_until+0x92>
1000167c:	2300      	movs	r3, #0
1000167e:	2b00      	cmp	r3, #0
10001680:	d1d5      	bne.n	1000162e <sleep_until+0x42>
10001682:	4b16      	ldr	r3, [pc, #88]	; (100016dc <sleep_until+0xf0>)
10001684:	681a      	ldr	r2, [r3, #0]
10001686:	f3ef 8110 	mrs	r1, PRIMASK
1000168a:	b672      	cpsid	i
1000168c:	6813      	ldr	r3, [r2, #0]
1000168e:	2b00      	cmp	r3, #0
10001690:	d0fc      	beq.n	1000168c <sleep_until+0xa0>
10001692:	f3bf 8f5f 	dmb	sy
10001696:	4b11      	ldr	r3, [pc, #68]	; (100016dc <sleep_until+0xf0>)
10001698:	681b      	ldr	r3, [r3, #0]
1000169a:	f3bf 8f5f 	dmb	sy
1000169e:	2200      	movs	r2, #0
100016a0:	601a      	str	r2, [r3, #0]
100016a2:	f381 8810 	msr	PRIMASK, r1
100016a6:	bf20      	wfe
100016a8:	9904      	ldr	r1, [sp, #16]
100016aa:	9a05      	ldr	r2, [sp, #20]
100016ac:	4b0c      	ldr	r3, [pc, #48]	; (100016e0 <sleep_until+0xf4>)
100016ae:	6a5b      	ldr	r3, [r3, #36]	; 0x24
100016b0:	429a      	cmp	r2, r3
100016b2:	d8e3      	bhi.n	1000167c <sleep_until+0x90>
100016b4:	480a      	ldr	r0, [pc, #40]	; (100016e0 <sleep_until+0xf4>)
100016b6:	6a80      	ldr	r0, [r0, #40]	; 0x28
100016b8:	4288      	cmp	r0, r1
100016ba:	d203      	bcs.n	100016c4 <sleep_until+0xd8>
100016bc:	429a      	cmp	r2, r3
100016be:	d0db      	beq.n	10001678 <sleep_until+0x8c>
100016c0:	2301      	movs	r3, #1
100016c2:	e7dc      	b.n	1000167e <sleep_until+0x92>
100016c4:	2301      	movs	r3, #1
100016c6:	e7da      	b.n	1000167e <sleep_until+0x92>
100016c8:	100092c0 	.word	0x100092c0
100016cc:	10008b84 	.word	0x10008b84
100016d0:	10008fb4 	.word	0x10008fb4
100016d4:	10008ba0 	.word	0x10008ba0
100016d8:	10000cd1 	.word	0x10000cd1
100016dc:	20001c98 	.word	0x20001c98
100016e0:	40054000 	.word	0x40054000

100016e4 <sleep_us>:
100016e4:	b570      	push	{r4, r5, r6, lr}
100016e6:	0004      	movs	r4, r0
100016e8:	000d      	movs	r5, r1
100016ea:	f000 f8c1 	bl	10001870 <time_us_64>
100016ee:	2900      	cmp	r1, #0
100016f0:	db10      	blt.n	10001714 <sleep_us+0x30>
100016f2:	0002      	movs	r2, r0
100016f4:	000b      	movs	r3, r1
100016f6:	1900      	adds	r0, r0, r4
100016f8:	4169      	adcs	r1, r5
100016fa:	428b      	cmp	r3, r1
100016fc:	d802      	bhi.n	10001704 <sleep_us+0x20>
100016fe:	d104      	bne.n	1000170a <sleep_us+0x26>
10001700:	4282      	cmp	r2, r0
10001702:	d902      	bls.n	1000170a <sleep_us+0x26>
10001704:	2001      	movs	r0, #1
10001706:	4240      	negs	r0, r0
10001708:	17c1      	asrs	r1, r0, #31
1000170a:	2900      	cmp	r1, #0
1000170c:	db08      	blt.n	10001720 <sleep_us+0x3c>
1000170e:	f7ff ff6d 	bl	100015ec <sleep_until>
10001712:	bd70      	pop	{r4, r5, r6, pc}
10001714:	4b05      	ldr	r3, [pc, #20]	; (1000172c <sleep_us+0x48>)
10001716:	4a06      	ldr	r2, [pc, #24]	; (10001730 <sleep_us+0x4c>)
10001718:	213f      	movs	r1, #63	; 0x3f
1000171a:	4806      	ldr	r0, [pc, #24]	; (10001734 <sleep_us+0x50>)
1000171c:	f000 fcac 	bl	10002078 <__assert_func>
10001720:	4b02      	ldr	r3, [pc, #8]	; (1000172c <sleep_us+0x48>)
10001722:	4a03      	ldr	r2, [pc, #12]	; (10001730 <sleep_us+0x4c>)
10001724:	213f      	movs	r1, #63	; 0x3f
10001726:	4803      	ldr	r0, [pc, #12]	; (10001734 <sleep_us+0x50>)
10001728:	f000 fca6 	bl	10002078 <__assert_func>
1000172c:	10008b84 	.word	0x10008b84
10001730:	10008fb4 	.word	0x10008fb4
10001734:	10008ba0 	.word	0x10008ba0

10001738 <sleep_ms>:
10001738:	b510      	push	{r4, lr}
1000173a:	22fa      	movs	r2, #250	; 0xfa
1000173c:	0092      	lsls	r2, r2, #2
1000173e:	2300      	movs	r3, #0
10001740:	2100      	movs	r1, #0
10001742:	f002 fe23 	bl	1000438c <__wrap___aeabi_lmul>
10001746:	f7ff ffcd 	bl	100016e4 <sleep_us>
1000174a:	bd10      	pop	{r4, pc}

1000174c <best_effort_wfe_or_timeout>:
1000174c:	b570      	push	{r4, r5, r6, lr}
1000174e:	b084      	sub	sp, #16
10001750:	0005      	movs	r5, r0
10001752:	000c      	movs	r4, r1
10001754:	f7ff fe14 	bl	10001380 <alarm_pool_get_default>
10001758:	2300      	movs	r3, #0
1000175a:	9302      	str	r3, [sp, #8]
1000175c:	9301      	str	r3, [sp, #4]
1000175e:	4b19      	ldr	r3, [pc, #100]	; (100017c4 <best_effort_wfe_or_timeout+0x78>)
10001760:	9300      	str	r3, [sp, #0]
10001762:	002a      	movs	r2, r5
10001764:	0023      	movs	r3, r4
10001766:	f7ff fe21 	bl	100013ac <alarm_pool_add_alarm_at>
1000176a:	1e06      	subs	r6, r0, #0
1000176c:	dc12      	bgt.n	10001794 <best_effort_wfe_or_timeout+0x48>
1000176e:	4b16      	ldr	r3, [pc, #88]	; (100017c8 <best_effort_wfe_or_timeout+0x7c>)
10001770:	6a5b      	ldr	r3, [r3, #36]	; 0x24
10001772:	429c      	cmp	r4, r3
10001774:	d809      	bhi.n	1000178a <best_effort_wfe_or_timeout+0x3e>
10001776:	4a14      	ldr	r2, [pc, #80]	; (100017c8 <best_effort_wfe_or_timeout+0x7c>)
10001778:	6a92      	ldr	r2, [r2, #40]	; 0x28
1000177a:	42aa      	cmp	r2, r5
1000177c:	d208      	bcs.n	10001790 <best_effort_wfe_or_timeout+0x44>
1000177e:	429c      	cmp	r4, r3
10001780:	d001      	beq.n	10001786 <best_effort_wfe_or_timeout+0x3a>
10001782:	2001      	movs	r0, #1
10001784:	e002      	b.n	1000178c <best_effort_wfe_or_timeout+0x40>
10001786:	2000      	movs	r0, #0
10001788:	e000      	b.n	1000178c <best_effort_wfe_or_timeout+0x40>
1000178a:	2000      	movs	r0, #0
1000178c:	b004      	add	sp, #16
1000178e:	bd70      	pop	{r4, r5, r6, pc}
10001790:	2001      	movs	r0, #1
10001792:	e7fb      	b.n	1000178c <best_effort_wfe_or_timeout+0x40>
10001794:	bf20      	wfe
10001796:	f7ff fdf3 	bl	10001380 <alarm_pool_get_default>
1000179a:	0031      	movs	r1, r6
1000179c:	f7ff feb0 	bl	10001500 <alarm_pool_cancel_alarm>
100017a0:	4b09      	ldr	r3, [pc, #36]	; (100017c8 <best_effort_wfe_or_timeout+0x7c>)
100017a2:	6a5b      	ldr	r3, [r3, #36]	; 0x24
100017a4:	429c      	cmp	r4, r3
100017a6:	d809      	bhi.n	100017bc <best_effort_wfe_or_timeout+0x70>
100017a8:	4a07      	ldr	r2, [pc, #28]	; (100017c8 <best_effort_wfe_or_timeout+0x7c>)
100017aa:	6a92      	ldr	r2, [r2, #40]	; 0x28
100017ac:	42aa      	cmp	r2, r5
100017ae:	d207      	bcs.n	100017c0 <best_effort_wfe_or_timeout+0x74>
100017b0:	429c      	cmp	r4, r3
100017b2:	d001      	beq.n	100017b8 <best_effort_wfe_or_timeout+0x6c>
100017b4:	2001      	movs	r0, #1
100017b6:	e7e9      	b.n	1000178c <best_effort_wfe_or_timeout+0x40>
100017b8:	2000      	movs	r0, #0
100017ba:	e7e7      	b.n	1000178c <best_effort_wfe_or_timeout+0x40>
100017bc:	2000      	movs	r0, #0
100017be:	e7e5      	b.n	1000178c <best_effort_wfe_or_timeout+0x40>
100017c0:	2001      	movs	r0, #1
100017c2:	e7e3      	b.n	1000178c <best_effort_wfe_or_timeout+0x40>
100017c4:	10000cd1 	.word	0x10000cd1
100017c8:	40054000 	.word	0x40054000

100017cc <hardware_alarm_irq_handler>:
100017cc:	b570      	push	{r4, r5, r6, lr}
100017ce:	f3ef 8305 	mrs	r3, IPSR
100017d2:	203f      	movs	r0, #63	; 0x3f
100017d4:	4018      	ands	r0, r3
100017d6:	3810      	subs	r0, #16
100017d8:	f3ef 8410 	mrs	r4, PRIMASK
100017dc:	b672      	cpsid	i
100017de:	4b19      	ldr	r3, [pc, #100]	; (10001844 <hardware_alarm_irq_handler+0x78>)
100017e0:	681b      	ldr	r3, [r3, #0]
100017e2:	2b00      	cmp	r3, #0
100017e4:	d0fb      	beq.n	100017de <hardware_alarm_irq_handler+0x12>
100017e6:	f3bf 8f5f 	dmb	sy
100017ea:	2301      	movs	r3, #1
100017ec:	0019      	movs	r1, r3
100017ee:	4081      	lsls	r1, r0
100017f0:	4a15      	ldr	r2, [pc, #84]	; (10001848 <hardware_alarm_irq_handler+0x7c>)
100017f2:	6351      	str	r1, [r2, #52]	; 0x34
100017f4:	4a15      	ldr	r2, [pc, #84]	; (1000184c <hardware_alarm_irq_handler+0x80>)
100017f6:	7812      	ldrb	r2, [r2, #0]
100017f8:	0015      	movs	r5, r2
100017fa:	40c5      	lsrs	r5, r0
100017fc:	422b      	tst	r3, r5
100017fe:	d014      	beq.n	1000182a <hardware_alarm_irq_handler+0x5e>
10001800:	4b11      	ldr	r3, [pc, #68]	; (10001848 <hardware_alarm_irq_handler+0x7c>)
10001802:	6a5d      	ldr	r5, [r3, #36]	; 0x24
10001804:	0083      	lsls	r3, r0, #2
10001806:	4e12      	ldr	r6, [pc, #72]	; (10001850 <hardware_alarm_irq_handler+0x84>)
10001808:	599b      	ldr	r3, [r3, r6]
1000180a:	429d      	cmp	r5, r3
1000180c:	d306      	bcc.n	1000181c <hardware_alarm_irq_handler+0x50>
1000180e:	0083      	lsls	r3, r0, #2
10001810:	4d10      	ldr	r5, [pc, #64]	; (10001854 <hardware_alarm_irq_handler+0x88>)
10001812:	595b      	ldr	r3, [r3, r5]
10001814:	438a      	bics	r2, r1
10001816:	490d      	ldr	r1, [pc, #52]	; (1000184c <hardware_alarm_irq_handler+0x80>)
10001818:	700a      	strb	r2, [r1, #0]
1000181a:	e007      	b.n	1000182c <hardware_alarm_irq_handler+0x60>
1000181c:	4a0a      	ldr	r2, [pc, #40]	; (10001848 <hardware_alarm_irq_handler+0x7c>)
1000181e:	1d03      	adds	r3, r0, #4
10001820:	009b      	lsls	r3, r3, #2
10001822:	5899      	ldr	r1, [r3, r2]
10001824:	5099      	str	r1, [r3, r2]
10001826:	2300      	movs	r3, #0
10001828:	e000      	b.n	1000182c <hardware_alarm_irq_handler+0x60>
1000182a:	2300      	movs	r3, #0
1000182c:	f3bf 8f5f 	dmb	sy
10001830:	4a04      	ldr	r2, [pc, #16]	; (10001844 <hardware_alarm_irq_handler+0x78>)
10001832:	2100      	movs	r1, #0
10001834:	6011      	str	r1, [r2, #0]
10001836:	f384 8810 	msr	PRIMASK, r4
1000183a:	2b00      	cmp	r3, #0
1000183c:	d000      	beq.n	10001840 <hardware_alarm_irq_handler+0x74>
1000183e:	4798      	blx	r3
10001840:	bd70      	pop	{r4, r5, r6, pc}
10001842:	46c0      	nop			; (mov r8, r8)
10001844:	d0000128 	.word	0xd0000128
10001848:	40054000 	.word	0x40054000
1000184c:	20001cbc 	.word	0x20001cbc
10001850:	20001ca0 	.word	0x20001ca0
10001854:	200018e8 	.word	0x200018e8

10001858 <hardware_alarm_claim>:
10001858:	b510      	push	{r4, lr}
1000185a:	0001      	movs	r1, r0
1000185c:	4a02      	ldr	r2, [pc, #8]	; (10001868 <hardware_alarm_claim+0x10>)
1000185e:	4803      	ldr	r0, [pc, #12]	; (1000186c <hardware_alarm_claim+0x14>)
10001860:	f7fe ffb0 	bl	100007c4 <hw_claim_or_assert>
10001864:	bd10      	pop	{r4, pc}
10001866:	46c0      	nop			; (mov r8, r8)
10001868:	10009344 	.word	0x10009344
1000186c:	20001cb9 	.word	0x20001cb9

10001870 <time_us_64>:
10001870:	4b04      	ldr	r3, [pc, #16]	; (10001884 <time_us_64+0x14>)
10001872:	6a59      	ldr	r1, [r3, #36]	; 0x24
10001874:	e000      	b.n	10001878 <time_us_64+0x8>
10001876:	0019      	movs	r1, r3
10001878:	4b02      	ldr	r3, [pc, #8]	; (10001884 <time_us_64+0x14>)
1000187a:	6a98      	ldr	r0, [r3, #40]	; 0x28
1000187c:	6a5b      	ldr	r3, [r3, #36]	; 0x24
1000187e:	4299      	cmp	r1, r3
10001880:	d1f9      	bne.n	10001876 <time_us_64+0x6>
10001882:	4770      	bx	lr
10001884:	40054000 	.word	0x40054000

10001888 <busy_wait_until>:
10001888:	4b07      	ldr	r3, [pc, #28]	; (100018a8 <busy_wait_until+0x20>)
1000188a:	6a5b      	ldr	r3, [r3, #36]	; 0x24
1000188c:	428b      	cmp	r3, r1
1000188e:	d204      	bcs.n	1000189a <busy_wait_until+0x12>
10001890:	4b05      	ldr	r3, [pc, #20]	; (100018a8 <busy_wait_until+0x20>)
10001892:	6a5b      	ldr	r3, [r3, #36]	; 0x24
10001894:	e7fa      	b.n	1000188c <busy_wait_until+0x4>
10001896:	4b04      	ldr	r3, [pc, #16]	; (100018a8 <busy_wait_until+0x20>)
10001898:	6a5b      	ldr	r3, [r3, #36]	; 0x24
1000189a:	428b      	cmp	r3, r1
1000189c:	d103      	bne.n	100018a6 <busy_wait_until+0x1e>
1000189e:	4b02      	ldr	r3, [pc, #8]	; (100018a8 <busy_wait_until+0x20>)
100018a0:	6a9b      	ldr	r3, [r3, #40]	; 0x28
100018a2:	4283      	cmp	r3, r0
100018a4:	d3f7      	bcc.n	10001896 <busy_wait_until+0xe>
100018a6:	4770      	bx	lr
100018a8:	40054000 	.word	0x40054000

100018ac <busy_wait_us>:
100018ac:	b570      	push	{r4, r5, r6, lr}
100018ae:	0004      	movs	r4, r0
100018b0:	000d      	movs	r5, r1
100018b2:	f7ff ffdd 	bl	10001870 <time_us_64>
100018b6:	0002      	movs	r2, r0
100018b8:	000b      	movs	r3, r1
100018ba:	0020      	movs	r0, r4
100018bc:	0029      	movs	r1, r5
100018be:	1880      	adds	r0, r0, r2
100018c0:	4159      	adcs	r1, r3
100018c2:	428b      	cmp	r3, r1
100018c4:	d802      	bhi.n	100018cc <busy_wait_us+0x20>
100018c6:	d104      	bne.n	100018d2 <busy_wait_us+0x26>
100018c8:	4282      	cmp	r2, r0
100018ca:	d902      	bls.n	100018d2 <busy_wait_us+0x26>
100018cc:	2001      	movs	r0, #1
100018ce:	4240      	negs	r0, r0
100018d0:	17c1      	asrs	r1, r0, #31
100018d2:	2900      	cmp	r1, #0
100018d4:	db02      	blt.n	100018dc <busy_wait_us+0x30>
100018d6:	f7ff ffd7 	bl	10001888 <busy_wait_until>
100018da:	bd70      	pop	{r4, r5, r6, pc}
100018dc:	4b02      	ldr	r3, [pc, #8]	; (100018e8 <busy_wait_us+0x3c>)
100018de:	4a03      	ldr	r2, [pc, #12]	; (100018ec <busy_wait_us+0x40>)
100018e0:	213f      	movs	r1, #63	; 0x3f
100018e2:	4803      	ldr	r0, [pc, #12]	; (100018f0 <busy_wait_us+0x44>)
100018e4:	f000 fbc8 	bl	10002078 <__assert_func>
100018e8:	10008b84 	.word	0x10008b84
100018ec:	10009310 	.word	0x10009310
100018f0:	10008ba0 	.word	0x10008ba0

100018f4 <hardware_alarm_set_callback>:
100018f4:	b570      	push	{r4, r5, r6, lr}
100018f6:	0004      	movs	r4, r0
100018f8:	000d      	movs	r5, r1
100018fa:	f3ef 8610 	mrs	r6, PRIMASK
100018fe:	b672      	cpsid	i
10001900:	4b1b      	ldr	r3, [pc, #108]	; (10001970 <hardware_alarm_set_callback+0x7c>)
10001902:	681b      	ldr	r3, [r3, #0]
10001904:	2b00      	cmp	r3, #0
10001906:	d0fb      	beq.n	10001900 <hardware_alarm_set_callback+0xc>
10001908:	f3bf 8f5f 	dmb	sy
1000190c:	2d00      	cmp	r5, #0
1000190e:	d01c      	beq.n	1000194a <hardware_alarm_set_callback+0x56>
10001910:	0020      	movs	r0, r4
10001912:	f7ff f84d 	bl	100009b0 <irq_get_vtable_handler>
10001916:	4b17      	ldr	r3, [pc, #92]	; (10001974 <hardware_alarm_set_callback+0x80>)
10001918:	4298      	cmp	r0, r3
1000191a:	d00b      	beq.n	10001934 <hardware_alarm_set_callback+0x40>
1000191c:	0019      	movs	r1, r3
1000191e:	0020      	movs	r0, r4
10001920:	f7ff f84e 	bl	100009c0 <irq_set_exclusive_handler>
10001924:	2101      	movs	r1, #1
10001926:	0020      	movs	r0, r4
10001928:	f7ff f83a 	bl	100009a0 <irq_set_enabled>
1000192c:	2301      	movs	r3, #1
1000192e:	40a3      	lsls	r3, r4
10001930:	4a11      	ldr	r2, [pc, #68]	; (10001978 <hardware_alarm_set_callback+0x84>)
10001932:	6013      	str	r3, [r2, #0]
10001934:	00a4      	lsls	r4, r4, #2
10001936:	4b11      	ldr	r3, [pc, #68]	; (1000197c <hardware_alarm_set_callback+0x88>)
10001938:	50e5      	str	r5, [r4, r3]
1000193a:	f3bf 8f5f 	dmb	sy
1000193e:	4b0c      	ldr	r3, [pc, #48]	; (10001970 <hardware_alarm_set_callback+0x7c>)
10001940:	2200      	movs	r2, #0
10001942:	601a      	str	r2, [r3, #0]
10001944:	f386 8810 	msr	PRIMASK, r6
10001948:	bd70      	pop	{r4, r5, r6, pc}
1000194a:	00a2      	lsls	r2, r4, #2
1000194c:	4b0b      	ldr	r3, [pc, #44]	; (1000197c <hardware_alarm_set_callback+0x88>)
1000194e:	2100      	movs	r1, #0
10001950:	50d1      	str	r1, [r2, r3]
10001952:	2201      	movs	r2, #1
10001954:	40a2      	lsls	r2, r4
10001956:	490a      	ldr	r1, [pc, #40]	; (10001980 <hardware_alarm_set_callback+0x8c>)
10001958:	780b      	ldrb	r3, [r1, #0]
1000195a:	4393      	bics	r3, r2
1000195c:	700b      	strb	r3, [r1, #0]
1000195e:	4905      	ldr	r1, [pc, #20]	; (10001974 <hardware_alarm_set_callback+0x80>)
10001960:	0020      	movs	r0, r4
10001962:	f7ff f857 	bl	10000a14 <irq_remove_handler>
10001966:	2100      	movs	r1, #0
10001968:	0020      	movs	r0, r4
1000196a:	f7ff f819 	bl	100009a0 <irq_set_enabled>
1000196e:	e7e4      	b.n	1000193a <hardware_alarm_set_callback+0x46>
10001970:	d0000128 	.word	0xd0000128
10001974:	100017cd 	.word	0x100017cd
10001978:	40056038 	.word	0x40056038
1000197c:	200018e8 	.word	0x200018e8
10001980:	20001cbc 	.word	0x20001cbc

10001984 <hardware_alarm_set_target>:
10001984:	b5f0      	push	{r4, r5, r6, r7, lr}
10001986:	46de      	mov	lr, fp
10001988:	b500      	push	{lr}
1000198a:	b084      	sub	sp, #16
1000198c:	0005      	movs	r5, r0
1000198e:	0014      	movs	r4, r2
10001990:	9201      	str	r2, [sp, #4]
10001992:	001e      	movs	r6, r3
10001994:	9302      	str	r3, [sp, #8]
10001996:	f7ff ff6b 	bl	10001870 <time_us_64>
1000199a:	9403      	str	r4, [sp, #12]
1000199c:	428e      	cmp	r6, r1
1000199e:	d802      	bhi.n	100019a6 <hardware_alarm_set_target+0x22>
100019a0:	d14e      	bne.n	10001a40 <hardware_alarm_set_target+0xbc>
100019a2:	4284      	cmp	r4, r0
100019a4:	d94c      	bls.n	10001a40 <hardware_alarm_set_target+0xbc>
100019a6:	f3ef 8b10 	mrs	fp, PRIMASK
100019aa:	b672      	cpsid	i
100019ac:	4b27      	ldr	r3, [pc, #156]	; (10001a4c <hardware_alarm_set_target+0xc8>)
100019ae:	681b      	ldr	r3, [r3, #0]
100019b0:	2b00      	cmp	r3, #0
100019b2:	d0fb      	beq.n	100019ac <hardware_alarm_set_target+0x28>
100019b4:	f3bf 8f5f 	dmb	sy
100019b8:	4a25      	ldr	r2, [pc, #148]	; (10001a50 <hardware_alarm_set_target+0xcc>)
100019ba:	7817      	ldrb	r7, [r2, #0]
100019bc:	2401      	movs	r4, #1
100019be:	40ac      	lsls	r4, r5
100019c0:	b2e3      	uxtb	r3, r4
100019c2:	433b      	orrs	r3, r7
100019c4:	7013      	strb	r3, [r2, #0]
100019c6:	4b23      	ldr	r3, [pc, #140]	; (10001a54 <hardware_alarm_set_target+0xd0>)
100019c8:	635c      	str	r4, [r3, #52]	; 0x34
100019ca:	1d2a      	adds	r2, r5, #4
100019cc:	0092      	lsls	r2, r2, #2
100019ce:	9901      	ldr	r1, [sp, #4]
100019d0:	50d1      	str	r1, [r2, r3]
100019d2:	00aa      	lsls	r2, r5, #2
100019d4:	4920      	ldr	r1, [pc, #128]	; (10001a58 <hardware_alarm_set_target+0xd4>)
100019d6:	9802      	ldr	r0, [sp, #8]
100019d8:	5050      	str	r0, [r2, r1]
100019da:	6a1b      	ldr	r3, [r3, #32]
100019dc:	4223      	tst	r3, r4
100019de:	d112      	bne.n	10001a06 <hardware_alarm_set_target+0x82>
100019e0:	4b1c      	ldr	r3, [pc, #112]	; (10001a54 <hardware_alarm_set_target+0xd0>)
100019e2:	6c1b      	ldr	r3, [r3, #64]	; 0x40
100019e4:	4223      	tst	r3, r4
100019e6:	d008      	beq.n	100019fa <hardware_alarm_set_target+0x76>
100019e8:	2000      	movs	r0, #0
100019ea:	f3bf 8f5f 	dmb	sy
100019ee:	4b17      	ldr	r3, [pc, #92]	; (10001a4c <hardware_alarm_set_target+0xc8>)
100019f0:	2200      	movs	r2, #0
100019f2:	601a      	str	r2, [r3, #0]
100019f4:	f38b 8810 	msr	PRIMASK, fp
100019f8:	e023      	b.n	10001a42 <hardware_alarm_set_target+0xbe>
100019fa:	4b18      	ldr	r3, [pc, #96]	; (10001a5c <hardware_alarm_set_target+0xd8>)
100019fc:	4a18      	ldr	r2, [pc, #96]	; (10001a60 <hardware_alarm_set_target+0xdc>)
100019fe:	21c1      	movs	r1, #193	; 0xc1
10001a00:	4818      	ldr	r0, [pc, #96]	; (10001a64 <hardware_alarm_set_target+0xe0>)
10001a02:	f000 fb39 	bl	10002078 <__assert_func>
10001a06:	f7ff ff33 	bl	10001870 <time_us_64>
10001a0a:	428e      	cmp	r6, r1
10001a0c:	d814      	bhi.n	10001a38 <hardware_alarm_set_target+0xb4>
10001a0e:	d102      	bne.n	10001a16 <hardware_alarm_set_target+0x92>
10001a10:	9b03      	ldr	r3, [sp, #12]
10001a12:	4283      	cmp	r3, r0
10001a14:	d810      	bhi.n	10001a38 <hardware_alarm_set_target+0xb4>
10001a16:	4b0e      	ldr	r3, [pc, #56]	; (10001a50 <hardware_alarm_set_target+0xcc>)
10001a18:	781b      	ldrb	r3, [r3, #0]
10001a1a:	42bb      	cmp	r3, r7
10001a1c:	d00e      	beq.n	10001a3c <hardware_alarm_set_target+0xb8>
10001a1e:	4b0d      	ldr	r3, [pc, #52]	; (10001a54 <hardware_alarm_set_target+0xd0>)
10001a20:	621c      	str	r4, [r3, #32]
10001a22:	635c      	str	r4, [r3, #52]	; 0x34
10001a24:	221f      	movs	r2, #31
10001a26:	402a      	ands	r2, r5
10001a28:	2301      	movs	r3, #1
10001a2a:	4093      	lsls	r3, r2
10001a2c:	4a0e      	ldr	r2, [pc, #56]	; (10001a68 <hardware_alarm_set_target+0xe4>)
10001a2e:	6013      	str	r3, [r2, #0]
10001a30:	4b07      	ldr	r3, [pc, #28]	; (10001a50 <hardware_alarm_set_target+0xcc>)
10001a32:	701f      	strb	r7, [r3, #0]
10001a34:	2001      	movs	r0, #1
10001a36:	e7d8      	b.n	100019ea <hardware_alarm_set_target+0x66>
10001a38:	2000      	movs	r0, #0
10001a3a:	e7d6      	b.n	100019ea <hardware_alarm_set_target+0x66>
10001a3c:	2001      	movs	r0, #1
10001a3e:	e7d4      	b.n	100019ea <hardware_alarm_set_target+0x66>
10001a40:	2001      	movs	r0, #1
10001a42:	b004      	add	sp, #16
10001a44:	bc04      	pop	{r2}
10001a46:	4693      	mov	fp, r2
10001a48:	bdf0      	pop	{r4, r5, r6, r7, pc}
10001a4a:	46c0      	nop			; (mov r8, r8)
10001a4c:	d0000128 	.word	0xd0000128
10001a50:	20001cbc 	.word	0x20001cbc
10001a54:	40054000 	.word	0x40054000
10001a58:	20001ca0 	.word	0x20001ca0
10001a5c:	10009368 	.word	0x10009368
10001a60:	10009328 	.word	0x10009328
10001a64:	1000938c 	.word	0x1000938c
10001a68:	e000e280 	.word	0xe000e280

10001a6c <hardware_alarm_cancel>:
10001a6c:	b510      	push	{r4, lr}
10001a6e:	f3ef 8410 	mrs	r4, PRIMASK
10001a72:	b672      	cpsid	i
10001a74:	4b0a      	ldr	r3, [pc, #40]	; (10001aa0 <hardware_alarm_cancel+0x34>)
10001a76:	681b      	ldr	r3, [r3, #0]
10001a78:	2b00      	cmp	r3, #0
10001a7a:	d0fb      	beq.n	10001a74 <hardware_alarm_cancel+0x8>
10001a7c:	f3bf 8f5f 	dmb	sy
10001a80:	2301      	movs	r3, #1
10001a82:	4083      	lsls	r3, r0
10001a84:	4a07      	ldr	r2, [pc, #28]	; (10001aa4 <hardware_alarm_cancel+0x38>)
10001a86:	6213      	str	r3, [r2, #32]
10001a88:	4907      	ldr	r1, [pc, #28]	; (10001aa8 <hardware_alarm_cancel+0x3c>)
10001a8a:	780a      	ldrb	r2, [r1, #0]
10001a8c:	439a      	bics	r2, r3
10001a8e:	700a      	strb	r2, [r1, #0]
10001a90:	f3bf 8f5f 	dmb	sy
10001a94:	4b02      	ldr	r3, [pc, #8]	; (10001aa0 <hardware_alarm_cancel+0x34>)
10001a96:	2200      	movs	r2, #0
10001a98:	601a      	str	r2, [r3, #0]
10001a9a:	f384 8810 	msr	PRIMASK, r4
10001a9e:	bd10      	pop	{r4, pc}
10001aa0:	d0000128 	.word	0xd0000128
10001aa4:	40054000 	.word	0x40054000
10001aa8:	20001cbc 	.word	0x20001cbc

10001aac <ph_add_child_node>:
10001aac:	b510      	push	{r4, lr}
10001aae:	2900      	cmp	r1, #0
10001ab0:	d01e      	beq.n	10001af0 <ph_add_child_node+0x44>
10001ab2:	7b03      	ldrb	r3, [r0, #12]
10001ab4:	4299      	cmp	r1, r3
10001ab6:	d81b      	bhi.n	10001af0 <ph_add_child_node+0x44>
10001ab8:	004b      	lsls	r3, r1, #1
10001aba:	185b      	adds	r3, r3, r1
10001abc:	3b03      	subs	r3, #3
10001abe:	6804      	ldr	r4, [r0, #0]
10001ac0:	46a4      	mov	ip, r4
10001ac2:	4463      	add	r3, ip
10001ac4:	2900      	cmp	r1, #0
10001ac6:	d019      	beq.n	10001afc <ph_add_child_node+0x50>
10001ac8:	2a00      	cmp	r2, #0
10001aca:	d01d      	beq.n	10001b08 <ph_add_child_node+0x5c>
10001acc:	4291      	cmp	r1, r2
10001ace:	d021      	beq.n	10001b14 <ph_add_child_node+0x68>
10001ad0:	2a00      	cmp	r2, #0
10001ad2:	d025      	beq.n	10001b20 <ph_add_child_node+0x74>
10001ad4:	7b04      	ldrb	r4, [r0, #12]
10001ad6:	42a2      	cmp	r2, r4
10001ad8:	d822      	bhi.n	10001b20 <ph_add_child_node+0x74>
10001ada:	6804      	ldr	r4, [r0, #0]
10001adc:	0050      	lsls	r0, r2, #1
10001ade:	1880      	adds	r0, r0, r2
10001ae0:	3803      	subs	r0, #3
10001ae2:	1820      	adds	r0, r4, r0
10001ae4:	7081      	strb	r1, [r0, #2]
10001ae6:	7819      	ldrb	r1, [r3, #0]
10001ae8:	2900      	cmp	r1, #0
10001aea:	d11f      	bne.n	10001b2c <ph_add_child_node+0x80>
10001aec:	701a      	strb	r2, [r3, #0]
10001aee:	bd10      	pop	{r4, pc}
10001af0:	4b10      	ldr	r3, [pc, #64]	; (10001b34 <ph_add_child_node+0x88>)
10001af2:	4a11      	ldr	r2, [pc, #68]	; (10001b38 <ph_add_child_node+0x8c>)
10001af4:	2168      	movs	r1, #104	; 0x68
10001af6:	4811      	ldr	r0, [pc, #68]	; (10001b3c <ph_add_child_node+0x90>)
10001af8:	f000 fabe 	bl	10002078 <__assert_func>
10001afc:	4b10      	ldr	r3, [pc, #64]	; (10001b40 <ph_add_child_node+0x94>)
10001afe:	4a11      	ldr	r2, [pc, #68]	; (10001b44 <ph_add_child_node+0x98>)
10001b00:	316f      	adds	r1, #111	; 0x6f
10001b02:	480e      	ldr	r0, [pc, #56]	; (10001b3c <ph_add_child_node+0x90>)
10001b04:	f000 fab8 	bl	10002078 <__assert_func>
10001b08:	4b0f      	ldr	r3, [pc, #60]	; (10001b48 <ph_add_child_node+0x9c>)
10001b0a:	4a0e      	ldr	r2, [pc, #56]	; (10001b44 <ph_add_child_node+0x98>)
10001b0c:	2170      	movs	r1, #112	; 0x70
10001b0e:	480b      	ldr	r0, [pc, #44]	; (10001b3c <ph_add_child_node+0x90>)
10001b10:	f000 fab2 	bl	10002078 <__assert_func>
10001b14:	4b0d      	ldr	r3, [pc, #52]	; (10001b4c <ph_add_child_node+0xa0>)
10001b16:	4a0b      	ldr	r2, [pc, #44]	; (10001b44 <ph_add_child_node+0x98>)
10001b18:	2171      	movs	r1, #113	; 0x71
10001b1a:	4808      	ldr	r0, [pc, #32]	; (10001b3c <ph_add_child_node+0x90>)
10001b1c:	f000 faac 	bl	10002078 <__assert_func>
10001b20:	4b04      	ldr	r3, [pc, #16]	; (10001b34 <ph_add_child_node+0x88>)
10001b22:	4a05      	ldr	r2, [pc, #20]	; (10001b38 <ph_add_child_node+0x8c>)
10001b24:	2168      	movs	r1, #104	; 0x68
10001b26:	4805      	ldr	r0, [pc, #20]	; (10001b3c <ph_add_child_node+0x90>)
10001b28:	f000 faa6 	bl	10002078 <__assert_func>
10001b2c:	7041      	strb	r1, [r0, #1]
10001b2e:	701a      	strb	r2, [r3, #0]
10001b30:	e7dd      	b.n	10001aee <ph_add_child_node+0x42>
10001b32:	46c0      	nop			; (mov r8, r8)
10001b34:	100091c8 	.word	0x100091c8
10001b38:	100093d8 	.word	0x100093d8
10001b3c:	100091e4 	.word	0x100091e4
10001b40:	10009238 	.word	0x10009238
10001b44:	100093e4 	.word	0x100093e4
10001b48:	10009244 	.word	0x10009244
10001b4c:	10009250 	.word	0x10009250

10001b50 <ph_merge_nodes>:
10001b50:	b570      	push	{r4, r5, r6, lr}
10001b52:	0006      	movs	r6, r0
10001b54:	000d      	movs	r5, r1
10001b56:	0014      	movs	r4, r2
10001b58:	2900      	cmp	r1, #0
10001b5a:	d014      	beq.n	10001b86 <ph_merge_nodes+0x36>
10001b5c:	2a00      	cmp	r2, #0
10001b5e:	d014      	beq.n	10001b8a <ph_merge_nodes+0x3a>
10001b60:	6880      	ldr	r0, [r0, #8]
10001b62:	6873      	ldr	r3, [r6, #4]
10001b64:	4798      	blx	r3
10001b66:	2800      	cmp	r0, #0
10001b68:	d006      	beq.n	10001b78 <ph_merge_nodes+0x28>
10001b6a:	0022      	movs	r2, r4
10001b6c:	0029      	movs	r1, r5
10001b6e:	0030      	movs	r0, r6
10001b70:	f7ff ff9c 	bl	10001aac <ph_add_child_node>
10001b74:	0028      	movs	r0, r5
10001b76:	e007      	b.n	10001b88 <ph_merge_nodes+0x38>
10001b78:	002a      	movs	r2, r5
10001b7a:	0021      	movs	r1, r4
10001b7c:	0030      	movs	r0, r6
10001b7e:	f7ff ff95 	bl	10001aac <ph_add_child_node>
10001b82:	0020      	movs	r0, r4
10001b84:	e000      	b.n	10001b88 <ph_merge_nodes+0x38>
10001b86:	0010      	movs	r0, r2
10001b88:	bd70      	pop	{r4, r5, r6, pc}
10001b8a:	0008      	movs	r0, r1
10001b8c:	e7fc      	b.n	10001b88 <ph_merge_nodes+0x38>
	...

10001b90 <ph_clear>:
10001b90:	b510      	push	{r4, lr}
10001b92:	2300      	movs	r3, #0
10001b94:	7343      	strb	r3, [r0, #13]
10001b96:	3301      	adds	r3, #1
10001b98:	7383      	strb	r3, [r0, #14]
10001b9a:	7b03      	ldrb	r3, [r0, #12]
10001b9c:	73c3      	strb	r3, [r0, #15]
10001b9e:	2301      	movs	r3, #1
10001ba0:	7b02      	ldrb	r2, [r0, #12]
10001ba2:	429a      	cmp	r2, r3
10001ba4:	d914      	bls.n	10001bd0 <ph_clear+0x40>
10001ba6:	2b00      	cmp	r3, #0
10001ba8:	d00c      	beq.n	10001bc4 <ph_clear+0x34>
10001baa:	7b02      	ldrb	r2, [r0, #12]
10001bac:	4293      	cmp	r3, r2
10001bae:	d809      	bhi.n	10001bc4 <ph_clear+0x34>
10001bb0:	005a      	lsls	r2, r3, #1
10001bb2:	18d2      	adds	r2, r2, r3
10001bb4:	3a03      	subs	r2, #3
10001bb6:	6801      	ldr	r1, [r0, #0]
10001bb8:	468c      	mov	ip, r1
10001bba:	4462      	add	r2, ip
10001bbc:	3301      	adds	r3, #1
10001bbe:	b2db      	uxtb	r3, r3
10001bc0:	7053      	strb	r3, [r2, #1]
10001bc2:	e7ed      	b.n	10001ba0 <ph_clear+0x10>
10001bc4:	4b0b      	ldr	r3, [pc, #44]	; (10001bf4 <ph_clear+0x64>)
10001bc6:	4a0c      	ldr	r2, [pc, #48]	; (10001bf8 <ph_clear+0x68>)
10001bc8:	2168      	movs	r1, #104	; 0x68
10001bca:	480c      	ldr	r0, [pc, #48]	; (10001bfc <ph_clear+0x6c>)
10001bcc:	f000 fa54 	bl	10002078 <__assert_func>
10001bd0:	2a00      	cmp	r2, #0
10001bd2:	d009      	beq.n	10001be8 <ph_clear+0x58>
10001bd4:	4292      	cmp	r2, r2
10001bd6:	d807      	bhi.n	10001be8 <ph_clear+0x58>
10001bd8:	6801      	ldr	r1, [r0, #0]
10001bda:	0053      	lsls	r3, r2, #1
10001bdc:	189a      	adds	r2, r3, r2
10001bde:	3a03      	subs	r2, #3
10001be0:	188a      	adds	r2, r1, r2
10001be2:	2300      	movs	r3, #0
10001be4:	7053      	strb	r3, [r2, #1]
10001be6:	bd10      	pop	{r4, pc}
10001be8:	4b02      	ldr	r3, [pc, #8]	; (10001bf4 <ph_clear+0x64>)
10001bea:	4a03      	ldr	r2, [pc, #12]	; (10001bf8 <ph_clear+0x68>)
10001bec:	2168      	movs	r1, #104	; 0x68
10001bee:	4803      	ldr	r0, [pc, #12]	; (10001bfc <ph_clear+0x6c>)
10001bf0:	f000 fa42 	bl	10002078 <__assert_func>
10001bf4:	100091c8 	.word	0x100091c8
10001bf8:	100093d8 	.word	0x100093d8
10001bfc:	100091e4 	.word	0x100091e4

10001c00 <ph_post_alloc_init>:
10001c00:	b510      	push	{r4, lr}
10001c02:	7301      	strb	r1, [r0, #12]
10001c04:	6042      	str	r2, [r0, #4]
10001c06:	6083      	str	r3, [r0, #8]
10001c08:	f7ff ffc2 	bl	10001b90 <ph_clear>
10001c0c:	bd10      	pop	{r4, pc}
	...

10001c10 <ph_merge_two_pass>:
10001c10:	b570      	push	{r4, r5, r6, lr}
10001c12:	0004      	movs	r4, r0
10001c14:	2900      	cmp	r1, #0
10001c16:	d101      	bne.n	10001c1c <ph_merge_two_pass+0xc>
10001c18:	0008      	movs	r0, r1
10001c1a:	bd70      	pop	{r4, r5, r6, pc}
10001c1c:	2900      	cmp	r1, #0
10001c1e:	d034      	beq.n	10001c8a <ph_merge_two_pass+0x7a>
10001c20:	7b03      	ldrb	r3, [r0, #12]
10001c22:	4299      	cmp	r1, r3
10001c24:	d831      	bhi.n	10001c8a <ph_merge_two_pass+0x7a>
10001c26:	004b      	lsls	r3, r1, #1
10001c28:	185b      	adds	r3, r3, r1
10001c2a:	3b03      	subs	r3, #3
10001c2c:	6802      	ldr	r2, [r0, #0]
10001c2e:	4694      	mov	ip, r2
10001c30:	4463      	add	r3, ip
10001c32:	785a      	ldrb	r2, [r3, #1]
10001c34:	2a00      	cmp	r2, #0
10001c36:	d0ef      	beq.n	10001c18 <ph_merge_two_pass+0x8>
10001c38:	d02d      	beq.n	10001c96 <ph_merge_two_pass+0x86>
10001c3a:	7b03      	ldrb	r3, [r0, #12]
10001c3c:	429a      	cmp	r2, r3
10001c3e:	d82a      	bhi.n	10001c96 <ph_merge_two_pass+0x86>
10001c40:	0053      	lsls	r3, r2, #1
10001c42:	189b      	adds	r3, r3, r2
10001c44:	3b03      	subs	r3, #3
10001c46:	6800      	ldr	r0, [r0, #0]
10001c48:	4684      	mov	ip, r0
10001c4a:	4463      	add	r3, ip
10001c4c:	785d      	ldrb	r5, [r3, #1]
10001c4e:	2000      	movs	r0, #0
10001c50:	7058      	strb	r0, [r3, #1]
10001c52:	2900      	cmp	r1, #0
10001c54:	d025      	beq.n	10001ca2 <ph_merge_two_pass+0x92>
10001c56:	7b23      	ldrb	r3, [r4, #12]
10001c58:	4299      	cmp	r1, r3
10001c5a:	d822      	bhi.n	10001ca2 <ph_merge_two_pass+0x92>
10001c5c:	004b      	lsls	r3, r1, #1
10001c5e:	185b      	adds	r3, r3, r1
10001c60:	3b03      	subs	r3, #3
10001c62:	6820      	ldr	r0, [r4, #0]
10001c64:	4684      	mov	ip, r0
10001c66:	4463      	add	r3, ip
10001c68:	2000      	movs	r0, #0
10001c6a:	7058      	strb	r0, [r3, #1]
10001c6c:	0020      	movs	r0, r4
10001c6e:	f7ff ff6f 	bl	10001b50 <ph_merge_nodes>
10001c72:	0006      	movs	r6, r0
10001c74:	0029      	movs	r1, r5
10001c76:	0020      	movs	r0, r4
10001c78:	f7ff ffca 	bl	10001c10 <ph_merge_two_pass>
10001c7c:	0002      	movs	r2, r0
10001c7e:	0031      	movs	r1, r6
10001c80:	0020      	movs	r0, r4
10001c82:	f7ff ff65 	bl	10001b50 <ph_merge_nodes>
10001c86:	0001      	movs	r1, r0
10001c88:	e7c6      	b.n	10001c18 <ph_merge_two_pass+0x8>
10001c8a:	4b09      	ldr	r3, [pc, #36]	; (10001cb0 <ph_merge_two_pass+0xa0>)
10001c8c:	4a09      	ldr	r2, [pc, #36]	; (10001cb4 <ph_merge_two_pass+0xa4>)
10001c8e:	2168      	movs	r1, #104	; 0x68
10001c90:	4809      	ldr	r0, [pc, #36]	; (10001cb8 <ph_merge_two_pass+0xa8>)
10001c92:	f000 f9f1 	bl	10002078 <__assert_func>
10001c96:	4b06      	ldr	r3, [pc, #24]	; (10001cb0 <ph_merge_two_pass+0xa0>)
10001c98:	4a06      	ldr	r2, [pc, #24]	; (10001cb4 <ph_merge_two_pass+0xa4>)
10001c9a:	2168      	movs	r1, #104	; 0x68
10001c9c:	4806      	ldr	r0, [pc, #24]	; (10001cb8 <ph_merge_two_pass+0xa8>)
10001c9e:	f000 f9eb 	bl	10002078 <__assert_func>
10001ca2:	4b03      	ldr	r3, [pc, #12]	; (10001cb0 <ph_merge_two_pass+0xa0>)
10001ca4:	4a03      	ldr	r2, [pc, #12]	; (10001cb4 <ph_merge_two_pass+0xa4>)
10001ca6:	2168      	movs	r1, #104	; 0x68
10001ca8:	4803      	ldr	r0, [pc, #12]	; (10001cb8 <ph_merge_two_pass+0xa8>)
10001caa:	f000 f9e5 	bl	10002078 <__assert_func>
10001cae:	46c0      	nop			; (mov r8, r8)
10001cb0:	100091c8 	.word	0x100091c8
10001cb4:	100093d8 	.word	0x100093d8
10001cb8:	100091e4 	.word	0x100091e4

10001cbc <ph_remove_any_head>:
10001cbc:	b570      	push	{r4, r5, r6, lr}
10001cbe:	0005      	movs	r5, r0
10001cc0:	000c      	movs	r4, r1
10001cc2:	0016      	movs	r6, r2
10001cc4:	2900      	cmp	r1, #0
10001cc6:	d028      	beq.n	10001d1a <ph_remove_any_head+0x5e>
10001cc8:	d02d      	beq.n	10001d26 <ph_remove_any_head+0x6a>
10001cca:	7b03      	ldrb	r3, [r0, #12]
10001ccc:	4299      	cmp	r1, r3
10001cce:	d82a      	bhi.n	10001d26 <ph_remove_any_head+0x6a>
10001cd0:	004b      	lsls	r3, r1, #1
10001cd2:	185b      	adds	r3, r3, r1
10001cd4:	3b03      	subs	r3, #3
10001cd6:	6802      	ldr	r2, [r0, #0]
10001cd8:	4694      	mov	ip, r2
10001cda:	4463      	add	r3, ip
10001cdc:	785a      	ldrb	r2, [r3, #1]
10001cde:	2a00      	cmp	r2, #0
10001ce0:	d127      	bne.n	10001d32 <ph_remove_any_head+0x76>
10001ce2:	789a      	ldrb	r2, [r3, #2]
10001ce4:	2a00      	cmp	r2, #0
10001ce6:	d12a      	bne.n	10001d3e <ph_remove_any_head+0x82>
10001ce8:	7819      	ldrb	r1, [r3, #0]
10001cea:	f7ff ff91 	bl	10001c10 <ph_merge_two_pass>
10001cee:	0003      	movs	r3, r0
10001cf0:	2e00      	cmp	r6, #0
10001cf2:	d003      	beq.n	10001cfc <ph_remove_any_head+0x40>
10001cf4:	7bea      	ldrb	r2, [r5, #15]
10001cf6:	2a00      	cmp	r2, #0
10001cf8:	d127      	bne.n	10001d4a <ph_remove_any_head+0x8e>
10001cfa:	73ec      	strb	r4, [r5, #15]
10001cfc:	2b00      	cmp	r3, #0
10001cfe:	d137      	bne.n	10001d70 <ph_remove_any_head+0xb4>
10001d00:	2c00      	cmp	r4, #0
10001d02:	d049      	beq.n	10001d98 <ph_remove_any_head+0xdc>
10001d04:	7b2b      	ldrb	r3, [r5, #12]
10001d06:	429c      	cmp	r4, r3
10001d08:	d846      	bhi.n	10001d98 <ph_remove_any_head+0xdc>
10001d0a:	682a      	ldr	r2, [r5, #0]
10001d0c:	0063      	lsls	r3, r4, #1
10001d0e:	191c      	adds	r4, r3, r4
10001d10:	3c03      	subs	r4, #3
10001d12:	1914      	adds	r4, r2, r4
10001d14:	2300      	movs	r3, #0
10001d16:	7063      	strb	r3, [r4, #1]
10001d18:	bd70      	pop	{r4, r5, r6, pc}
10001d1a:	4b22      	ldr	r3, [pc, #136]	; (10001da4 <ph_remove_any_head+0xe8>)
10001d1c:	4a22      	ldr	r2, [pc, #136]	; (10001da8 <ph_remove_any_head+0xec>)
10001d1e:	2138      	movs	r1, #56	; 0x38
10001d20:	4822      	ldr	r0, [pc, #136]	; (10001dac <ph_remove_any_head+0xf0>)
10001d22:	f000 f9a9 	bl	10002078 <__assert_func>
10001d26:	4b22      	ldr	r3, [pc, #136]	; (10001db0 <ph_remove_any_head+0xf4>)
10001d28:	4a22      	ldr	r2, [pc, #136]	; (10001db4 <ph_remove_any_head+0xf8>)
10001d2a:	2168      	movs	r1, #104	; 0x68
10001d2c:	4822      	ldr	r0, [pc, #136]	; (10001db8 <ph_remove_any_head+0xfc>)
10001d2e:	f000 f9a3 	bl	10002078 <__assert_func>
10001d32:	4b22      	ldr	r3, [pc, #136]	; (10001dbc <ph_remove_any_head+0x100>)
10001d34:	4a1c      	ldr	r2, [pc, #112]	; (10001da8 <ph_remove_any_head+0xec>)
10001d36:	213a      	movs	r1, #58	; 0x3a
10001d38:	481c      	ldr	r0, [pc, #112]	; (10001dac <ph_remove_any_head+0xf0>)
10001d3a:	f000 f99d 	bl	10002078 <__assert_func>
10001d3e:	4b20      	ldr	r3, [pc, #128]	; (10001dc0 <ph_remove_any_head+0x104>)
10001d40:	4a19      	ldr	r2, [pc, #100]	; (10001da8 <ph_remove_any_head+0xec>)
10001d42:	213b      	movs	r1, #59	; 0x3b
10001d44:	4819      	ldr	r0, [pc, #100]	; (10001dac <ph_remove_any_head+0xf0>)
10001d46:	f000 f997 	bl	10002078 <__assert_func>
10001d4a:	2a00      	cmp	r2, #0
10001d4c:	d00a      	beq.n	10001d64 <ph_remove_any_head+0xa8>
10001d4e:	7b29      	ldrb	r1, [r5, #12]
10001d50:	428a      	cmp	r2, r1
10001d52:	d807      	bhi.n	10001d64 <ph_remove_any_head+0xa8>
10001d54:	0051      	lsls	r1, r2, #1
10001d56:	188a      	adds	r2, r1, r2
10001d58:	3a03      	subs	r2, #3
10001d5a:	6829      	ldr	r1, [r5, #0]
10001d5c:	468c      	mov	ip, r1
10001d5e:	4462      	add	r2, ip
10001d60:	7054      	strb	r4, [r2, #1]
10001d62:	e7ca      	b.n	10001cfa <ph_remove_any_head+0x3e>
10001d64:	4b12      	ldr	r3, [pc, #72]	; (10001db0 <ph_remove_any_head+0xf4>)
10001d66:	4a13      	ldr	r2, [pc, #76]	; (10001db4 <ph_remove_any_head+0xf8>)
10001d68:	2168      	movs	r1, #104	; 0x68
10001d6a:	4813      	ldr	r0, [pc, #76]	; (10001db8 <ph_remove_any_head+0xfc>)
10001d6c:	f000 f984 	bl	10002078 <__assert_func>
10001d70:	2b00      	cmp	r3, #0
10001d72:	d00b      	beq.n	10001d8c <ph_remove_any_head+0xd0>
10001d74:	7b2a      	ldrb	r2, [r5, #12]
10001d76:	4293      	cmp	r3, r2
10001d78:	d808      	bhi.n	10001d8c <ph_remove_any_head+0xd0>
10001d7a:	0043      	lsls	r3, r0, #1
10001d7c:	181b      	adds	r3, r3, r0
10001d7e:	3b03      	subs	r3, #3
10001d80:	682a      	ldr	r2, [r5, #0]
10001d82:	4694      	mov	ip, r2
10001d84:	4463      	add	r3, ip
10001d86:	2200      	movs	r2, #0
10001d88:	709a      	strb	r2, [r3, #2]
10001d8a:	e7b9      	b.n	10001d00 <ph_remove_any_head+0x44>
10001d8c:	4b08      	ldr	r3, [pc, #32]	; (10001db0 <ph_remove_any_head+0xf4>)
10001d8e:	4a09      	ldr	r2, [pc, #36]	; (10001db4 <ph_remove_any_head+0xf8>)
10001d90:	2168      	movs	r1, #104	; 0x68
10001d92:	4809      	ldr	r0, [pc, #36]	; (10001db8 <ph_remove_any_head+0xfc>)
10001d94:	f000 f970 	bl	10002078 <__assert_func>
10001d98:	4b05      	ldr	r3, [pc, #20]	; (10001db0 <ph_remove_any_head+0xf4>)
10001d9a:	4a06      	ldr	r2, [pc, #24]	; (10001db4 <ph_remove_any_head+0xf8>)
10001d9c:	2168      	movs	r1, #104	; 0x68
10001d9e:	4806      	ldr	r0, [pc, #24]	; (10001db8 <ph_remove_any_head+0xfc>)
10001da0:	f000 f96a 	bl	10002078 <__assert_func>
10001da4:	10009444 	.word	0x10009444
10001da8:	100093f8 	.word	0x100093f8
10001dac:	1000944c 	.word	0x1000944c
10001db0:	100091c8 	.word	0x100091c8
10001db4:	100093d8 	.word	0x100093d8
10001db8:	100091e4 	.word	0x100091e4
10001dbc:	10009490 	.word	0x10009490
10001dc0:	100094b8 	.word	0x100094b8

10001dc4 <ph_remove_head>:
10001dc4:	b570      	push	{r4, r5, r6, lr}
10001dc6:	0004      	movs	r4, r0
10001dc8:	000a      	movs	r2, r1
10001dca:	7b45      	ldrb	r5, [r0, #13]
10001dcc:	0029      	movs	r1, r5
10001dce:	f7ff ff75 	bl	10001cbc <ph_remove_any_head>
10001dd2:	7360      	strb	r0, [r4, #13]
10001dd4:	0028      	movs	r0, r5
10001dd6:	bd70      	pop	{r4, r5, r6, pc}

10001dd8 <ph_remove_and_free_node>:
10001dd8:	b510      	push	{r4, lr}
10001dda:	0004      	movs	r4, r0
10001ddc:	2900      	cmp	r1, #0
10001dde:	d066      	beq.n	10001eae <ph_remove_and_free_node+0xd6>
10001de0:	7b43      	ldrb	r3, [r0, #13]
10001de2:	428b      	cmp	r3, r1
10001de4:	d00e      	beq.n	10001e04 <ph_remove_and_free_node+0x2c>
10001de6:	2900      	cmp	r1, #0
10001de8:	d011      	beq.n	10001e0e <ph_remove_and_free_node+0x36>
10001dea:	7b03      	ldrb	r3, [r0, #12]
10001dec:	4299      	cmp	r1, r3
10001dee:	d80e      	bhi.n	10001e0e <ph_remove_and_free_node+0x36>
10001df0:	004b      	lsls	r3, r1, #1
10001df2:	185b      	adds	r3, r3, r1
10001df4:	3b03      	subs	r3, #3
10001df6:	6802      	ldr	r2, [r0, #0]
10001df8:	18d0      	adds	r0, r2, r3
10001dfa:	7883      	ldrb	r3, [r0, #2]
10001dfc:	2b00      	cmp	r3, #0
10001dfe:	d10c      	bne.n	10001e1a <ph_remove_and_free_node+0x42>
10001e00:	2000      	movs	r0, #0
10001e02:	e055      	b.n	10001eb0 <ph_remove_and_free_node+0xd8>
10001e04:	2101      	movs	r1, #1
10001e06:	f7ff ffdd 	bl	10001dc4 <ph_remove_head>
10001e0a:	2001      	movs	r0, #1
10001e0c:	e050      	b.n	10001eb0 <ph_remove_and_free_node+0xd8>
10001e0e:	4b29      	ldr	r3, [pc, #164]	; (10001eb4 <ph_remove_and_free_node+0xdc>)
10001e10:	4a29      	ldr	r2, [pc, #164]	; (10001eb8 <ph_remove_and_free_node+0xe0>)
10001e12:	2168      	movs	r1, #104	; 0x68
10001e14:	4829      	ldr	r0, [pc, #164]	; (10001ebc <ph_remove_and_free_node+0xe4>)
10001e16:	f000 f92f 	bl	10002078 <__assert_func>
10001e1a:	2b00      	cmp	r3, #0
10001e1c:	d01f      	beq.n	10001e5e <ph_remove_and_free_node+0x86>
10001e1e:	7b22      	ldrb	r2, [r4, #12]
10001e20:	4293      	cmp	r3, r2
10001e22:	d81c      	bhi.n	10001e5e <ph_remove_and_free_node+0x86>
10001e24:	005a      	lsls	r2, r3, #1
10001e26:	18d3      	adds	r3, r2, r3
10001e28:	3b03      	subs	r3, #3
10001e2a:	6822      	ldr	r2, [r4, #0]
10001e2c:	18d2      	adds	r2, r2, r3
10001e2e:	7813      	ldrb	r3, [r2, #0]
10001e30:	428b      	cmp	r3, r1
10001e32:	d01a      	beq.n	10001e6a <ph_remove_and_free_node+0x92>
10001e34:	2b00      	cmp	r3, #0
10001e36:	d01b      	beq.n	10001e70 <ph_remove_and_free_node+0x98>
10001e38:	7b22      	ldrb	r2, [r4, #12]
10001e3a:	4293      	cmp	r3, r2
10001e3c:	d818      	bhi.n	10001e70 <ph_remove_and_free_node+0x98>
10001e3e:	005a      	lsls	r2, r3, #1
10001e40:	18d3      	adds	r3, r2, r3
10001e42:	3b03      	subs	r3, #3
10001e44:	6822      	ldr	r2, [r4, #0]
10001e46:	18d2      	adds	r2, r2, r3
10001e48:	7853      	ldrb	r3, [r2, #1]
10001e4a:	428b      	cmp	r3, r1
10001e4c:	d016      	beq.n	10001e7c <ph_remove_and_free_node+0xa4>
10001e4e:	2b00      	cmp	r3, #0
10001e50:	d1f0      	bne.n	10001e34 <ph_remove_and_free_node+0x5c>
10001e52:	4b1b      	ldr	r3, [pc, #108]	; (10001ec0 <ph_remove_and_free_node+0xe8>)
10001e54:	4a1b      	ldr	r2, [pc, #108]	; (10001ec4 <ph_remove_and_free_node+0xec>)
10001e56:	2167      	movs	r1, #103	; 0x67
10001e58:	481b      	ldr	r0, [pc, #108]	; (10001ec8 <ph_remove_and_free_node+0xf0>)
10001e5a:	f000 f90d 	bl	10002078 <__assert_func>
10001e5e:	4b15      	ldr	r3, [pc, #84]	; (10001eb4 <ph_remove_and_free_node+0xdc>)
10001e60:	4a15      	ldr	r2, [pc, #84]	; (10001eb8 <ph_remove_and_free_node+0xe0>)
10001e62:	2168      	movs	r1, #104	; 0x68
10001e64:	4815      	ldr	r0, [pc, #84]	; (10001ebc <ph_remove_and_free_node+0xe4>)
10001e66:	f000 f907 	bl	10002078 <__assert_func>
10001e6a:	7843      	ldrb	r3, [r0, #1]
10001e6c:	7013      	strb	r3, [r2, #0]
10001e6e:	e007      	b.n	10001e80 <ph_remove_and_free_node+0xa8>
10001e70:	4b10      	ldr	r3, [pc, #64]	; (10001eb4 <ph_remove_and_free_node+0xdc>)
10001e72:	4a11      	ldr	r2, [pc, #68]	; (10001eb8 <ph_remove_and_free_node+0xe0>)
10001e74:	2168      	movs	r1, #104	; 0x68
10001e76:	4811      	ldr	r0, [pc, #68]	; (10001ebc <ph_remove_and_free_node+0xe4>)
10001e78:	f000 f8fe 	bl	10002078 <__assert_func>
10001e7c:	7843      	ldrb	r3, [r0, #1]
10001e7e:	7053      	strb	r3, [r2, #1]
10001e80:	2300      	movs	r3, #0
10001e82:	7083      	strb	r3, [r0, #2]
10001e84:	7043      	strb	r3, [r0, #1]
10001e86:	2201      	movs	r2, #1
10001e88:	0020      	movs	r0, r4
10001e8a:	f7ff ff17 	bl	10001cbc <ph_remove_any_head>
10001e8e:	0002      	movs	r2, r0
10001e90:	7b61      	ldrb	r1, [r4, #13]
10001e92:	4281      	cmp	r1, r0
10001e94:	d005      	beq.n	10001ea2 <ph_remove_and_free_node+0xca>
10001e96:	0020      	movs	r0, r4
10001e98:	f7ff fe5a 	bl	10001b50 <ph_merge_nodes>
10001e9c:	7360      	strb	r0, [r4, #13]
10001e9e:	2001      	movs	r0, #1
10001ea0:	e006      	b.n	10001eb0 <ph_remove_and_free_node+0xd8>
10001ea2:	4b0a      	ldr	r3, [pc, #40]	; (10001ecc <ph_remove_and_free_node+0xf4>)
10001ea4:	4a07      	ldr	r2, [pc, #28]	; (10001ec4 <ph_remove_and_free_node+0xec>)
10001ea6:	216d      	movs	r1, #109	; 0x6d
10001ea8:	4807      	ldr	r0, [pc, #28]	; (10001ec8 <ph_remove_and_free_node+0xf0>)
10001eaa:	f000 f8e5 	bl	10002078 <__assert_func>
10001eae:	2000      	movs	r0, #0
10001eb0:	bd10      	pop	{r4, pc}
10001eb2:	46c0      	nop			; (mov r8, r8)
10001eb4:	100091c8 	.word	0x100091c8
10001eb8:	100093d8 	.word	0x100093d8
10001ebc:	100091e4 	.word	0x100091e4
10001ec0:	10008ed0 	.word	0x10008ed0
10001ec4:	1000940c 	.word	0x1000940c
10001ec8:	1000944c 	.word	0x1000944c
10001ecc:	10009424 	.word	0x10009424

10001ed0 <mutex_init>:
10001ed0:	b510      	push	{r4, lr}
10001ed2:	0004      	movs	r4, r0
10001ed4:	f7fe fcd2 	bl	1000087c <next_striped_spin_lock_num>
10001ed8:	0001      	movs	r1, r0
10001eda:	0020      	movs	r0, r4
10001edc:	f7fe fef0 	bl	10000cc0 <lock_init>
10001ee0:	23ff      	movs	r3, #255	; 0xff
10001ee2:	7123      	strb	r3, [r4, #4]
10001ee4:	f3bf 8f5f 	dmb	sy
10001ee8:	bd10      	pop	{r4, pc}

10001eea <recursive_mutex_init>:
10001eea:	b510      	push	{r4, lr}
10001eec:	0004      	movs	r4, r0
10001eee:	f7fe fcc5 	bl	1000087c <next_striped_spin_lock_num>
10001ef2:	0001      	movs	r1, r0
10001ef4:	0020      	movs	r0, r4
10001ef6:	f7fe fee3 	bl	10000cc0 <lock_init>
10001efa:	23ff      	movs	r3, #255	; 0xff
10001efc:	7123      	strb	r3, [r4, #4]
10001efe:	2300      	movs	r3, #0
10001f00:	7163      	strb	r3, [r4, #5]
10001f02:	f3bf 8f5f 	dmb	sy
10001f06:	bd10      	pop	{r4, pc}

10001f08 <critical_section_init_with_lock_num>:
10001f08:	4b03      	ldr	r3, [pc, #12]	; (10001f18 <critical_section_init_with_lock_num+0x10>)
10001f0a:	469c      	mov	ip, r3
10001f0c:	4461      	add	r1, ip
10001f0e:	0089      	lsls	r1, r1, #2
10001f10:	6001      	str	r1, [r0, #0]
10001f12:	f3bf 8f5f 	dmb	sy
10001f16:	4770      	bx	lr
10001f18:	34000040 	.word	0x34000040

10001f1c <critical_section_init>:
10001f1c:	b510      	push	{r4, lr}
10001f1e:	0004      	movs	r4, r0
10001f20:	2001      	movs	r0, #1
10001f22:	f7fe fcb9 	bl	10000898 <spin_lock_claim_unused>
10001f26:	0001      	movs	r1, r0
10001f28:	0020      	movs	r0, r4
10001f2a:	f7ff ffed 	bl	10001f08 <critical_section_init_with_lock_num>
10001f2e:	bd10      	pop	{r4, pc}

10001f30 <uart_set_baudrate>:
10001f30:	b570      	push	{r4, r5, r6, lr}
10001f32:	0005      	movs	r5, r0
10001f34:	000c      	movs	r4, r1
10001f36:	2006      	movs	r0, #6
10001f38:	f000 fa4e 	bl	100023d8 <clock_get_hz>
10001f3c:	00c0      	lsls	r0, r0, #3
10001f3e:	0021      	movs	r1, r4
10001f40:	f001 fbe0 	bl	10003704 <__wrap___aeabi_uidiv>
10001f44:	09c6      	lsrs	r6, r0, #7
10001f46:	d008      	beq.n	10001f5a <uart_set_baudrate+0x2a>
10001f48:	4b0e      	ldr	r3, [pc, #56]	; (10001f84 <uart_set_baudrate+0x54>)
10001f4a:	429e      	cmp	r6, r3
10001f4c:	d817      	bhi.n	10001f7e <uart_set_baudrate+0x4e>
10001f4e:	237f      	movs	r3, #127	; 0x7f
10001f50:	4018      	ands	r0, r3
10001f52:	3001      	adds	r0, #1
10001f54:	0034      	movs	r4, r6
10001f56:	0846      	lsrs	r6, r0, #1
10001f58:	e000      	b.n	10001f5c <uart_set_baudrate+0x2c>
10001f5a:	2401      	movs	r4, #1
10001f5c:	626c      	str	r4, [r5, #36]	; 0x24
10001f5e:	62ae      	str	r6, [r5, #40]	; 0x28
10001f60:	352c      	adds	r5, #44	; 0x2c
10001f62:	2380      	movs	r3, #128	; 0x80
10001f64:	019b      	lsls	r3, r3, #6
10001f66:	431d      	orrs	r5, r3
10001f68:	2300      	movs	r3, #0
10001f6a:	602b      	str	r3, [r5, #0]
10001f6c:	2006      	movs	r0, #6
10001f6e:	f000 fa33 	bl	100023d8 <clock_get_hz>
10001f72:	0080      	lsls	r0, r0, #2
10001f74:	01a1      	lsls	r1, r4, #6
10001f76:	1989      	adds	r1, r1, r6
10001f78:	f001 fbc4 	bl	10003704 <__wrap___aeabi_uidiv>
10001f7c:	bd70      	pop	{r4, r5, r6, pc}
10001f7e:	2600      	movs	r6, #0
10001f80:	4c01      	ldr	r4, [pc, #4]	; (10001f88 <uart_set_baudrate+0x58>)
10001f82:	e7eb      	b.n	10001f5c <uart_set_baudrate+0x2c>
10001f84:	0000fffe 	.word	0x0000fffe
10001f88:	0000ffff 	.word	0x0000ffff

10001f8c <uart_set_translate_crlf>:
10001f8c:	2900      	cmp	r1, #0
10001f8e:	d009      	beq.n	10001fa4 <uart_set_translate_crlf+0x18>
10001f90:	220a      	movs	r2, #10
10001f92:	4b06      	ldr	r3, [pc, #24]	; (10001fac <uart_set_translate_crlf+0x20>)
10001f94:	469c      	mov	ip, r3
10001f96:	4460      	add	r0, ip
10001f98:	4243      	negs	r3, r0
10001f9a:	4158      	adcs	r0, r3
10001f9c:	0040      	lsls	r0, r0, #1
10001f9e:	4b04      	ldr	r3, [pc, #16]	; (10001fb0 <uart_set_translate_crlf+0x24>)
10001fa0:	52c2      	strh	r2, [r0, r3]
10001fa2:	4770      	bx	lr
10001fa4:	2280      	movs	r2, #128	; 0x80
10001fa6:	0052      	lsls	r2, r2, #1
10001fa8:	e7f3      	b.n	10001f92 <uart_set_translate_crlf+0x6>
10001faa:	46c0      	nop			; (mov r8, r8)
10001fac:	bffc8000 	.word	0xbffc8000
10001fb0:	20001cc0 	.word	0x20001cc0

10001fb4 <uart_init>:
10001fb4:	b570      	push	{r4, r5, r6, lr}
10001fb6:	0005      	movs	r5, r0
10001fb8:	000c      	movs	r4, r1
10001fba:	2006      	movs	r0, #6
10001fbc:	f000 fa0c 	bl	100023d8 <clock_get_hz>
10001fc0:	2800      	cmp	r0, #0
10001fc2:	d029      	beq.n	10002018 <uart_init+0x64>
10001fc4:	4b16      	ldr	r3, [pc, #88]	; (10002020 <uart_init+0x6c>)
10001fc6:	429d      	cmp	r5, r3
10001fc8:	d027      	beq.n	1000201a <uart_init+0x66>
10001fca:	2280      	movs	r2, #128	; 0x80
10001fcc:	03d2      	lsls	r2, r2, #15
10001fce:	4b15      	ldr	r3, [pc, #84]	; (10002024 <uart_init+0x70>)
10001fd0:	601a      	str	r2, [r3, #0]
10001fd2:	4b15      	ldr	r3, [pc, #84]	; (10002028 <uart_init+0x74>)
10001fd4:	601a      	str	r2, [r3, #0]
10001fd6:	4b15      	ldr	r3, [pc, #84]	; (1000202c <uart_init+0x78>)
10001fd8:	689b      	ldr	r3, [r3, #8]
10001fda:	0011      	movs	r1, r2
10001fdc:	4399      	bics	r1, r3
10001fde:	d1fa      	bne.n	10001fd6 <uart_init+0x22>
10001fe0:	2100      	movs	r1, #0
10001fe2:	0028      	movs	r0, r5
10001fe4:	f7ff ffd2 	bl	10001f8c <uart_set_translate_crlf>
10001fe8:	0021      	movs	r1, r4
10001fea:	0028      	movs	r0, r5
10001fec:	f7ff ffa0 	bl	10001f30 <uart_set_baudrate>
10001ff0:	002c      	movs	r4, r5
10001ff2:	342c      	adds	r4, #44	; 0x2c
10001ff4:	6ae9      	ldr	r1, [r5, #44]	; 0x2c
10001ff6:	2260      	movs	r2, #96	; 0x60
10001ff8:	404a      	eors	r2, r1
10001ffa:	216e      	movs	r1, #110	; 0x6e
10001ffc:	4011      	ands	r1, r2
10001ffe:	2280      	movs	r2, #128	; 0x80
10002000:	0152      	lsls	r2, r2, #5
10002002:	4322      	orrs	r2, r4
10002004:	6011      	str	r1, [r2, #0]
10002006:	4b0a      	ldr	r3, [pc, #40]	; (10002030 <uart_init+0x7c>)
10002008:	632b      	str	r3, [r5, #48]	; 0x30
1000200a:	2380      	movs	r3, #128	; 0x80
1000200c:	019b      	lsls	r3, r3, #6
1000200e:	4323      	orrs	r3, r4
10002010:	2210      	movs	r2, #16
10002012:	601a      	str	r2, [r3, #0]
10002014:	2303      	movs	r3, #3
10002016:	64ab      	str	r3, [r5, #72]	; 0x48
10002018:	bd70      	pop	{r4, r5, r6, pc}
1000201a:	2280      	movs	r2, #128	; 0x80
1000201c:	0412      	lsls	r2, r2, #16
1000201e:	e7d6      	b.n	10001fce <uart_init+0x1a>
10002020:	40038000 	.word	0x40038000
10002024:	4000e000 	.word	0x4000e000
10002028:	4000f000 	.word	0x4000f000
1000202c:	4000c000 	.word	0x4000c000
10002030:	00000301 	.word	0x00000301

10002034 <_exit>:
10002034:	be00      	bkpt	0x0000
10002036:	e7fd      	b.n	10002034 <_exit>

10002038 <_sbrk>:
10002038:	0003      	movs	r3, r0
1000203a:	4a0a      	ldr	r2, [pc, #40]	; (10002064 <_sbrk+0x2c>)
1000203c:	6812      	ldr	r2, [r2, #0]
1000203e:	2a00      	cmp	r2, #0
10002040:	d008      	beq.n	10002054 <_sbrk+0x1c>
10002042:	4a08      	ldr	r2, [pc, #32]	; (10002064 <_sbrk+0x2c>)
10002044:	6810      	ldr	r0, [r2, #0]
10002046:	18c3      	adds	r3, r0, r3
10002048:	4a07      	ldr	r2, [pc, #28]	; (10002068 <_sbrk+0x30>)
1000204a:	429a      	cmp	r2, r3
1000204c:	d306      	bcc.n	1000205c <_sbrk+0x24>
1000204e:	4a05      	ldr	r2, [pc, #20]	; (10002064 <_sbrk+0x2c>)
10002050:	6013      	str	r3, [r2, #0]
10002052:	4770      	bx	lr
10002054:	4a03      	ldr	r2, [pc, #12]	; (10002064 <_sbrk+0x2c>)
10002056:	4905      	ldr	r1, [pc, #20]	; (1000206c <_sbrk+0x34>)
10002058:	6011      	str	r1, [r2, #0]
1000205a:	e7f2      	b.n	10002042 <_sbrk+0xa>
1000205c:	2001      	movs	r0, #1
1000205e:	4240      	negs	r0, r0
10002060:	e7f7      	b.n	10002052 <_sbrk+0x1a>
10002062:	46c0      	nop			; (mov r8, r8)
10002064:	20001bc4 	.word	0x20001bc4
10002068:	20040000 	.word	0x20040000
1000206c:	20002118 	.word	0x20002118

10002070 <exit>:
10002070:	b510      	push	{r4, lr}
10002072:	f7ff ffdf 	bl	10002034 <_exit>
	...

10002078 <__assert_func>:
10002078:	b510      	push	{r4, lr}
1000207a:	b082      	sub	sp, #8
1000207c:	000c      	movs	r4, r1
1000207e:	0019      	movs	r1, r3
10002080:	2a00      	cmp	r2, #0
10002082:	d00c      	beq.n	1000209e <__assert_func+0x26>
10002084:	4b08      	ldr	r3, [pc, #32]	; (100020a8 <__assert_func+0x30>)
10002086:	2a00      	cmp	r2, #0
10002088:	d00b      	beq.n	100020a2 <__assert_func+0x2a>
1000208a:	9201      	str	r2, [sp, #4]
1000208c:	9300      	str	r3, [sp, #0]
1000208e:	0023      	movs	r3, r4
10002090:	0002      	movs	r2, r0
10002092:	4806      	ldr	r0, [pc, #24]	; (100020ac <__assert_func+0x34>)
10002094:	f002 fbec 	bl	10004870 <__wrap_printf>
10002098:	2001      	movs	r0, #1
1000209a:	f7ff ffcb 	bl	10002034 <_exit>
1000209e:	4b04      	ldr	r3, [pc, #16]	; (100020b0 <__assert_func+0x38>)
100020a0:	e7f1      	b.n	10002086 <__assert_func+0xe>
100020a2:	4a03      	ldr	r2, [pc, #12]	; (100020b0 <__assert_func+0x38>)
100020a4:	e7f1      	b.n	1000208a <__assert_func+0x12>
100020a6:	46c0      	nop			; (mov r8, r8)
100020a8:	100095b0 	.word	0x100095b0
100020ac:	100095c0 	.word	0x100095c0
100020b0:	10008c64 	.word	0x10008c64

100020b4 <runtime_init>:
100020b4:	b570      	push	{r4, r5, r6, lr}
100020b6:	4b2b      	ldr	r3, [pc, #172]	; (10002164 <runtime_init+0xb0>)
100020b8:	4a2b      	ldr	r2, [pc, #172]	; (10002168 <runtime_init+0xb4>)
100020ba:	601a      	str	r2, [r3, #0]
100020bc:	4b2b      	ldr	r3, [pc, #172]	; (1000216c <runtime_init+0xb8>)
100020be:	4a2c      	ldr	r2, [pc, #176]	; (10002170 <runtime_init+0xbc>)
100020c0:	601a      	str	r2, [r3, #0]
100020c2:	4b2c      	ldr	r3, [pc, #176]	; (10002174 <runtime_init+0xc0>)
100020c4:	689a      	ldr	r2, [r3, #8]
100020c6:	4b2a      	ldr	r3, [pc, #168]	; (10002170 <runtime_init+0xbc>)
100020c8:	4393      	bics	r3, r2
100020ca:	d1fa      	bne.n	100020c2 <runtime_init+0xe>
100020cc:	4c2a      	ldr	r4, [pc, #168]	; (10002178 <runtime_init+0xc4>)
100020ce:	e001      	b.n	100020d4 <runtime_init+0x20>
100020d0:	cc08      	ldmia	r4!, {r3}
100020d2:	4798      	blx	r3
100020d4:	4b29      	ldr	r3, [pc, #164]	; (1000217c <runtime_init+0xc8>)
100020d6:	429c      	cmp	r4, r3
100020d8:	d3fa      	bcc.n	100020d0 <runtime_init+0x1c>
100020da:	f000 f8fd 	bl	100022d8 <clocks_init>
100020de:	4b23      	ldr	r3, [pc, #140]	; (1000216c <runtime_init+0xb8>)
100020e0:	4a27      	ldr	r2, [pc, #156]	; (10002180 <runtime_init+0xcc>)
100020e2:	601a      	str	r2, [r3, #0]
100020e4:	4b23      	ldr	r3, [pc, #140]	; (10002174 <runtime_init+0xc0>)
100020e6:	689b      	ldr	r3, [r3, #8]
100020e8:	43db      	mvns	r3, r3
100020ea:	01db      	lsls	r3, r3, #7
100020ec:	d1fa      	bne.n	100020e4 <runtime_init+0x30>
100020ee:	4b25      	ldr	r3, [pc, #148]	; (10002184 <runtime_init+0xd0>)
100020f0:	2240      	movs	r2, #64	; 0x40
100020f2:	679a      	str	r2, [r3, #120]	; 0x78
100020f4:	675a      	str	r2, [r3, #116]	; 0x74
100020f6:	671a      	str	r2, [r3, #112]	; 0x70
100020f8:	66da      	str	r2, [r3, #108]	; 0x6c
100020fa:	4c23      	ldr	r4, [pc, #140]	; (10002188 <runtime_init+0xd4>)
100020fc:	e009      	b.n	10002112 <runtime_init+0x5e>
100020fe:	4b23      	ldr	r3, [pc, #140]	; (1000218c <runtime_init+0xd8>)
10002100:	4a23      	ldr	r2, [pc, #140]	; (10002190 <runtime_init+0xdc>)
10002102:	2183      	movs	r1, #131	; 0x83
10002104:	4823      	ldr	r0, [pc, #140]	; (10002194 <runtime_init+0xe0>)
10002106:	f7ff ffb7 	bl	10002078 <__assert_func>
1000210a:	0020      	movs	r0, r4
1000210c:	f7ff fee0 	bl	10001ed0 <mutex_init>
10002110:	3408      	adds	r4, #8
10002112:	4b21      	ldr	r3, [pc, #132]	; (10002198 <runtime_init+0xe4>)
10002114:	429c      	cmp	r4, r3
10002116:	d209      	bcs.n	1000212c <runtime_init+0x78>
10002118:	6823      	ldr	r3, [r4, #0]
1000211a:	2b00      	cmp	r3, #0
1000211c:	d0f5      	beq.n	1000210a <runtime_init+0x56>
1000211e:	2b01      	cmp	r3, #1
10002120:	d1ed      	bne.n	100020fe <runtime_init+0x4a>
10002122:	0020      	movs	r0, r4
10002124:	f7ff fee1 	bl	10001eea <recursive_mutex_init>
10002128:	3408      	adds	r4, #8
1000212a:	e7f2      	b.n	10002112 <runtime_init+0x5e>
1000212c:	4c1b      	ldr	r4, [pc, #108]	; (1000219c <runtime_init+0xe8>)
1000212e:	68a1      	ldr	r1, [r4, #8]
10002130:	4d1b      	ldr	r5, [pc, #108]	; (100021a0 <runtime_init+0xec>)
10002132:	22c0      	movs	r2, #192	; 0xc0
10002134:	0028      	movs	r0, r5
10002136:	f002 f9e9 	bl	1000450c <__wrap___aeabi_memcpy>
1000213a:	60a5      	str	r5, [r4, #8]
1000213c:	f7fe f893 	bl	10000266 <__get_current_exception>
10002140:	2800      	cmp	r0, #0
10002142:	d000      	beq.n	10002146 <runtime_init+0x92>
10002144:	be00      	bkpt	0x0000
10002146:	f7fe fb89 	bl	1000085c <spin_locks_reset>
1000214a:	f7fe fdab 	bl	10000ca4 <irq_init_priorities>
1000214e:	f7ff f8fb 	bl	10001348 <alarm_pool_init_default>
10002152:	4c14      	ldr	r4, [pc, #80]	; (100021a4 <runtime_init+0xf0>)
10002154:	e001      	b.n	1000215a <runtime_init+0xa6>
10002156:	cc08      	ldmia	r4!, {r3}
10002158:	4798      	blx	r3
1000215a:	4b13      	ldr	r3, [pc, #76]	; (100021a8 <runtime_init+0xf4>)
1000215c:	429c      	cmp	r4, r3
1000215e:	d3fa      	bcc.n	10002156 <runtime_init+0xa2>
10002160:	bd70      	pop	{r4, r5, r6, pc}
10002162:	46c0      	nop			; (mov r8, r8)
10002164:	4000e000 	.word	0x4000e000
10002168:	fefbcdbf 	.word	0xfefbcdbf
1000216c:	4000f000 	.word	0x4000f000
10002170:	003c7ffe 	.word	0x003c7ffe
10002174:	4000c000 	.word	0x4000c000
10002178:	20000be8 	.word	0x20000be8
1000217c:	20000bf8 	.word	0x20000bf8
10002180:	01ffffff 	.word	0x01ffffff
10002184:	4001f000 	.word	0x4001f000
10002188:	20000be0 	.word	0x20000be0
1000218c:	10009610 	.word	0x10009610
10002190:	100095f0 	.word	0x100095f0
10002194:	10009630 	.word	0x10009630
10002198:	20000be8 	.word	0x20000be8
1000219c:	e000ed00 	.word	0xe000ed00
100021a0:	20000000 	.word	0x20000000
100021a4:	20000bf8 	.word	0x20000bf8
100021a8:	20000bfc 	.word	0x20000bfc

100021ac <panic>:
100021ac:	b40f      	push	{r0, r1, r2, r3}
100021ae:	b500      	push	{lr}
100021b0:	b083      	sub	sp, #12
100021b2:	4808      	ldr	r0, [pc, #32]	; (100021d4 <panic+0x28>)
100021b4:	f002 fb2a 	bl	1000480c <__wrap_puts>
100021b8:	9b04      	ldr	r3, [sp, #16]
100021ba:	2b00      	cmp	r3, #0
100021bc:	d007      	beq.n	100021ce <panic+0x22>
100021be:	a905      	add	r1, sp, #20
100021c0:	9101      	str	r1, [sp, #4]
100021c2:	0018      	movs	r0, r3
100021c4:	f002 fb32 	bl	1000482c <__wrap_vprintf>
100021c8:	4803      	ldr	r0, [pc, #12]	; (100021d8 <panic+0x2c>)
100021ca:	f002 fb1f 	bl	1000480c <__wrap_puts>
100021ce:	2001      	movs	r0, #1
100021d0:	f7ff ff30 	bl	10002034 <_exit>
100021d4:	10009600 	.word	0x10009600
100021d8:	10008b04 	.word	0x10008b04

100021dc <clock_configure>:
100021dc:	b5f0      	push	{r4, r5, r6, r7, lr}
100021de:	46de      	mov	lr, fp
100021e0:	4657      	mov	r7, sl
100021e2:	b580      	push	{r7, lr}
100021e4:	b083      	sub	sp, #12
100021e6:	0007      	movs	r7, r0
100021e8:	000e      	movs	r6, r1
100021ea:	4692      	mov	sl, r2
100021ec:	9a0a      	ldr	r2, [sp, #40]	; 0x28
100021ee:	4293      	cmp	r3, r2
100021f0:	d34c      	bcc.n	1000228c <clock_configure+0xb0>
100021f2:	0e19      	lsrs	r1, r3, #24
100021f4:	9101      	str	r1, [sp, #4]
100021f6:	021b      	lsls	r3, r3, #8
100021f8:	0018      	movs	r0, r3
100021fa:	9300      	str	r3, [sp, #0]
100021fc:	9a0a      	ldr	r2, [sp, #40]	; 0x28
100021fe:	2300      	movs	r3, #0
10002200:	f001 fac2 	bl	10003788 <__wrap___aeabi_uldivmod>
10002204:	0005      	movs	r5, r0
10002206:	007b      	lsls	r3, r7, #1
10002208:	19db      	adds	r3, r3, r7
1000220a:	009c      	lsls	r4, r3, #2
1000220c:	4b2d      	ldr	r3, [pc, #180]	; (100022c4 <clock_configure+0xe8>)
1000220e:	469c      	mov	ip, r3
10002210:	4464      	add	r4, ip
10002212:	6863      	ldr	r3, [r4, #4]
10002214:	4283      	cmp	r3, r0
10002216:	d200      	bcs.n	1000221a <clock_configure+0x3e>
10002218:	6060      	str	r0, [r4, #4]
1000221a:	1f3b      	subs	r3, r7, #4
1000221c:	b2db      	uxtb	r3, r3
1000221e:	469b      	mov	fp, r3
10002220:	2b01      	cmp	r3, #1
10002222:	d939      	bls.n	10002298 <clock_configure+0xbc>
10002224:	23c0      	movs	r3, #192	; 0xc0
10002226:	019b      	lsls	r3, r3, #6
10002228:	4323      	orrs	r3, r4
1000222a:	2280      	movs	r2, #128	; 0x80
1000222c:	0112      	lsls	r2, r2, #4
1000222e:	601a      	str	r2, [r3, #0]
10002230:	00bb      	lsls	r3, r7, #2
10002232:	4a25      	ldr	r2, [pc, #148]	; (100022c8 <clock_configure+0xec>)
10002234:	5899      	ldr	r1, [r3, r2]
10002236:	2900      	cmp	r1, #0
10002238:	d005      	beq.n	10002246 <clock_configure+0x6a>
1000223a:	6950      	ldr	r0, [r2, #20]
1000223c:	f001 fa62 	bl	10003704 <__wrap___aeabi_uidiv>
10002240:	3001      	adds	r0, #1
10002242:	3801      	subs	r0, #1
10002244:	d1fd      	bne.n	10002242 <clock_configure+0x66>
10002246:	4653      	mov	r3, sl
10002248:	015b      	lsls	r3, r3, #5
1000224a:	6822      	ldr	r2, [r4, #0]
1000224c:	4053      	eors	r3, r2
1000224e:	22e0      	movs	r2, #224	; 0xe0
10002250:	4013      	ands	r3, r2
10002252:	2280      	movs	r2, #128	; 0x80
10002254:	0152      	lsls	r2, r2, #5
10002256:	4322      	orrs	r2, r4
10002258:	6013      	str	r3, [r2, #0]
1000225a:	465b      	mov	r3, fp
1000225c:	2b01      	cmp	r3, #1
1000225e:	d926      	bls.n	100022ae <clock_configure+0xd2>
10002260:	2380      	movs	r3, #128	; 0x80
10002262:	019b      	lsls	r3, r3, #6
10002264:	4323      	orrs	r3, r4
10002266:	2280      	movs	r2, #128	; 0x80
10002268:	0112      	lsls	r2, r2, #4
1000226a:	601a      	str	r2, [r3, #0]
1000226c:	6065      	str	r5, [r4, #4]
1000226e:	002a      	movs	r2, r5
10002270:	2300      	movs	r3, #0
10002272:	9800      	ldr	r0, [sp, #0]
10002274:	9901      	ldr	r1, [sp, #4]
10002276:	f001 fa87 	bl	10003788 <__wrap___aeabi_uldivmod>
1000227a:	00bf      	lsls	r7, r7, #2
1000227c:	4b12      	ldr	r3, [pc, #72]	; (100022c8 <clock_configure+0xec>)
1000227e:	50f8      	str	r0, [r7, r3]
10002280:	2001      	movs	r0, #1
10002282:	b003      	add	sp, #12
10002284:	bc0c      	pop	{r2, r3}
10002286:	4692      	mov	sl, r2
10002288:	469b      	mov	fp, r3
1000228a:	bdf0      	pop	{r4, r5, r6, r7, pc}
1000228c:	4b0f      	ldr	r3, [pc, #60]	; (100022cc <clock_configure+0xf0>)
1000228e:	4a10      	ldr	r2, [pc, #64]	; (100022d0 <clock_configure+0xf4>)
10002290:	212d      	movs	r1, #45	; 0x2d
10002292:	4810      	ldr	r0, [pc, #64]	; (100022d4 <clock_configure+0xf8>)
10002294:	f7ff fef0 	bl	10002078 <__assert_func>
10002298:	2e01      	cmp	r6, #1
1000229a:	d1c3      	bne.n	10002224 <clock_configure+0x48>
1000229c:	23c0      	movs	r3, #192	; 0xc0
1000229e:	019b      	lsls	r3, r3, #6
100022a0:	4323      	orrs	r3, r4
100022a2:	2203      	movs	r2, #3
100022a4:	601a      	str	r2, [r3, #0]
100022a6:	68a3      	ldr	r3, [r4, #8]
100022a8:	07db      	lsls	r3, r3, #31
100022aa:	d5fc      	bpl.n	100022a6 <clock_configure+0xca>
100022ac:	e7cb      	b.n	10002246 <clock_configure+0x6a>
100022ae:	6821      	ldr	r1, [r4, #0]
100022b0:	4071      	eors	r1, r6
100022b2:	2303      	movs	r3, #3
100022b4:	400b      	ands	r3, r1
100022b6:	6013      	str	r3, [r2, #0]
100022b8:	68a3      	ldr	r3, [r4, #8]
100022ba:	2201      	movs	r2, #1
100022bc:	40b2      	lsls	r2, r6
100022be:	421a      	tst	r2, r3
100022c0:	d0fa      	beq.n	100022b8 <clock_configure+0xdc>
100022c2:	e7cd      	b.n	10002260 <clock_configure+0x84>
100022c4:	40008000 	.word	0x40008000
100022c8:	20001914 	.word	0x20001914
100022cc:	1000968c 	.word	0x1000968c
100022d0:	1000967c 	.word	0x1000967c
100022d4:	100096a0 	.word	0x100096a0

100022d8 <clocks_init>:
100022d8:	b530      	push	{r4, r5, lr}
100022da:	b083      	sub	sp, #12
100022dc:	200c      	movs	r0, #12
100022de:	f000 f921 	bl	10002524 <watchdog_start_tick>
100022e2:	f7fe fab1 	bl	10000848 <running_on_fpga>
100022e6:	2800      	cmp	r0, #0
100022e8:	d00d      	beq.n	10002306 <clocks_init+0x2e>
100022ea:	2300      	movs	r3, #0
100022ec:	2b09      	cmp	r3, #9
100022ee:	d805      	bhi.n	100022fc <clocks_init+0x24>
100022f0:	0099      	lsls	r1, r3, #2
100022f2:	4a2d      	ldr	r2, [pc, #180]	; (100023a8 <clocks_init+0xd0>)
100022f4:	482d      	ldr	r0, [pc, #180]	; (100023ac <clocks_init+0xd4>)
100022f6:	5088      	str	r0, [r1, r2]
100022f8:	3301      	adds	r3, #1
100022fa:	e7f7      	b.n	100022ec <clocks_init+0x14>
100022fc:	4b2a      	ldr	r3, [pc, #168]	; (100023a8 <clocks_init+0xd0>)
100022fe:	4a2c      	ldr	r2, [pc, #176]	; (100023b0 <clocks_init+0xd8>)
10002300:	625a      	str	r2, [r3, #36]	; 0x24
10002302:	b003      	add	sp, #12
10002304:	bd30      	pop	{r4, r5, pc}
10002306:	4b2b      	ldr	r3, [pc, #172]	; (100023b4 <clocks_init+0xdc>)
10002308:	2200      	movs	r2, #0
1000230a:	679a      	str	r2, [r3, #120]	; 0x78
1000230c:	f000 f912 	bl	10002534 <xosc_init>
10002310:	4b29      	ldr	r3, [pc, #164]	; (100023b8 <clocks_init+0xe0>)
10002312:	2201      	movs	r2, #1
10002314:	601a      	str	r2, [r3, #0]
10002316:	4b27      	ldr	r3, [pc, #156]	; (100023b4 <clocks_init+0xdc>)
10002318:	6c5b      	ldr	r3, [r3, #68]	; 0x44
1000231a:	2b01      	cmp	r3, #1
1000231c:	d1fb      	bne.n	10002316 <clocks_init+0x3e>
1000231e:	4b27      	ldr	r3, [pc, #156]	; (100023bc <clocks_init+0xe4>)
10002320:	2203      	movs	r2, #3
10002322:	601a      	str	r2, [r3, #0]
10002324:	4b23      	ldr	r3, [pc, #140]	; (100023b4 <clocks_init+0xdc>)
10002326:	6b9b      	ldr	r3, [r3, #56]	; 0x38
10002328:	2b01      	cmp	r3, #1
1000232a:	d1fb      	bne.n	10002324 <clocks_init+0x4c>
1000232c:	3301      	adds	r3, #1
1000232e:	9300      	str	r3, [sp, #0]
10002330:	3304      	adds	r3, #4
10002332:	4a23      	ldr	r2, [pc, #140]	; (100023c0 <clocks_init+0xe8>)
10002334:	2101      	movs	r1, #1
10002336:	4823      	ldr	r0, [pc, #140]	; (100023c4 <clocks_init+0xec>)
10002338:	f000 f854 	bl	100023e4 <pll_init>
1000233c:	2305      	movs	r3, #5
1000233e:	9300      	str	r3, [sp, #0]
10002340:	4a21      	ldr	r2, [pc, #132]	; (100023c8 <clocks_init+0xf0>)
10002342:	2101      	movs	r1, #1
10002344:	4821      	ldr	r0, [pc, #132]	; (100023cc <clocks_init+0xf4>)
10002346:	f000 f84d 	bl	100023e4 <pll_init>
1000234a:	4b21      	ldr	r3, [pc, #132]	; (100023d0 <clocks_init+0xf8>)
1000234c:	9300      	str	r3, [sp, #0]
1000234e:	2200      	movs	r2, #0
10002350:	2102      	movs	r1, #2
10002352:	2004      	movs	r0, #4
10002354:	f7ff ff42 	bl	100021dc <clock_configure>
10002358:	4d1e      	ldr	r5, [pc, #120]	; (100023d4 <clocks_init+0xfc>)
1000235a:	9500      	str	r5, [sp, #0]
1000235c:	002b      	movs	r3, r5
1000235e:	2200      	movs	r2, #0
10002360:	2101      	movs	r1, #1
10002362:	2005      	movs	r0, #5
10002364:	f7ff ff3a 	bl	100021dc <clock_configure>
10002368:	4c10      	ldr	r4, [pc, #64]	; (100023ac <clocks_init+0xd4>)
1000236a:	9400      	str	r4, [sp, #0]
1000236c:	0023      	movs	r3, r4
1000236e:	2200      	movs	r2, #0
10002370:	2100      	movs	r1, #0
10002372:	2007      	movs	r0, #7
10002374:	f7ff ff32 	bl	100021dc <clock_configure>
10002378:	9400      	str	r4, [sp, #0]
1000237a:	0023      	movs	r3, r4
1000237c:	2200      	movs	r2, #0
1000237e:	2100      	movs	r1, #0
10002380:	2008      	movs	r0, #8
10002382:	f7ff ff2b 	bl	100021dc <clock_configure>
10002386:	4b0a      	ldr	r3, [pc, #40]	; (100023b0 <clocks_init+0xd8>)
10002388:	9300      	str	r3, [sp, #0]
1000238a:	0023      	movs	r3, r4
1000238c:	2200      	movs	r2, #0
1000238e:	2100      	movs	r1, #0
10002390:	2009      	movs	r0, #9
10002392:	f7ff ff23 	bl	100021dc <clock_configure>
10002396:	9500      	str	r5, [sp, #0]
10002398:	002b      	movs	r3, r5
1000239a:	2200      	movs	r2, #0
1000239c:	2100      	movs	r1, #0
1000239e:	2006      	movs	r0, #6
100023a0:	f7ff ff1c 	bl	100021dc <clock_configure>
100023a4:	e7ad      	b.n	10002302 <clocks_init+0x2a>
100023a6:	46c0      	nop			; (mov r8, r8)
100023a8:	20001914 	.word	0x20001914
100023ac:	02dc6c00 	.word	0x02dc6c00
100023b0:	0000b71b 	.word	0x0000b71b
100023b4:	40008000 	.word	0x40008000
100023b8:	4000b03c 	.word	0x4000b03c
100023bc:	4000b030 	.word	0x4000b030
100023c0:	59682f00 	.word	0x59682f00
100023c4:	40028000 	.word	0x40028000
100023c8:	47868c00 	.word	0x47868c00
100023cc:	4002c000 	.word	0x4002c000
100023d0:	00b71b00 	.word	0x00b71b00
100023d4:	07735940 	.word	0x07735940

100023d8 <clock_get_hz>:
100023d8:	0080      	lsls	r0, r0, #2
100023da:	4b01      	ldr	r3, [pc, #4]	; (100023e0 <clock_get_hz+0x8>)
100023dc:	58c0      	ldr	r0, [r0, r3]
100023de:	4770      	bx	lr
100023e0:	20001914 	.word	0x20001914

100023e4 <pll_init>:
100023e4:	b5f0      	push	{r4, r5, r6, r7, lr}
100023e6:	b083      	sub	sp, #12
100023e8:	0005      	movs	r5, r0
100023ea:	9101      	str	r1, [sp, #4]
100023ec:	0014      	movs	r4, r2
100023ee:	001f      	movs	r7, r3
100023f0:	200c      	movs	r0, #12
100023f2:	f001 f987 	bl	10003704 <__wrap___aeabi_uidiv>
100023f6:	0006      	movs	r6, r0
100023f8:	4b3d      	ldr	r3, [pc, #244]	; (100024f0 <pll_init+0x10c>)
100023fa:	18e2      	adds	r2, r4, r3
100023fc:	4b3d      	ldr	r3, [pc, #244]	; (100024f4 <pll_init+0x110>)
100023fe:	429a      	cmp	r2, r3
10002400:	d842      	bhi.n	10002488 <pll_init+0xa4>
10002402:	0142      	lsls	r2, r0, #5
10002404:	1a12      	subs	r2, r2, r0
10002406:	0193      	lsls	r3, r2, #6
10002408:	1a9b      	subs	r3, r3, r2
1000240a:	00db      	lsls	r3, r3, #3
1000240c:	181b      	adds	r3, r3, r0
1000240e:	0199      	lsls	r1, r3, #6
10002410:	0020      	movs	r0, r4
10002412:	f001 f977 	bl	10003704 <__wrap___aeabi_uidiv>
10002416:	0002      	movs	r2, r0
10002418:	3a10      	subs	r2, #16
1000241a:	2398      	movs	r3, #152	; 0x98
1000241c:	005b      	lsls	r3, r3, #1
1000241e:	429a      	cmp	r2, r3
10002420:	d838      	bhi.n	10002494 <pll_init+0xb0>
10002422:	1e7b      	subs	r3, r7, #1
10002424:	2b06      	cmp	r3, #6
10002426:	d83b      	bhi.n	100024a0 <pll_init+0xbc>
10002428:	9b08      	ldr	r3, [sp, #32]
1000242a:	3b01      	subs	r3, #1
1000242c:	2b06      	cmp	r3, #6
1000242e:	d837      	bhi.n	100024a0 <pll_init+0xbc>
10002430:	9b08      	ldr	r3, [sp, #32]
10002432:	429f      	cmp	r7, r3
10002434:	d33a      	bcc.n	100024ac <pll_init+0xc8>
10002436:	0923      	lsrs	r3, r4, #4
10002438:	42b3      	cmp	r3, r6
1000243a:	d33d      	bcc.n	100024b8 <pll_init+0xd4>
1000243c:	043f      	lsls	r7, r7, #16
1000243e:	9b08      	ldr	r3, [sp, #32]
10002440:	031e      	lsls	r6, r3, #12
10002442:	433e      	orrs	r6, r7
10002444:	682b      	ldr	r3, [r5, #0]
10002446:	2b00      	cmp	r3, #0
10002448:	db3c      	blt.n	100024c4 <pll_init+0xe0>
1000244a:	4b2b      	ldr	r3, [pc, #172]	; (100024f8 <pll_init+0x114>)
1000244c:	429d      	cmp	r5, r3
1000244e:	d04b      	beq.n	100024e8 <pll_init+0x104>
10002450:	2180      	movs	r1, #128	; 0x80
10002452:	0149      	lsls	r1, r1, #5
10002454:	4b29      	ldr	r3, [pc, #164]	; (100024fc <pll_init+0x118>)
10002456:	6019      	str	r1, [r3, #0]
10002458:	4b29      	ldr	r3, [pc, #164]	; (10002500 <pll_init+0x11c>)
1000245a:	6019      	str	r1, [r3, #0]
1000245c:	4a29      	ldr	r2, [pc, #164]	; (10002504 <pll_init+0x120>)
1000245e:	6892      	ldr	r2, [r2, #8]
10002460:	000b      	movs	r3, r1
10002462:	4393      	bics	r3, r2
10002464:	d1fa      	bne.n	1000245c <pll_init+0x78>
10002466:	9b01      	ldr	r3, [sp, #4]
10002468:	602b      	str	r3, [r5, #0]
1000246a:	60a8      	str	r0, [r5, #8]
1000246c:	1d2a      	adds	r2, r5, #4
1000246e:	23c0      	movs	r3, #192	; 0xc0
10002470:	019b      	lsls	r3, r3, #6
10002472:	4313      	orrs	r3, r2
10002474:	2221      	movs	r2, #33	; 0x21
10002476:	601a      	str	r2, [r3, #0]
10002478:	682a      	ldr	r2, [r5, #0]
1000247a:	2a00      	cmp	r2, #0
1000247c:	dafc      	bge.n	10002478 <pll_init+0x94>
1000247e:	60ee      	str	r6, [r5, #12]
10002480:	2208      	movs	r2, #8
10002482:	601a      	str	r2, [r3, #0]
10002484:	b003      	add	sp, #12
10002486:	bdf0      	pop	{r4, r5, r6, r7, pc}
10002488:	4b1f      	ldr	r3, [pc, #124]	; (10002508 <pll_init+0x124>)
1000248a:	4a20      	ldr	r2, [pc, #128]	; (1000250c <pll_init+0x128>)
1000248c:	2111      	movs	r1, #17
1000248e:	4820      	ldr	r0, [pc, #128]	; (10002510 <pll_init+0x12c>)
10002490:	f7ff fdf2 	bl	10002078 <__assert_func>
10002494:	4b1f      	ldr	r3, [pc, #124]	; (10002514 <pll_init+0x130>)
10002496:	4a1d      	ldr	r2, [pc, #116]	; (1000250c <pll_init+0x128>)
10002498:	2119      	movs	r1, #25
1000249a:	481d      	ldr	r0, [pc, #116]	; (10002510 <pll_init+0x12c>)
1000249c:	f7ff fdec 	bl	10002078 <__assert_func>
100024a0:	4b1d      	ldr	r3, [pc, #116]	; (10002518 <pll_init+0x134>)
100024a2:	4a1a      	ldr	r2, [pc, #104]	; (1000250c <pll_init+0x128>)
100024a4:	211c      	movs	r1, #28
100024a6:	481a      	ldr	r0, [pc, #104]	; (10002510 <pll_init+0x12c>)
100024a8:	f7ff fde6 	bl	10002078 <__assert_func>
100024ac:	4b1b      	ldr	r3, [pc, #108]	; (1000251c <pll_init+0x138>)
100024ae:	4a17      	ldr	r2, [pc, #92]	; (1000250c <pll_init+0x128>)
100024b0:	2122      	movs	r1, #34	; 0x22
100024b2:	4817      	ldr	r0, [pc, #92]	; (10002510 <pll_init+0x12c>)
100024b4:	f7ff fde0 	bl	10002078 <__assert_func>
100024b8:	4b19      	ldr	r3, [pc, #100]	; (10002520 <pll_init+0x13c>)
100024ba:	4a14      	ldr	r2, [pc, #80]	; (1000250c <pll_init+0x128>)
100024bc:	2125      	movs	r1, #37	; 0x25
100024be:	4814      	ldr	r0, [pc, #80]	; (10002510 <pll_init+0x12c>)
100024c0:	f7ff fdda 	bl	10002078 <__assert_func>
100024c4:	682a      	ldr	r2, [r5, #0]
100024c6:	233f      	movs	r3, #63	; 0x3f
100024c8:	4013      	ands	r3, r2
100024ca:	9a01      	ldr	r2, [sp, #4]
100024cc:	4293      	cmp	r3, r2
100024ce:	d1bc      	bne.n	1000244a <pll_init+0x66>
100024d0:	68ab      	ldr	r3, [r5, #8]
100024d2:	051b      	lsls	r3, r3, #20
100024d4:	0d1b      	lsrs	r3, r3, #20
100024d6:	4283      	cmp	r3, r0
100024d8:	d1b7      	bne.n	1000244a <pll_init+0x66>
100024da:	68eb      	ldr	r3, [r5, #12]
100024dc:	22ee      	movs	r2, #238	; 0xee
100024de:	02d2      	lsls	r2, r2, #11
100024e0:	4013      	ands	r3, r2
100024e2:	42b3      	cmp	r3, r6
100024e4:	d1b1      	bne.n	1000244a <pll_init+0x66>
100024e6:	e7cd      	b.n	10002484 <pll_init+0xa0>
100024e8:	2180      	movs	r1, #128	; 0x80
100024ea:	0189      	lsls	r1, r1, #6
100024ec:	e7b2      	b.n	10002454 <pll_init+0x70>
100024ee:	46c0      	nop			; (mov r8, r8)
100024f0:	d34be880 	.word	0xd34be880
100024f4:	32a9f880 	.word	0x32a9f880
100024f8:	4002c000 	.word	0x4002c000
100024fc:	4000e000 	.word	0x4000e000
10002500:	4000f000 	.word	0x4000f000
10002504:	4000c000 	.word	0x4000c000
10002508:	100096fc 	.word	0x100096fc
1000250c:	100096f0 	.word	0x100096f0
10002510:	1000975c 	.word	0x1000975c
10002514:	100097a4 	.word	0x100097a4
10002518:	100097c0 	.word	0x100097c0
1000251c:	1000980c 	.word	0x1000980c
10002520:	10009824 	.word	0x10009824

10002524 <watchdog_start_tick>:
10002524:	2380      	movs	r3, #128	; 0x80
10002526:	009b      	lsls	r3, r3, #2
10002528:	4303      	orrs	r3, r0
1000252a:	4a01      	ldr	r2, [pc, #4]	; (10002530 <watchdog_start_tick+0xc>)
1000252c:	62d3      	str	r3, [r2, #44]	; 0x2c
1000252e:	4770      	bx	lr
10002530:	40058000 	.word	0x40058000

10002534 <xosc_init>:
10002534:	4b06      	ldr	r3, [pc, #24]	; (10002550 <xosc_init+0x1c>)
10002536:	22aa      	movs	r2, #170	; 0xaa
10002538:	0112      	lsls	r2, r2, #4
1000253a:	601a      	str	r2, [r3, #0]
1000253c:	222f      	movs	r2, #47	; 0x2f
1000253e:	60da      	str	r2, [r3, #12]
10002540:	4b04      	ldr	r3, [pc, #16]	; (10002554 <xosc_init+0x20>)
10002542:	4a05      	ldr	r2, [pc, #20]	; (10002558 <xosc_init+0x24>)
10002544:	601a      	str	r2, [r3, #0]
10002546:	4b02      	ldr	r3, [pc, #8]	; (10002550 <xosc_init+0x1c>)
10002548:	685b      	ldr	r3, [r3, #4]
1000254a:	2b00      	cmp	r3, #0
1000254c:	dafb      	bge.n	10002546 <xosc_init+0x12>
1000254e:	4770      	bx	lr
10002550:	40024000 	.word	0x40024000
10002554:	40026000 	.word	0x40026000
10002558:	00fab000 	.word	0x00fab000

1000255c <_out_null>:
1000255c:	4770      	bx	lr

1000255e <_out_fct>:
1000255e:	b510      	push	{r4, lr}
10002560:	2800      	cmp	r0, #0
10002562:	d002      	beq.n	1000256a <_out_fct+0xc>
10002564:	680b      	ldr	r3, [r1, #0]
10002566:	6849      	ldr	r1, [r1, #4]
10002568:	4798      	blx	r3
1000256a:	bd10      	pop	{r4, pc}

1000256c <_atoi>:
1000256c:	b510      	push	{r4, lr}
1000256e:	0004      	movs	r4, r0
10002570:	2300      	movs	r3, #0
10002572:	6821      	ldr	r1, [r4, #0]
10002574:	780a      	ldrb	r2, [r1, #0]
10002576:	3a30      	subs	r2, #48	; 0x30
10002578:	b2d2      	uxtb	r2, r2
1000257a:	2a09      	cmp	r2, #9
1000257c:	d808      	bhi.n	10002590 <_atoi+0x24>
1000257e:	0098      	lsls	r0, r3, #2
10002580:	18c3      	adds	r3, r0, r3
10002582:	0058      	lsls	r0, r3, #1
10002584:	1c4b      	adds	r3, r1, #1
10002586:	6023      	str	r3, [r4, #0]
10002588:	780b      	ldrb	r3, [r1, #0]
1000258a:	181b      	adds	r3, r3, r0
1000258c:	3b30      	subs	r3, #48	; 0x30
1000258e:	e7f0      	b.n	10002572 <_atoi+0x6>
10002590:	0018      	movs	r0, r3
10002592:	bd10      	pop	{r4, pc}

10002594 <_out_rev>:
10002594:	b5f0      	push	{r4, r5, r6, r7, lr}
10002596:	46d6      	mov	lr, sl
10002598:	464f      	mov	r7, r9
1000259a:	4646      	mov	r6, r8
1000259c:	b5c0      	push	{r6, r7, lr}
1000259e:	b082      	sub	sp, #8
100025a0:	0005      	movs	r5, r0
100025a2:	9100      	str	r1, [sp, #0]
100025a4:	4690      	mov	r8, r2
100025a6:	9301      	str	r3, [sp, #4]
100025a8:	9b0a      	ldr	r3, [sp, #40]	; 0x28
100025aa:	4699      	mov	r9, r3
100025ac:	9c0b      	ldr	r4, [sp, #44]	; 0x2c
100025ae:	9e0c      	ldr	r6, [sp, #48]	; 0x30
100025b0:	9b0d      	ldr	r3, [sp, #52]	; 0x34
100025b2:	079b      	lsls	r3, r3, #30
100025b4:	d00c      	beq.n	100025d0 <_out_rev+0x3c>
100025b6:	464e      	mov	r6, r9
100025b8:	9b0c      	ldr	r3, [sp, #48]	; 0x30
100025ba:	4699      	mov	r9, r3
100025bc:	2c00      	cmp	r4, #0
100025be:	d019      	beq.n	100025f4 <_out_rev+0x60>
100025c0:	3c01      	subs	r4, #1
100025c2:	1c57      	adds	r7, r2, #1
100025c4:	5d30      	ldrb	r0, [r6, r4]
100025c6:	9b01      	ldr	r3, [sp, #4]
100025c8:	9900      	ldr	r1, [sp, #0]
100025ca:	47a8      	blx	r5
100025cc:	003a      	movs	r2, r7
100025ce:	e7f5      	b.n	100025bc <_out_rev+0x28>
100025d0:	0027      	movs	r7, r4
100025d2:	46a2      	mov	sl, r4
100025d4:	42b7      	cmp	r7, r6
100025d6:	d207      	bcs.n	100025e8 <_out_rev+0x54>
100025d8:	1c54      	adds	r4, r2, #1
100025da:	9b01      	ldr	r3, [sp, #4]
100025dc:	9900      	ldr	r1, [sp, #0]
100025de:	2020      	movs	r0, #32
100025e0:	47a8      	blx	r5
100025e2:	3701      	adds	r7, #1
100025e4:	0022      	movs	r2, r4
100025e6:	e7f5      	b.n	100025d4 <_out_rev+0x40>
100025e8:	4654      	mov	r4, sl
100025ea:	960c      	str	r6, [sp, #48]	; 0x30
100025ec:	464e      	mov	r6, r9
100025ee:	9b0c      	ldr	r3, [sp, #48]	; 0x30
100025f0:	4699      	mov	r9, r3
100025f2:	e7e3      	b.n	100025bc <_out_rev+0x28>
100025f4:	464e      	mov	r6, r9
100025f6:	9b0d      	ldr	r3, [sp, #52]	; 0x34
100025f8:	079b      	lsls	r3, r3, #30
100025fa:	d406      	bmi.n	1000260a <_out_rev+0x76>
100025fc:	0010      	movs	r0, r2
100025fe:	b002      	add	sp, #8
10002600:	bc1c      	pop	{r2, r3, r4}
10002602:	4690      	mov	r8, r2
10002604:	4699      	mov	r9, r3
10002606:	46a2      	mov	sl, r4
10002608:	bdf0      	pop	{r4, r5, r6, r7, pc}
1000260a:	4647      	mov	r7, r8
1000260c:	1bd3      	subs	r3, r2, r7
1000260e:	42b3      	cmp	r3, r6
10002610:	d2f4      	bcs.n	100025fc <_out_rev+0x68>
10002612:	1c54      	adds	r4, r2, #1
10002614:	9b01      	ldr	r3, [sp, #4]
10002616:	9900      	ldr	r1, [sp, #0]
10002618:	2020      	movs	r0, #32
1000261a:	47a8      	blx	r5
1000261c:	0022      	movs	r2, r4
1000261e:	e7f5      	b.n	1000260c <_out_rev+0x78>

10002620 <_ntoa_format>:
10002620:	b5f0      	push	{r4, r5, r6, r7, lr}
10002622:	46ce      	mov	lr, r9
10002624:	b500      	push	{lr}
10002626:	b086      	sub	sp, #24
10002628:	9204      	str	r2, [sp, #16]
1000262a:	9305      	str	r3, [sp, #20]
1000262c:	9d0c      	ldr	r5, [sp, #48]	; 0x30
1000262e:	9c0d      	ldr	r4, [sp, #52]	; 0x34
10002630:	ae0e      	add	r6, sp, #56	; 0x38
10002632:	7833      	ldrb	r3, [r6, #0]
10002634:	4699      	mov	r9, r3
10002636:	9f10      	ldr	r7, [sp, #64]	; 0x40
10002638:	9b11      	ldr	r3, [sp, #68]	; 0x44
1000263a:	9e12      	ldr	r6, [sp, #72]	; 0x48
1000263c:	07b2      	lsls	r2, r6, #30
1000263e:	d41b      	bmi.n	10002678 <_ntoa_format+0x58>
10002640:	2b00      	cmp	r3, #0
10002642:	d008      	beq.n	10002656 <_ntoa_format+0x36>
10002644:	07f2      	lsls	r2, r6, #31
10002646:	d506      	bpl.n	10002656 <_ntoa_format+0x36>
10002648:	464a      	mov	r2, r9
1000264a:	2a00      	cmp	r2, #0
1000264c:	d102      	bne.n	10002654 <_ntoa_format+0x34>
1000264e:	320c      	adds	r2, #12
10002650:	4232      	tst	r2, r6
10002652:	d000      	beq.n	10002656 <_ntoa_format+0x36>
10002654:	3b01      	subs	r3, #1
10002656:	42bc      	cmp	r4, r7
10002658:	d208      	bcs.n	1000266c <_ntoa_format+0x4c>
1000265a:	2c1f      	cmp	r4, #31
1000265c:	d806      	bhi.n	1000266c <_ntoa_format+0x4c>
1000265e:	2230      	movs	r2, #48	; 0x30
10002660:	552a      	strb	r2, [r5, r4]
10002662:	3401      	adds	r4, #1
10002664:	e7f7      	b.n	10002656 <_ntoa_format+0x36>
10002666:	2230      	movs	r2, #48	; 0x30
10002668:	552a      	strb	r2, [r5, r4]
1000266a:	3401      	adds	r4, #1
1000266c:	07f2      	lsls	r2, r6, #31
1000266e:	d503      	bpl.n	10002678 <_ntoa_format+0x58>
10002670:	429c      	cmp	r4, r3
10002672:	d201      	bcs.n	10002678 <_ntoa_format+0x58>
10002674:	2c1f      	cmp	r4, #31
10002676:	d9f6      	bls.n	10002666 <_ntoa_format+0x46>
10002678:	06f2      	lsls	r2, r6, #27
1000267a:	d515      	bpl.n	100026a8 <_ntoa_format+0x88>
1000267c:	0572      	lsls	r2, r6, #21
1000267e:	d405      	bmi.n	1000268c <_ntoa_format+0x6c>
10002680:	2c00      	cmp	r4, #0
10002682:	d003      	beq.n	1000268c <_ntoa_format+0x6c>
10002684:	42bc      	cmp	r4, r7
10002686:	d023      	beq.n	100026d0 <_ntoa_format+0xb0>
10002688:	429c      	cmp	r4, r3
1000268a:	d021      	beq.n	100026d0 <_ntoa_format+0xb0>
1000268c:	9a0f      	ldr	r2, [sp, #60]	; 0x3c
1000268e:	2a10      	cmp	r2, #16
10002690:	d02a      	beq.n	100026e8 <_ntoa_format+0xc8>
10002692:	9a0f      	ldr	r2, [sp, #60]	; 0x3c
10002694:	2a10      	cmp	r2, #16
10002696:	d02f      	beq.n	100026f8 <_ntoa_format+0xd8>
10002698:	9a0f      	ldr	r2, [sp, #60]	; 0x3c
1000269a:	2a02      	cmp	r2, #2
1000269c:	d034      	beq.n	10002708 <_ntoa_format+0xe8>
1000269e:	2c1f      	cmp	r4, #31
100026a0:	d802      	bhi.n	100026a8 <_ntoa_format+0x88>
100026a2:	2730      	movs	r7, #48	; 0x30
100026a4:	552f      	strb	r7, [r5, r4]
100026a6:	3401      	adds	r4, #1
100026a8:	2c1f      	cmp	r4, #31
100026aa:	d805      	bhi.n	100026b8 <_ntoa_format+0x98>
100026ac:	464a      	mov	r2, r9
100026ae:	2a00      	cmp	r2, #0
100026b0:	d030      	beq.n	10002714 <_ntoa_format+0xf4>
100026b2:	272d      	movs	r7, #45	; 0x2d
100026b4:	552f      	strb	r7, [r5, r4]
100026b6:	3401      	adds	r4, #1
100026b8:	9603      	str	r6, [sp, #12]
100026ba:	9302      	str	r3, [sp, #8]
100026bc:	9401      	str	r4, [sp, #4]
100026be:	9500      	str	r5, [sp, #0]
100026c0:	9b05      	ldr	r3, [sp, #20]
100026c2:	9a04      	ldr	r2, [sp, #16]
100026c4:	f7ff ff66 	bl	10002594 <_out_rev>
100026c8:	b006      	add	sp, #24
100026ca:	bc04      	pop	{r2}
100026cc:	4691      	mov	r9, r2
100026ce:	bdf0      	pop	{r4, r5, r6, r7, pc}
100026d0:	1e67      	subs	r7, r4, #1
100026d2:	2f00      	cmp	r7, #0
100026d4:	d006      	beq.n	100026e4 <_ntoa_format+0xc4>
100026d6:	9a0f      	ldr	r2, [sp, #60]	; 0x3c
100026d8:	2a10      	cmp	r2, #16
100026da:	d001      	beq.n	100026e0 <_ntoa_format+0xc0>
100026dc:	003c      	movs	r4, r7
100026de:	e7d5      	b.n	1000268c <_ntoa_format+0x6c>
100026e0:	3c02      	subs	r4, #2
100026e2:	e7d3      	b.n	1000268c <_ntoa_format+0x6c>
100026e4:	003c      	movs	r4, r7
100026e6:	e7d1      	b.n	1000268c <_ntoa_format+0x6c>
100026e8:	06b2      	lsls	r2, r6, #26
100026ea:	d4d2      	bmi.n	10002692 <_ntoa_format+0x72>
100026ec:	2c1f      	cmp	r4, #31
100026ee:	d8d0      	bhi.n	10002692 <_ntoa_format+0x72>
100026f0:	2778      	movs	r7, #120	; 0x78
100026f2:	552f      	strb	r7, [r5, r4]
100026f4:	3401      	adds	r4, #1
100026f6:	e7d2      	b.n	1000269e <_ntoa_format+0x7e>
100026f8:	06b2      	lsls	r2, r6, #26
100026fa:	d5cd      	bpl.n	10002698 <_ntoa_format+0x78>
100026fc:	2c1f      	cmp	r4, #31
100026fe:	d8cb      	bhi.n	10002698 <_ntoa_format+0x78>
10002700:	2758      	movs	r7, #88	; 0x58
10002702:	552f      	strb	r7, [r5, r4]
10002704:	3401      	adds	r4, #1
10002706:	e7ca      	b.n	1000269e <_ntoa_format+0x7e>
10002708:	2c1f      	cmp	r4, #31
1000270a:	d8c8      	bhi.n	1000269e <_ntoa_format+0x7e>
1000270c:	2762      	movs	r7, #98	; 0x62
1000270e:	552f      	strb	r7, [r5, r4]
10002710:	3401      	adds	r4, #1
10002712:	e7c4      	b.n	1000269e <_ntoa_format+0x7e>
10002714:	0772      	lsls	r2, r6, #29
10002716:	d503      	bpl.n	10002720 <_ntoa_format+0x100>
10002718:	272b      	movs	r7, #43	; 0x2b
1000271a:	552f      	strb	r7, [r5, r4]
1000271c:	3401      	adds	r4, #1
1000271e:	e7cb      	b.n	100026b8 <_ntoa_format+0x98>
10002720:	0732      	lsls	r2, r6, #28
10002722:	d5c9      	bpl.n	100026b8 <_ntoa_format+0x98>
10002724:	2720      	movs	r7, #32
10002726:	552f      	strb	r7, [r5, r4]
10002728:	3401      	adds	r4, #1
1000272a:	e7c5      	b.n	100026b8 <_ntoa_format+0x98>

1000272c <_ntoa_long>:
1000272c:	b5f0      	push	{r4, r5, r6, r7, lr}
1000272e:	46ce      	mov	lr, r9
10002730:	4647      	mov	r7, r8
10002732:	b580      	push	{r7, lr}
10002734:	b095      	sub	sp, #84	; 0x54
10002736:	9008      	str	r0, [sp, #32]
10002738:	9109      	str	r1, [sp, #36]	; 0x24
1000273a:	920a      	str	r2, [sp, #40]	; 0x28
1000273c:	930b      	str	r3, [sp, #44]	; 0x2c
1000273e:	ab1c      	add	r3, sp, #112	; 0x70
10002740:	cb10      	ldmia	r3!, {r4}
10002742:	781b      	ldrb	r3, [r3, #0]
10002744:	4698      	mov	r8, r3
10002746:	9d1e      	ldr	r5, [sp, #120]	; 0x78
10002748:	9b21      	ldr	r3, [sp, #132]	; 0x84
1000274a:	4699      	mov	r9, r3
1000274c:	2c00      	cmp	r4, #0
1000274e:	d103      	bne.n	10002758 <_ntoa_long+0x2c>
10002750:	2310      	movs	r3, #16
10002752:	464a      	mov	r2, r9
10002754:	439a      	bics	r2, r3
10002756:	4691      	mov	r9, r2
10002758:	2780      	movs	r7, #128	; 0x80
1000275a:	00ff      	lsls	r7, r7, #3
1000275c:	464b      	mov	r3, r9
1000275e:	401f      	ands	r7, r3
10002760:	d018      	beq.n	10002794 <_ntoa_long+0x68>
10002762:	2c00      	cmp	r4, #0
10002764:	d022      	beq.n	100027ac <_ntoa_long+0x80>
10002766:	2700      	movs	r7, #0
10002768:	e014      	b.n	10002794 <_ntoa_long+0x68>
1000276a:	464a      	mov	r2, r9
1000276c:	0692      	lsls	r2, r2, #26
1000276e:	d51b      	bpl.n	100027a8 <_ntoa_long+0x7c>
10002770:	2141      	movs	r1, #65	; 0x41
10002772:	18c9      	adds	r1, r1, r3
10002774:	b2c9      	uxtb	r1, r1
10002776:	390a      	subs	r1, #10
10002778:	b2c9      	uxtb	r1, r1
1000277a:	1c7e      	adds	r6, r7, #1
1000277c:	ab0c      	add	r3, sp, #48	; 0x30
1000277e:	55d9      	strb	r1, [r3, r7]
10002780:	0029      	movs	r1, r5
10002782:	0020      	movs	r0, r4
10002784:	f000 ffbe 	bl	10003704 <__wrap___aeabi_uidiv>
10002788:	42ac      	cmp	r4, r5
1000278a:	d310      	bcc.n	100027ae <_ntoa_long+0x82>
1000278c:	2e1f      	cmp	r6, #31
1000278e:	d80e      	bhi.n	100027ae <_ntoa_long+0x82>
10002790:	0037      	movs	r7, r6
10002792:	0004      	movs	r4, r0
10002794:	0029      	movs	r1, r5
10002796:	0020      	movs	r0, r4
10002798:	f000 ffb4 	bl	10003704 <__wrap___aeabi_uidiv>
1000279c:	b2cb      	uxtb	r3, r1
1000279e:	2b09      	cmp	r3, #9
100027a0:	d8e3      	bhi.n	1000276a <_ntoa_long+0x3e>
100027a2:	3330      	adds	r3, #48	; 0x30
100027a4:	b2d9      	uxtb	r1, r3
100027a6:	e7e8      	b.n	1000277a <_ntoa_long+0x4e>
100027a8:	2161      	movs	r1, #97	; 0x61
100027aa:	e7e2      	b.n	10002772 <_ntoa_long+0x46>
100027ac:	0026      	movs	r6, r4
100027ae:	464b      	mov	r3, r9
100027b0:	9306      	str	r3, [sp, #24]
100027b2:	9b20      	ldr	r3, [sp, #128]	; 0x80
100027b4:	9305      	str	r3, [sp, #20]
100027b6:	9b1f      	ldr	r3, [sp, #124]	; 0x7c
100027b8:	9304      	str	r3, [sp, #16]
100027ba:	9503      	str	r5, [sp, #12]
100027bc:	4643      	mov	r3, r8
100027be:	9302      	str	r3, [sp, #8]
100027c0:	9601      	str	r6, [sp, #4]
100027c2:	ab0c      	add	r3, sp, #48	; 0x30
100027c4:	9300      	str	r3, [sp, #0]
100027c6:	9b0b      	ldr	r3, [sp, #44]	; 0x2c
100027c8:	9a0a      	ldr	r2, [sp, #40]	; 0x28
100027ca:	9909      	ldr	r1, [sp, #36]	; 0x24
100027cc:	9808      	ldr	r0, [sp, #32]
100027ce:	f7ff ff27 	bl	10002620 <_ntoa_format>
100027d2:	b015      	add	sp, #84	; 0x54
100027d4:	bc0c      	pop	{r2, r3}
100027d6:	4690      	mov	r8, r2
100027d8:	4699      	mov	r9, r3
100027da:	bdf0      	pop	{r4, r5, r6, r7, pc}

100027dc <_ntoa_long_long>:
100027dc:	b5f0      	push	{r4, r5, r6, r7, lr}
100027de:	46de      	mov	lr, fp
100027e0:	4657      	mov	r7, sl
100027e2:	b580      	push	{r7, lr}
100027e4:	b097      	sub	sp, #92	; 0x5c
100027e6:	900a      	str	r0, [sp, #40]	; 0x28
100027e8:	910b      	str	r1, [sp, #44]	; 0x2c
100027ea:	920c      	str	r2, [sp, #48]	; 0x30
100027ec:	930d      	str	r3, [sp, #52]	; 0x34
100027ee:	9a1e      	ldr	r2, [sp, #120]	; 0x78
100027f0:	9208      	str	r2, [sp, #32]
100027f2:	9c1f      	ldr	r4, [sp, #124]	; 0x7c
100027f4:	ab20      	add	r3, sp, #128	; 0x80
100027f6:	781b      	ldrb	r3, [r3, #0]
100027f8:	469b      	mov	fp, r3
100027fa:	9b22      	ldr	r3, [sp, #136]	; 0x88
100027fc:	9309      	str	r3, [sp, #36]	; 0x24
100027fe:	9d23      	ldr	r5, [sp, #140]	; 0x8c
10002800:	9b26      	ldr	r3, [sp, #152]	; 0x98
10002802:	469a      	mov	sl, r3
10002804:	4322      	orrs	r2, r4
10002806:	1e13      	subs	r3, r2, #0
10002808:	d103      	bne.n	10002812 <_ntoa_long_long+0x36>
1000280a:	3310      	adds	r3, #16
1000280c:	4652      	mov	r2, sl
1000280e:	439a      	bics	r2, r3
10002810:	4692      	mov	sl, r2
10002812:	2680      	movs	r6, #128	; 0x80
10002814:	00f6      	lsls	r6, r6, #3
10002816:	4653      	mov	r3, sl
10002818:	401e      	ands	r6, r3
1000281a:	d006      	beq.n	1000282a <_ntoa_long_long+0x4e>
1000281c:	9a08      	ldr	r2, [sp, #32]
1000281e:	0013      	movs	r3, r2
10002820:	4323      	orrs	r3, r4
10002822:	d033      	beq.n	1000288c <_ntoa_long_long+0xb0>
10002824:	2600      	movs	r6, #0
10002826:	0037      	movs	r7, r6
10002828:	e01a      	b.n	10002860 <_ntoa_long_long+0x84>
1000282a:	0037      	movs	r7, r6
1000282c:	e018      	b.n	10002860 <_ntoa_long_long+0x84>
1000282e:	4652      	mov	r2, sl
10002830:	0692      	lsls	r2, r2, #26
10002832:	d521      	bpl.n	10002878 <_ntoa_long_long+0x9c>
10002834:	2241      	movs	r2, #65	; 0x41
10002836:	18d2      	adds	r2, r2, r3
10002838:	b2d2      	uxtb	r2, r2
1000283a:	3a0a      	subs	r2, #10
1000283c:	b2d2      	uxtb	r2, r2
1000283e:	1c7e      	adds	r6, r7, #1
10002840:	ab0e      	add	r3, sp, #56	; 0x38
10002842:	55da      	strb	r2, [r3, r7]
10002844:	9a09      	ldr	r2, [sp, #36]	; 0x24
10002846:	002b      	movs	r3, r5
10002848:	9808      	ldr	r0, [sp, #32]
1000284a:	0021      	movs	r1, r4
1000284c:	f000 ff9c 	bl	10003788 <__wrap___aeabi_uldivmod>
10002850:	42a5      	cmp	r5, r4
10002852:	d81d      	bhi.n	10002890 <_ntoa_long_long+0xb4>
10002854:	d012      	beq.n	1000287c <_ntoa_long_long+0xa0>
10002856:	2e1f      	cmp	r6, #31
10002858:	d816      	bhi.n	10002888 <_ntoa_long_long+0xac>
1000285a:	0037      	movs	r7, r6
1000285c:	9008      	str	r0, [sp, #32]
1000285e:	000c      	movs	r4, r1
10002860:	9a09      	ldr	r2, [sp, #36]	; 0x24
10002862:	002b      	movs	r3, r5
10002864:	9808      	ldr	r0, [sp, #32]
10002866:	0021      	movs	r1, r4
10002868:	f000 ff8e 	bl	10003788 <__wrap___aeabi_uldivmod>
1000286c:	b2d3      	uxtb	r3, r2
1000286e:	2b09      	cmp	r3, #9
10002870:	d8dd      	bhi.n	1000282e <_ntoa_long_long+0x52>
10002872:	3330      	adds	r3, #48	; 0x30
10002874:	b2da      	uxtb	r2, r3
10002876:	e7e2      	b.n	1000283e <_ntoa_long_long+0x62>
10002878:	2261      	movs	r2, #97	; 0x61
1000287a:	e7dc      	b.n	10002836 <_ntoa_long_long+0x5a>
1000287c:	9b09      	ldr	r3, [sp, #36]	; 0x24
1000287e:	9a08      	ldr	r2, [sp, #32]
10002880:	4293      	cmp	r3, r2
10002882:	d9e8      	bls.n	10002856 <_ntoa_long_long+0x7a>
10002884:	0037      	movs	r7, r6
10002886:	e004      	b.n	10002892 <_ntoa_long_long+0xb6>
10002888:	0037      	movs	r7, r6
1000288a:	e002      	b.n	10002892 <_ntoa_long_long+0xb6>
1000288c:	2700      	movs	r7, #0
1000288e:	e000      	b.n	10002892 <_ntoa_long_long+0xb6>
10002890:	0037      	movs	r7, r6
10002892:	4653      	mov	r3, sl
10002894:	9306      	str	r3, [sp, #24]
10002896:	9b25      	ldr	r3, [sp, #148]	; 0x94
10002898:	9305      	str	r3, [sp, #20]
1000289a:	9b24      	ldr	r3, [sp, #144]	; 0x90
1000289c:	9304      	str	r3, [sp, #16]
1000289e:	9b09      	ldr	r3, [sp, #36]	; 0x24
100028a0:	9303      	str	r3, [sp, #12]
100028a2:	465b      	mov	r3, fp
100028a4:	9302      	str	r3, [sp, #8]
100028a6:	9701      	str	r7, [sp, #4]
100028a8:	ab0e      	add	r3, sp, #56	; 0x38
100028aa:	9300      	str	r3, [sp, #0]
100028ac:	9b0d      	ldr	r3, [sp, #52]	; 0x34
100028ae:	9a0c      	ldr	r2, [sp, #48]	; 0x30
100028b0:	990b      	ldr	r1, [sp, #44]	; 0x2c
100028b2:	980a      	ldr	r0, [sp, #40]	; 0x28
100028b4:	f7ff feb4 	bl	10002620 <_ntoa_format>
100028b8:	b017      	add	sp, #92	; 0x5c
100028ba:	bc0c      	pop	{r2, r3}
100028bc:	4692      	mov	sl, r2
100028be:	469b      	mov	fp, r3
100028c0:	bdf0      	pop	{r4, r5, r6, r7, pc}
	...

100028c4 <_etoa>:
100028c4:	b5f0      	push	{r4, r5, r6, r7, lr}
100028c6:	46d6      	mov	lr, sl
100028c8:	464f      	mov	r7, r9
100028ca:	4646      	mov	r6, r8
100028cc:	b5c0      	push	{r6, r7, lr}
100028ce:	b094      	sub	sp, #80	; 0x50
100028d0:	900a      	str	r0, [sp, #40]	; 0x28
100028d2:	9106      	str	r1, [sp, #24]
100028d4:	920b      	str	r2, [sp, #44]	; 0x2c
100028d6:	9307      	str	r3, [sp, #28]
100028d8:	9c1c      	ldr	r4, [sp, #112]	; 0x70
100028da:	9408      	str	r4, [sp, #32]
100028dc:	9d1d      	ldr	r5, [sp, #116]	; 0x74
100028de:	9509      	str	r5, [sp, #36]	; 0x24
100028e0:	0022      	movs	r2, r4
100028e2:	002b      	movs	r3, r5
100028e4:	0020      	movs	r0, r4
100028e6:	0029      	movs	r1, r5
100028e8:	f001 f9dd 	bl	10003ca6 <__wrap___aeabi_dcmpun>
100028ec:	2800      	cmp	r0, #0
100028ee:	d000      	beq.n	100028f2 <_etoa+0x2e>
100028f0:	e0e8      	b.n	10002ac4 <_etoa+0x200>
100028f2:	2201      	movs	r2, #1
100028f4:	4252      	negs	r2, r2
100028f6:	4bd6      	ldr	r3, [pc, #856]	; (10002c50 <_etoa+0x38c>)
100028f8:	0020      	movs	r0, r4
100028fa:	0029      	movs	r1, r5
100028fc:	f001 f9ce 	bl	10003c9c <__wrap___aeabi_dcmpgt>
10002900:	2800      	cmp	r0, #0
10002902:	d000      	beq.n	10002906 <_etoa+0x42>
10002904:	e0de      	b.n	10002ac4 <_etoa+0x200>
10002906:	2201      	movs	r2, #1
10002908:	4252      	negs	r2, r2
1000290a:	4bd2      	ldr	r3, [pc, #840]	; (10002c54 <_etoa+0x390>)
1000290c:	0020      	movs	r0, r4
1000290e:	0029      	movs	r1, r5
10002910:	f001 f9ae 	bl	10003c70 <__wrap___aeabi_dcmplt>
10002914:	2800      	cmp	r0, #0
10002916:	d000      	beq.n	1000291a <_etoa+0x56>
10002918:	e0d4      	b.n	10002ac4 <_etoa+0x200>
1000291a:	2200      	movs	r2, #0
1000291c:	2300      	movs	r3, #0
1000291e:	9d08      	ldr	r5, [sp, #32]
10002920:	0028      	movs	r0, r5
10002922:	9c09      	ldr	r4, [sp, #36]	; 0x24
10002924:	0021      	movs	r1, r4
10002926:	f001 f9a3 	bl	10003c70 <__wrap___aeabi_dcmplt>
1000292a:	2800      	cmp	r0, #0
1000292c:	d000      	beq.n	10002930 <_etoa+0x6c>
1000292e:	e0df      	b.n	10002af0 <_etoa+0x22c>
10002930:	9e08      	ldr	r6, [sp, #32]
10002932:	9f09      	ldr	r7, [sp, #36]	; 0x24
10002934:	2380      	movs	r3, #128	; 0x80
10002936:	00db      	lsls	r3, r3, #3
10002938:	9a20      	ldr	r2, [sp, #128]	; 0x80
1000293a:	401a      	ands	r2, r3
1000293c:	4690      	mov	r8, r2
1000293e:	1e13      	subs	r3, r2, #0
10002940:	d101      	bne.n	10002946 <_etoa+0x82>
10002942:	3306      	adds	r3, #6
10002944:	931e      	str	r3, [sp, #120]	; 0x78
10002946:	960c      	str	r6, [sp, #48]	; 0x30
10002948:	970d      	str	r7, [sp, #52]	; 0x34
1000294a:	003a      	movs	r2, r7
1000294c:	4332      	orrs	r2, r6
1000294e:	d100      	bne.n	10002952 <_etoa+0x8e>
10002950:	e0d5      	b.n	10002afe <_etoa+0x23a>
10002952:	0d38      	lsrs	r0, r7, #20
10002954:	0540      	lsls	r0, r0, #21
10002956:	0d40      	lsrs	r0, r0, #21
10002958:	4abf      	ldr	r2, [pc, #764]	; (10002c58 <_etoa+0x394>)
1000295a:	4694      	mov	ip, r2
1000295c:	4460      	add	r0, ip
1000295e:	033a      	lsls	r2, r7, #12
10002960:	0b12      	lsrs	r2, r2, #12
10002962:	4bbe      	ldr	r3, [pc, #760]	; (10002c5c <_etoa+0x398>)
10002964:	4313      	orrs	r3, r2
10002966:	001d      	movs	r5, r3
10002968:	f001 f9b0 	bl	10003ccc <__wrap___aeabi_i2d>
1000296c:	4abc      	ldr	r2, [pc, #752]	; (10002c60 <_etoa+0x39c>)
1000296e:	4bbd      	ldr	r3, [pc, #756]	; (10002c64 <_etoa+0x3a0>)
10002970:	f001 f93b 	bl	10003bea <__wrap___aeabi_dmul>
10002974:	4abc      	ldr	r2, [pc, #752]	; (10002c68 <_etoa+0x3a4>)
10002976:	4bbd      	ldr	r3, [pc, #756]	; (10002c6c <_etoa+0x3a8>)
10002978:	f001 f910 	bl	10003b9c <__wrap___aeabi_dadd>
1000297c:	900c      	str	r0, [sp, #48]	; 0x30
1000297e:	910d      	str	r1, [sp, #52]	; 0x34
10002980:	2200      	movs	r2, #0
10002982:	4bbb      	ldr	r3, [pc, #748]	; (10002c70 <_etoa+0x3ac>)
10002984:	0030      	movs	r0, r6
10002986:	0029      	movs	r1, r5
10002988:	f001 f8ff 	bl	10003b8a <__wrap___aeabi_dsub>
1000298c:	4ab9      	ldr	r2, [pc, #740]	; (10002c74 <_etoa+0x3b0>)
1000298e:	4bba      	ldr	r3, [pc, #744]	; (10002c78 <_etoa+0x3b4>)
10002990:	f001 f92b 	bl	10003bea <__wrap___aeabi_dmul>
10002994:	0002      	movs	r2, r0
10002996:	000b      	movs	r3, r1
10002998:	980c      	ldr	r0, [sp, #48]	; 0x30
1000299a:	990d      	ldr	r1, [sp, #52]	; 0x34
1000299c:	f001 f8fe 	bl	10003b9c <__wrap___aeabi_dadd>
100029a0:	f001 f9ac 	bl	10003cfc <__wrap___aeabi_d2iz>
100029a4:	4682      	mov	sl, r0
100029a6:	f001 f991 	bl	10003ccc <__wrap___aeabi_i2d>
100029aa:	4ab4      	ldr	r2, [pc, #720]	; (10002c7c <_etoa+0x3b8>)
100029ac:	4bb4      	ldr	r3, [pc, #720]	; (10002c80 <_etoa+0x3bc>)
100029ae:	900c      	str	r0, [sp, #48]	; 0x30
100029b0:	910d      	str	r1, [sp, #52]	; 0x34
100029b2:	f001 f91a 	bl	10003bea <__wrap___aeabi_dmul>
100029b6:	2200      	movs	r2, #0
100029b8:	4bb2      	ldr	r3, [pc, #712]	; (10002c84 <_etoa+0x3c0>)
100029ba:	f001 f8ef 	bl	10003b9c <__wrap___aeabi_dadd>
100029be:	f001 f99d 	bl	10003cfc <__wrap___aeabi_d2iz>
100029c2:	0005      	movs	r5, r0
100029c4:	4ab0      	ldr	r2, [pc, #704]	; (10002c88 <_etoa+0x3c4>)
100029c6:	4bb1      	ldr	r3, [pc, #708]	; (10002c8c <_etoa+0x3c8>)
100029c8:	980c      	ldr	r0, [sp, #48]	; 0x30
100029ca:	990d      	ldr	r1, [sp, #52]	; 0x34
100029cc:	f001 f90d 	bl	10003bea <__wrap___aeabi_dmul>
100029d0:	900c      	str	r0, [sp, #48]	; 0x30
100029d2:	910d      	str	r1, [sp, #52]	; 0x34
100029d4:	0028      	movs	r0, r5
100029d6:	f001 f979 	bl	10003ccc <__wrap___aeabi_i2d>
100029da:	4aad      	ldr	r2, [pc, #692]	; (10002c90 <_etoa+0x3cc>)
100029dc:	4bad      	ldr	r3, [pc, #692]	; (10002c94 <_etoa+0x3d0>)
100029de:	f001 f904 	bl	10003bea <__wrap___aeabi_dmul>
100029e2:	0002      	movs	r2, r0
100029e4:	000b      	movs	r3, r1
100029e6:	980c      	ldr	r0, [sp, #48]	; 0x30
100029e8:	990d      	ldr	r1, [sp, #52]	; 0x34
100029ea:	f001 f8ce 	bl	10003b8a <__wrap___aeabi_dsub>
100029ee:	0002      	movs	r2, r0
100029f0:	000b      	movs	r3, r1
100029f2:	900e      	str	r0, [sp, #56]	; 0x38
100029f4:	910f      	str	r1, [sp, #60]	; 0x3c
100029f6:	f001 f8f8 	bl	10003bea <__wrap___aeabi_dmul>
100029fa:	9010      	str	r0, [sp, #64]	; 0x40
100029fc:	9111      	str	r1, [sp, #68]	; 0x44
100029fe:	4ba6      	ldr	r3, [pc, #664]	; (10002c98 <_etoa+0x3d4>)
10002a00:	469c      	mov	ip, r3
10002a02:	4465      	add	r5, ip
10002a04:	052b      	lsls	r3, r5, #20
10002a06:	930d      	str	r3, [sp, #52]	; 0x34
10002a08:	2300      	movs	r3, #0
10002a0a:	930c      	str	r3, [sp, #48]	; 0x30
10002a0c:	9c0e      	ldr	r4, [sp, #56]	; 0x38
10002a0e:	9d0f      	ldr	r5, [sp, #60]	; 0x3c
10002a10:	0022      	movs	r2, r4
10002a12:	002b      	movs	r3, r5
10002a14:	0020      	movs	r0, r4
10002a16:	0029      	movs	r1, r5
10002a18:	f001 f8c0 	bl	10003b9c <__wrap___aeabi_dadd>
10002a1c:	900e      	str	r0, [sp, #56]	; 0x38
10002a1e:	910f      	str	r1, [sp, #60]	; 0x3c
10002a20:	0022      	movs	r2, r4
10002a22:	002b      	movs	r3, r5
10002a24:	2000      	movs	r0, #0
10002a26:	2180      	movs	r1, #128	; 0x80
10002a28:	05c9      	lsls	r1, r1, #23
10002a2a:	f001 f8ae 	bl	10003b8a <__wrap___aeabi_dsub>
10002a2e:	9012      	str	r0, [sp, #72]	; 0x48
10002a30:	9113      	str	r1, [sp, #76]	; 0x4c
10002a32:	2200      	movs	r2, #0
10002a34:	4b99      	ldr	r3, [pc, #612]	; (10002c9c <_etoa+0x3d8>)
10002a36:	9c10      	ldr	r4, [sp, #64]	; 0x40
10002a38:	9d11      	ldr	r5, [sp, #68]	; 0x44
10002a3a:	0020      	movs	r0, r4
10002a3c:	0029      	movs	r1, r5
10002a3e:	f001 f8b6 	bl	10003bae <__wrap___aeabi_ddiv>
10002a42:	2200      	movs	r2, #0
10002a44:	4b96      	ldr	r3, [pc, #600]	; (10002ca0 <_etoa+0x3dc>)
10002a46:	f001 f8a9 	bl	10003b9c <__wrap___aeabi_dadd>
10002a4a:	0002      	movs	r2, r0
10002a4c:	000b      	movs	r3, r1
10002a4e:	0020      	movs	r0, r4
10002a50:	0029      	movs	r1, r5
10002a52:	f001 f8ac 	bl	10003bae <__wrap___aeabi_ddiv>
10002a56:	2200      	movs	r2, #0
10002a58:	4b92      	ldr	r3, [pc, #584]	; (10002ca4 <_etoa+0x3e0>)
10002a5a:	f001 f89f 	bl	10003b9c <__wrap___aeabi_dadd>
10002a5e:	0002      	movs	r2, r0
10002a60:	000b      	movs	r3, r1
10002a62:	0020      	movs	r0, r4
10002a64:	0029      	movs	r1, r5
10002a66:	f001 f8a2 	bl	10003bae <__wrap___aeabi_ddiv>
10002a6a:	0002      	movs	r2, r0
10002a6c:	000b      	movs	r3, r1
10002a6e:	9812      	ldr	r0, [sp, #72]	; 0x48
10002a70:	9913      	ldr	r1, [sp, #76]	; 0x4c
10002a72:	f001 f893 	bl	10003b9c <__wrap___aeabi_dadd>
10002a76:	0002      	movs	r2, r0
10002a78:	000b      	movs	r3, r1
10002a7a:	980e      	ldr	r0, [sp, #56]	; 0x38
10002a7c:	990f      	ldr	r1, [sp, #60]	; 0x3c
10002a7e:	f001 f896 	bl	10003bae <__wrap___aeabi_ddiv>
10002a82:	2200      	movs	r2, #0
10002a84:	4b75      	ldr	r3, [pc, #468]	; (10002c5c <_etoa+0x398>)
10002a86:	f001 f889 	bl	10003b9c <__wrap___aeabi_dadd>
10002a8a:	9a0c      	ldr	r2, [sp, #48]	; 0x30
10002a8c:	9b0d      	ldr	r3, [sp, #52]	; 0x34
10002a8e:	f001 f8ac 	bl	10003bea <__wrap___aeabi_dmul>
10002a92:	0002      	movs	r2, r0
10002a94:	000b      	movs	r3, r1
10002a96:	920c      	str	r2, [sp, #48]	; 0x30
10002a98:	930d      	str	r3, [sp, #52]	; 0x34
10002a9a:	0032      	movs	r2, r6
10002a9c:	003b      	movs	r3, r7
10002a9e:	0004      	movs	r4, r0
10002aa0:	000d      	movs	r5, r1
10002aa2:	f001 f8fb 	bl	10003c9c <__wrap___aeabi_dcmpgt>
10002aa6:	2800      	cmp	r0, #0
10002aa8:	d02b      	beq.n	10002b02 <_etoa+0x23e>
10002aaa:	2301      	movs	r3, #1
10002aac:	425b      	negs	r3, r3
10002aae:	469c      	mov	ip, r3
10002ab0:	44e2      	add	sl, ip
10002ab2:	2200      	movs	r2, #0
10002ab4:	4b7a      	ldr	r3, [pc, #488]	; (10002ca0 <_etoa+0x3dc>)
10002ab6:	0020      	movs	r0, r4
10002ab8:	0029      	movs	r1, r5
10002aba:	f001 f878 	bl	10003bae <__wrap___aeabi_ddiv>
10002abe:	900c      	str	r0, [sp, #48]	; 0x30
10002ac0:	910d      	str	r1, [sp, #52]	; 0x34
10002ac2:	e01e      	b.n	10002b02 <_etoa+0x23e>
10002ac4:	9b20      	ldr	r3, [sp, #128]	; 0x80
10002ac6:	9304      	str	r3, [sp, #16]
10002ac8:	9b1f      	ldr	r3, [sp, #124]	; 0x7c
10002aca:	9303      	str	r3, [sp, #12]
10002acc:	9b1e      	ldr	r3, [sp, #120]	; 0x78
10002ace:	9302      	str	r3, [sp, #8]
10002ad0:	9a08      	ldr	r2, [sp, #32]
10002ad2:	9b09      	ldr	r3, [sp, #36]	; 0x24
10002ad4:	9200      	str	r2, [sp, #0]
10002ad6:	9301      	str	r3, [sp, #4]
10002ad8:	9b07      	ldr	r3, [sp, #28]
10002ada:	9a0b      	ldr	r2, [sp, #44]	; 0x2c
10002adc:	9906      	ldr	r1, [sp, #24]
10002ade:	980a      	ldr	r0, [sp, #40]	; 0x28
10002ae0:	f000 f8f4 	bl	10002ccc <_ftoa>
10002ae4:	b014      	add	sp, #80	; 0x50
10002ae6:	bc1c      	pop	{r2, r3, r4}
10002ae8:	4690      	mov	r8, r2
10002aea:	4699      	mov	r9, r3
10002aec:	46a2      	mov	sl, r4
10002aee:	bdf0      	pop	{r4, r5, r6, r7, pc}
10002af0:	002e      	movs	r6, r5
10002af2:	2380      	movs	r3, #128	; 0x80
10002af4:	061b      	lsls	r3, r3, #24
10002af6:	469c      	mov	ip, r3
10002af8:	4464      	add	r4, ip
10002afa:	0027      	movs	r7, r4
10002afc:	e71a      	b.n	10002934 <_etoa+0x70>
10002afe:	2300      	movs	r3, #0
10002b00:	469a      	mov	sl, r3
10002b02:	4653      	mov	r3, sl
10002b04:	3363      	adds	r3, #99	; 0x63
10002b06:	2bc6      	cmp	r3, #198	; 0xc6
10002b08:	d821      	bhi.n	10002b4e <_etoa+0x28a>
10002b0a:	2504      	movs	r5, #4
10002b0c:	9b20      	ldr	r3, [sp, #128]	; 0x80
10002b0e:	051b      	lsls	r3, r3, #20
10002b10:	d529      	bpl.n	10002b66 <_etoa+0x2a2>
10002b12:	9a0c      	ldr	r2, [sp, #48]	; 0x30
10002b14:	9b0d      	ldr	r3, [sp, #52]	; 0x34
10002b16:	0019      	movs	r1, r3
10002b18:	4311      	orrs	r1, r2
10002b1a:	d010      	beq.n	10002b3e <_etoa+0x27a>
10002b1c:	4a62      	ldr	r2, [pc, #392]	; (10002ca8 <_etoa+0x3e4>)
10002b1e:	4b63      	ldr	r3, [pc, #396]	; (10002cac <_etoa+0x3e8>)
10002b20:	0030      	movs	r0, r6
10002b22:	0039      	movs	r1, r7
10002b24:	f001 f8b2 	bl	10003c8c <__wrap___aeabi_dcmpge>
10002b28:	2800      	cmp	r0, #0
10002b2a:	d100      	bne.n	10002b2e <_etoa+0x26a>
10002b2c:	e082      	b.n	10002c34 <_etoa+0x370>
10002b2e:	2200      	movs	r2, #0
10002b30:	4b5f      	ldr	r3, [pc, #380]	; (10002cb0 <_etoa+0x3ec>)
10002b32:	0030      	movs	r0, r6
10002b34:	0039      	movs	r1, r7
10002b36:	f001 f89b 	bl	10003c70 <__wrap___aeabi_dcmplt>
10002b3a:	2800      	cmp	r0, #0
10002b3c:	d07a      	beq.n	10002c34 <_etoa+0x370>
10002b3e:	9b1e      	ldr	r3, [sp, #120]	; 0x78
10002b40:	4553      	cmp	r3, sl
10002b42:	dd06      	ble.n	10002b52 <_etoa+0x28e>
10002b44:	4652      	mov	r2, sl
10002b46:	1a9c      	subs	r4, r3, r2
10002b48:	1e63      	subs	r3, r4, #1
10002b4a:	931e      	str	r3, [sp, #120]	; 0x78
10002b4c:	e003      	b.n	10002b56 <_etoa+0x292>
10002b4e:	2505      	movs	r5, #5
10002b50:	e7dc      	b.n	10002b0c <_etoa+0x248>
10002b52:	2300      	movs	r3, #0
10002b54:	931e      	str	r3, [sp, #120]	; 0x78
10002b56:	2380      	movs	r3, #128	; 0x80
10002b58:	00db      	lsls	r3, r3, #3
10002b5a:	9a20      	ldr	r2, [sp, #128]	; 0x80
10002b5c:	431a      	orrs	r2, r3
10002b5e:	9220      	str	r2, [sp, #128]	; 0x80
10002b60:	2500      	movs	r5, #0
10002b62:	2300      	movs	r3, #0
10002b64:	469a      	mov	sl, r3
10002b66:	9b1f      	ldr	r3, [sp, #124]	; 0x7c
10002b68:	429d      	cmp	r5, r3
10002b6a:	d26d      	bcs.n	10002c48 <_etoa+0x384>
10002b6c:	1b5b      	subs	r3, r3, r5
10002b6e:	4699      	mov	r9, r3
10002b70:	2302      	movs	r3, #2
10002b72:	9a20      	ldr	r2, [sp, #128]	; 0x80
10002b74:	401a      	ands	r2, r3
10002b76:	4690      	mov	r8, r2
10002b78:	d003      	beq.n	10002b82 <_etoa+0x2be>
10002b7a:	2d00      	cmp	r5, #0
10002b7c:	d001      	beq.n	10002b82 <_etoa+0x2be>
10002b7e:	2300      	movs	r3, #0
10002b80:	4699      	mov	r9, r3
10002b82:	4653      	mov	r3, sl
10002b84:	2b00      	cmp	r3, #0
10002b86:	d007      	beq.n	10002b98 <_etoa+0x2d4>
10002b88:	9a0c      	ldr	r2, [sp, #48]	; 0x30
10002b8a:	9b0d      	ldr	r3, [sp, #52]	; 0x34
10002b8c:	0030      	movs	r0, r6
10002b8e:	0039      	movs	r1, r7
10002b90:	f001 f80d 	bl	10003bae <__wrap___aeabi_ddiv>
10002b94:	0006      	movs	r6, r0
10002b96:	000f      	movs	r7, r1
10002b98:	2200      	movs	r2, #0
10002b9a:	2300      	movs	r3, #0
10002b9c:	9808      	ldr	r0, [sp, #32]
10002b9e:	9909      	ldr	r1, [sp, #36]	; 0x24
10002ba0:	f001 f866 	bl	10003c70 <__wrap___aeabi_dcmplt>
10002ba4:	2800      	cmp	r0, #0
10002ba6:	d000      	beq.n	10002baa <_etoa+0x2e6>
10002ba8:	e086      	b.n	10002cb8 <_etoa+0x3f4>
10002baa:	4b42      	ldr	r3, [pc, #264]	; (10002cb4 <_etoa+0x3f0>)
10002bac:	9a20      	ldr	r2, [sp, #128]	; 0x80
10002bae:	4013      	ands	r3, r2
10002bb0:	9304      	str	r3, [sp, #16]
10002bb2:	464b      	mov	r3, r9
10002bb4:	9303      	str	r3, [sp, #12]
10002bb6:	9b1e      	ldr	r3, [sp, #120]	; 0x78
10002bb8:	9302      	str	r3, [sp, #8]
10002bba:	9600      	str	r6, [sp, #0]
10002bbc:	9701      	str	r7, [sp, #4]
10002bbe:	9b07      	ldr	r3, [sp, #28]
10002bc0:	9a0b      	ldr	r2, [sp, #44]	; 0x2c
10002bc2:	9906      	ldr	r1, [sp, #24]
10002bc4:	980a      	ldr	r0, [sp, #40]	; 0x28
10002bc6:	f000 f881 	bl	10002ccc <_ftoa>
10002bca:	2d00      	cmp	r5, #0
10002bcc:	d100      	bne.n	10002bd0 <_etoa+0x30c>
10002bce:	e789      	b.n	10002ae4 <_etoa+0x220>
10002bd0:	9b20      	ldr	r3, [sp, #128]	; 0x80
10002bd2:	069b      	lsls	r3, r3, #26
10002bd4:	d575      	bpl.n	10002cc2 <_etoa+0x3fe>
10002bd6:	2645      	movs	r6, #69	; 0x45
10002bd8:	1c47      	adds	r7, r0, #1
10002bda:	9b07      	ldr	r3, [sp, #28]
10002bdc:	0002      	movs	r2, r0
10002bde:	9906      	ldr	r1, [sp, #24]
10002be0:	0030      	movs	r0, r6
10002be2:	9e0a      	ldr	r6, [sp, #40]	; 0x28
10002be4:	47b0      	blx	r6
10002be6:	4650      	mov	r0, sl
10002be8:	17c2      	asrs	r2, r0, #31
10002bea:	1883      	adds	r3, r0, r2
10002bec:	4053      	eors	r3, r2
10002bee:	2205      	movs	r2, #5
10002bf0:	9205      	str	r2, [sp, #20]
10002bf2:	3d01      	subs	r5, #1
10002bf4:	9504      	str	r5, [sp, #16]
10002bf6:	2200      	movs	r2, #0
10002bf8:	9203      	str	r2, [sp, #12]
10002bfa:	320a      	adds	r2, #10
10002bfc:	9202      	str	r2, [sp, #8]
10002bfe:	0fc4      	lsrs	r4, r0, #31
10002c00:	9401      	str	r4, [sp, #4]
10002c02:	9300      	str	r3, [sp, #0]
10002c04:	9b07      	ldr	r3, [sp, #28]
10002c06:	003a      	movs	r2, r7
10002c08:	9906      	ldr	r1, [sp, #24]
10002c0a:	0030      	movs	r0, r6
10002c0c:	f7ff fd8e 	bl	1000272c <_ntoa_long>
10002c10:	4643      	mov	r3, r8
10002c12:	2b00      	cmp	r3, #0
10002c14:	d100      	bne.n	10002c18 <_etoa+0x354>
10002c16:	e765      	b.n	10002ae4 <_etoa+0x220>
10002c18:	0002      	movs	r2, r0
10002c1a:	9e0a      	ldr	r6, [sp, #40]	; 0x28
10002c1c:	9c0b      	ldr	r4, [sp, #44]	; 0x2c
10002c1e:	9d1f      	ldr	r5, [sp, #124]	; 0x7c
10002c20:	1b13      	subs	r3, r2, r4
10002c22:	42ab      	cmp	r3, r5
10002c24:	d24f      	bcs.n	10002cc6 <_etoa+0x402>
10002c26:	1c57      	adds	r7, r2, #1
10002c28:	9b07      	ldr	r3, [sp, #28]
10002c2a:	9906      	ldr	r1, [sp, #24]
10002c2c:	2020      	movs	r0, #32
10002c2e:	47b0      	blx	r6
10002c30:	003a      	movs	r2, r7
10002c32:	e7f5      	b.n	10002c20 <_etoa+0x35c>
10002c34:	9b1e      	ldr	r3, [sp, #120]	; 0x78
10002c36:	2b00      	cmp	r3, #0
10002c38:	d095      	beq.n	10002b66 <_etoa+0x2a2>
10002c3a:	4643      	mov	r3, r8
10002c3c:	2b00      	cmp	r3, #0
10002c3e:	d092      	beq.n	10002b66 <_etoa+0x2a2>
10002c40:	9b1e      	ldr	r3, [sp, #120]	; 0x78
10002c42:	3b01      	subs	r3, #1
10002c44:	931e      	str	r3, [sp, #120]	; 0x78
10002c46:	e78e      	b.n	10002b66 <_etoa+0x2a2>
10002c48:	2300      	movs	r3, #0
10002c4a:	4699      	mov	r9, r3
10002c4c:	e790      	b.n	10002b70 <_etoa+0x2ac>
10002c4e:	46c0      	nop			; (mov r8, r8)
10002c50:	7fefffff 	.word	0x7fefffff
10002c54:	ffefffff 	.word	0xffefffff
10002c58:	fffffc01 	.word	0xfffffc01
10002c5c:	3ff00000 	.word	0x3ff00000
10002c60:	509f79fb 	.word	0x509f79fb
10002c64:	3fd34413 	.word	0x3fd34413
10002c68:	8b60c8b3 	.word	0x8b60c8b3
10002c6c:	3fc68a28 	.word	0x3fc68a28
10002c70:	3ff80000 	.word	0x3ff80000
10002c74:	636f4361 	.word	0x636f4361
10002c78:	3fd287a7 	.word	0x3fd287a7
10002c7c:	0979a371 	.word	0x0979a371
10002c80:	400a934f 	.word	0x400a934f
10002c84:	3fe00000 	.word	0x3fe00000
10002c88:	bbb55516 	.word	0xbbb55516
10002c8c:	40026bb1 	.word	0x40026bb1
10002c90:	fefa39ef 	.word	0xfefa39ef
10002c94:	3fe62e42 	.word	0x3fe62e42
10002c98:	000003ff 	.word	0x000003ff
10002c9c:	402c0000 	.word	0x402c0000
10002ca0:	40240000 	.word	0x40240000
10002ca4:	40180000 	.word	0x40180000
10002ca8:	eb1c432d 	.word	0xeb1c432d
10002cac:	3f1a36e2 	.word	0x3f1a36e2
10002cb0:	412e8480 	.word	0x412e8480
10002cb4:	fffff7ff 	.word	0xfffff7ff
10002cb8:	2180      	movs	r1, #128	; 0x80
10002cba:	0609      	lsls	r1, r1, #24
10002cbc:	187b      	adds	r3, r7, r1
10002cbe:	001f      	movs	r7, r3
10002cc0:	e773      	b.n	10002baa <_etoa+0x2e6>
10002cc2:	2665      	movs	r6, #101	; 0x65
10002cc4:	e788      	b.n	10002bd8 <_etoa+0x314>
10002cc6:	0010      	movs	r0, r2
10002cc8:	e70c      	b.n	10002ae4 <_etoa+0x220>
10002cca:	46c0      	nop			; (mov r8, r8)

10002ccc <_ftoa>:
10002ccc:	b5f0      	push	{r4, r5, r6, r7, lr}
10002cce:	46d6      	mov	lr, sl
10002cd0:	4647      	mov	r7, r8
10002cd2:	b580      	push	{r7, lr}
10002cd4:	b097      	sub	sp, #92	; 0x5c
10002cd6:	9006      	str	r0, [sp, #24]
10002cd8:	9107      	str	r1, [sp, #28]
10002cda:	9208      	str	r2, [sp, #32]
10002cdc:	9309      	str	r3, [sp, #36]	; 0x24
10002cde:	9f20      	ldr	r7, [sp, #128]	; 0x80
10002ce0:	9a1e      	ldr	r2, [sp, #120]	; 0x78
10002ce2:	9b1f      	ldr	r3, [sp, #124]	; 0x7c
10002ce4:	0010      	movs	r0, r2
10002ce6:	0019      	movs	r1, r3
10002ce8:	f000 ffdd 	bl	10003ca6 <__wrap___aeabi_dcmpun>
10002cec:	2800      	cmp	r0, #0
10002cee:	d139      	bne.n	10002d64 <_ftoa+0x98>
10002cf0:	2201      	movs	r2, #1
10002cf2:	4252      	negs	r2, r2
10002cf4:	4bbc      	ldr	r3, [pc, #752]	; (10002fe8 <_ftoa+0x31c>)
10002cf6:	981e      	ldr	r0, [sp, #120]	; 0x78
10002cf8:	991f      	ldr	r1, [sp, #124]	; 0x7c
10002cfa:	f000 ffb9 	bl	10003c70 <__wrap___aeabi_dcmplt>
10002cfe:	2800      	cmp	r0, #0
10002d00:	d13f      	bne.n	10002d82 <_ftoa+0xb6>
10002d02:	2201      	movs	r2, #1
10002d04:	4252      	negs	r2, r2
10002d06:	4bb9      	ldr	r3, [pc, #740]	; (10002fec <_ftoa+0x320>)
10002d08:	981e      	ldr	r0, [sp, #120]	; 0x78
10002d0a:	991f      	ldr	r1, [sp, #124]	; 0x7c
10002d0c:	f000 ffc6 	bl	10003c9c <__wrap___aeabi_dcmpgt>
10002d10:	2800      	cmp	r0, #0
10002d12:	d145      	bne.n	10002da0 <_ftoa+0xd4>
10002d14:	2200      	movs	r2, #0
10002d16:	4bb6      	ldr	r3, [pc, #728]	; (10002ff0 <_ftoa+0x324>)
10002d18:	981e      	ldr	r0, [sp, #120]	; 0x78
10002d1a:	991f      	ldr	r1, [sp, #124]	; 0x7c
10002d1c:	f000 ffbe 	bl	10003c9c <__wrap___aeabi_dcmpgt>
10002d20:	2800      	cmp	r0, #0
10002d22:	d156      	bne.n	10002dd2 <_ftoa+0x106>
10002d24:	2200      	movs	r2, #0
10002d26:	4bb3      	ldr	r3, [pc, #716]	; (10002ff4 <_ftoa+0x328>)
10002d28:	981e      	ldr	r0, [sp, #120]	; 0x78
10002d2a:	991f      	ldr	r1, [sp, #124]	; 0x7c
10002d2c:	f000 ffa0 	bl	10003c70 <__wrap___aeabi_dcmplt>
10002d30:	2800      	cmp	r0, #0
10002d32:	d14e      	bne.n	10002dd2 <_ftoa+0x106>
10002d34:	2200      	movs	r2, #0
10002d36:	2300      	movs	r3, #0
10002d38:	981e      	ldr	r0, [sp, #120]	; 0x78
10002d3a:	991f      	ldr	r1, [sp, #124]	; 0x7c
10002d3c:	f000 ff98 	bl	10003c70 <__wrap___aeabi_dcmplt>
10002d40:	2800      	cmp	r0, #0
10002d42:	d156      	bne.n	10002df2 <_ftoa+0x126>
10002d44:	2300      	movs	r3, #0
10002d46:	469a      	mov	sl, r3
10002d48:	9b22      	ldr	r3, [sp, #136]	; 0x88
10002d4a:	055b      	lsls	r3, r3, #21
10002d4c:	d55c      	bpl.n	10002e08 <_ftoa+0x13c>
10002d4e:	2600      	movs	r6, #0
10002d50:	2e1f      	cmp	r6, #31
10002d52:	d85b      	bhi.n	10002e0c <_ftoa+0x140>
10002d54:	2f09      	cmp	r7, #9
10002d56:	d959      	bls.n	10002e0c <_ftoa+0x140>
10002d58:	ab0e      	add	r3, sp, #56	; 0x38
10002d5a:	2230      	movs	r2, #48	; 0x30
10002d5c:	559a      	strb	r2, [r3, r6]
10002d5e:	3f01      	subs	r7, #1
10002d60:	3601      	adds	r6, #1
10002d62:	e7f5      	b.n	10002d50 <_ftoa+0x84>
10002d64:	9b22      	ldr	r3, [sp, #136]	; 0x88
10002d66:	9303      	str	r3, [sp, #12]
10002d68:	9b21      	ldr	r3, [sp, #132]	; 0x84
10002d6a:	9302      	str	r3, [sp, #8]
10002d6c:	2303      	movs	r3, #3
10002d6e:	9301      	str	r3, [sp, #4]
10002d70:	4ba1      	ldr	r3, [pc, #644]	; (10002ff8 <_ftoa+0x32c>)
10002d72:	9300      	str	r3, [sp, #0]
10002d74:	9b09      	ldr	r3, [sp, #36]	; 0x24
10002d76:	9a08      	ldr	r2, [sp, #32]
10002d78:	9907      	ldr	r1, [sp, #28]
10002d7a:	9806      	ldr	r0, [sp, #24]
10002d7c:	f7ff fc0a 	bl	10002594 <_out_rev>
10002d80:	e103      	b.n	10002f8a <_ftoa+0x2be>
10002d82:	9b22      	ldr	r3, [sp, #136]	; 0x88
10002d84:	9303      	str	r3, [sp, #12]
10002d86:	9b21      	ldr	r3, [sp, #132]	; 0x84
10002d88:	9302      	str	r3, [sp, #8]
10002d8a:	2304      	movs	r3, #4
10002d8c:	9301      	str	r3, [sp, #4]
10002d8e:	4b9b      	ldr	r3, [pc, #620]	; (10002ffc <_ftoa+0x330>)
10002d90:	9300      	str	r3, [sp, #0]
10002d92:	9b09      	ldr	r3, [sp, #36]	; 0x24
10002d94:	9a08      	ldr	r2, [sp, #32]
10002d96:	9907      	ldr	r1, [sp, #28]
10002d98:	9806      	ldr	r0, [sp, #24]
10002d9a:	f7ff fbfb 	bl	10002594 <_out_rev>
10002d9e:	e0f4      	b.n	10002f8a <_ftoa+0x2be>
10002da0:	2304      	movs	r3, #4
10002da2:	9a22      	ldr	r2, [sp, #136]	; 0x88
10002da4:	4013      	ands	r3, r2
10002da6:	d010      	beq.n	10002dca <_ftoa+0xfe>
10002da8:	4a95      	ldr	r2, [pc, #596]	; (10003000 <_ftoa+0x334>)
10002daa:	2b00      	cmp	r3, #0
10002dac:	d00f      	beq.n	10002dce <_ftoa+0x102>
10002dae:	2304      	movs	r3, #4
10002db0:	9922      	ldr	r1, [sp, #136]	; 0x88
10002db2:	9103      	str	r1, [sp, #12]
10002db4:	9921      	ldr	r1, [sp, #132]	; 0x84
10002db6:	9102      	str	r1, [sp, #8]
10002db8:	9301      	str	r3, [sp, #4]
10002dba:	9200      	str	r2, [sp, #0]
10002dbc:	9b09      	ldr	r3, [sp, #36]	; 0x24
10002dbe:	9a08      	ldr	r2, [sp, #32]
10002dc0:	9907      	ldr	r1, [sp, #28]
10002dc2:	9806      	ldr	r0, [sp, #24]
10002dc4:	f7ff fbe6 	bl	10002594 <_out_rev>
10002dc8:	e0df      	b.n	10002f8a <_ftoa+0x2be>
10002dca:	4a8e      	ldr	r2, [pc, #568]	; (10003004 <_ftoa+0x338>)
10002dcc:	e7ed      	b.n	10002daa <_ftoa+0xde>
10002dce:	2303      	movs	r3, #3
10002dd0:	e7ee      	b.n	10002db0 <_ftoa+0xe4>
10002dd2:	9b22      	ldr	r3, [sp, #136]	; 0x88
10002dd4:	9304      	str	r3, [sp, #16]
10002dd6:	9b21      	ldr	r3, [sp, #132]	; 0x84
10002dd8:	9303      	str	r3, [sp, #12]
10002dda:	9702      	str	r7, [sp, #8]
10002ddc:	9b1e      	ldr	r3, [sp, #120]	; 0x78
10002dde:	9c1f      	ldr	r4, [sp, #124]	; 0x7c
10002de0:	9300      	str	r3, [sp, #0]
10002de2:	9401      	str	r4, [sp, #4]
10002de4:	9b09      	ldr	r3, [sp, #36]	; 0x24
10002de6:	9a08      	ldr	r2, [sp, #32]
10002de8:	9907      	ldr	r1, [sp, #28]
10002dea:	9806      	ldr	r0, [sp, #24]
10002dec:	f7ff fd6a 	bl	100028c4 <_etoa>
10002df0:	e0cb      	b.n	10002f8a <_ftoa+0x2be>
10002df2:	9a1e      	ldr	r2, [sp, #120]	; 0x78
10002df4:	9b1f      	ldr	r3, [sp, #124]	; 0x7c
10002df6:	2000      	movs	r0, #0
10002df8:	2100      	movs	r1, #0
10002dfa:	f000 fec6 	bl	10003b8a <__wrap___aeabi_dsub>
10002dfe:	901e      	str	r0, [sp, #120]	; 0x78
10002e00:	911f      	str	r1, [sp, #124]	; 0x7c
10002e02:	2301      	movs	r3, #1
10002e04:	469a      	mov	sl, r3
10002e06:	e79f      	b.n	10002d48 <_ftoa+0x7c>
10002e08:	2706      	movs	r7, #6
10002e0a:	e7a0      	b.n	10002d4e <_ftoa+0x82>
10002e0c:	981e      	ldr	r0, [sp, #120]	; 0x78
10002e0e:	991f      	ldr	r1, [sp, #124]	; 0x7c
10002e10:	f000 ff74 	bl	10003cfc <__wrap___aeabi_d2iz>
10002e14:	0004      	movs	r4, r0
10002e16:	f000 ff59 	bl	10003ccc <__wrap___aeabi_i2d>
10002e1a:	0002      	movs	r2, r0
10002e1c:	000b      	movs	r3, r1
10002e1e:	981e      	ldr	r0, [sp, #120]	; 0x78
10002e20:	991f      	ldr	r1, [sp, #124]	; 0x7c
10002e22:	f000 feb2 	bl	10003b8a <__wrap___aeabi_dsub>
10002e26:	00fa      	lsls	r2, r7, #3
10002e28:	4b77      	ldr	r3, [pc, #476]	; (10003008 <_ftoa+0x33c>)
10002e2a:	189b      	adds	r3, r3, r2
10002e2c:	681a      	ldr	r2, [r3, #0]
10002e2e:	685b      	ldr	r3, [r3, #4]
10002e30:	920c      	str	r2, [sp, #48]	; 0x30
10002e32:	930d      	str	r3, [sp, #52]	; 0x34
10002e34:	f000 fed9 	bl	10003bea <__wrap___aeabi_dmul>
10002e38:	900a      	str	r0, [sp, #40]	; 0x28
10002e3a:	910b      	str	r1, [sp, #44]	; 0x2c
10002e3c:	f000 ff82 	bl	10003d44 <__wrap___aeabi_d2uiz>
10002e40:	0005      	movs	r5, r0
10002e42:	f000 ff3f 	bl	10003cc4 <__wrap___aeabi_ui2d>
10002e46:	0002      	movs	r2, r0
10002e48:	000b      	movs	r3, r1
10002e4a:	980a      	ldr	r0, [sp, #40]	; 0x28
10002e4c:	990b      	ldr	r1, [sp, #44]	; 0x2c
10002e4e:	f000 fe9c 	bl	10003b8a <__wrap___aeabi_dsub>
10002e52:	900a      	str	r0, [sp, #40]	; 0x28
10002e54:	910b      	str	r1, [sp, #44]	; 0x2c
10002e56:	2200      	movs	r2, #0
10002e58:	4b6c      	ldr	r3, [pc, #432]	; (1000300c <_ftoa+0x340>)
10002e5a:	f000 ff1f 	bl	10003c9c <__wrap___aeabi_dcmpgt>
10002e5e:	2800      	cmp	r0, #0
10002e60:	d02c      	beq.n	10002ebc <_ftoa+0x1f0>
10002e62:	3501      	adds	r5, #1
10002e64:	0028      	movs	r0, r5
10002e66:	f000 ff2d 	bl	10003cc4 <__wrap___aeabi_ui2d>
10002e6a:	0002      	movs	r2, r0
10002e6c:	000b      	movs	r3, r1
10002e6e:	980c      	ldr	r0, [sp, #48]	; 0x30
10002e70:	990d      	ldr	r1, [sp, #52]	; 0x34
10002e72:	f000 ff03 	bl	10003c7c <__wrap___aeabi_dcmple>
10002e76:	2800      	cmp	r0, #0
10002e78:	d001      	beq.n	10002e7e <_ftoa+0x1b2>
10002e7a:	3401      	adds	r4, #1
10002e7c:	2500      	movs	r5, #0
10002e7e:	2f00      	cmp	r7, #0
10002e80:	d12a      	bne.n	10002ed8 <_ftoa+0x20c>
10002e82:	0020      	movs	r0, r4
10002e84:	f000 ff22 	bl	10003ccc <__wrap___aeabi_i2d>
10002e88:	0002      	movs	r2, r0
10002e8a:	000b      	movs	r3, r1
10002e8c:	981e      	ldr	r0, [sp, #120]	; 0x78
10002e8e:	991f      	ldr	r1, [sp, #124]	; 0x7c
10002e90:	f000 fe7b 	bl	10003b8a <__wrap___aeabi_dsub>
10002e94:	2200      	movs	r2, #0
10002e96:	4b5d      	ldr	r3, [pc, #372]	; (1000300c <_ftoa+0x340>)
10002e98:	900a      	str	r0, [sp, #40]	; 0x28
10002e9a:	910b      	str	r1, [sp, #44]	; 0x2c
10002e9c:	f000 fee8 	bl	10003c70 <__wrap___aeabi_dcmplt>
10002ea0:	2800      	cmp	r0, #0
10002ea2:	d144      	bne.n	10002f2e <_ftoa+0x262>
10002ea4:	2200      	movs	r2, #0
10002ea6:	4b59      	ldr	r3, [pc, #356]	; (1000300c <_ftoa+0x340>)
10002ea8:	980a      	ldr	r0, [sp, #40]	; 0x28
10002eaa:	990b      	ldr	r1, [sp, #44]	; 0x2c
10002eac:	f000 fef6 	bl	10003c9c <__wrap___aeabi_dcmpgt>
10002eb0:	2800      	cmp	r0, #0
10002eb2:	d13c      	bne.n	10002f2e <_ftoa+0x262>
10002eb4:	07e3      	lsls	r3, r4, #31
10002eb6:	d53a      	bpl.n	10002f2e <_ftoa+0x262>
10002eb8:	3401      	adds	r4, #1
10002eba:	e038      	b.n	10002f2e <_ftoa+0x262>
10002ebc:	2200      	movs	r2, #0
10002ebe:	4b53      	ldr	r3, [pc, #332]	; (1000300c <_ftoa+0x340>)
10002ec0:	980a      	ldr	r0, [sp, #40]	; 0x28
10002ec2:	990b      	ldr	r1, [sp, #44]	; 0x2c
10002ec4:	f000 fed4 	bl	10003c70 <__wrap___aeabi_dcmplt>
10002ec8:	2800      	cmp	r0, #0
10002eca:	d1d8      	bne.n	10002e7e <_ftoa+0x1b2>
10002ecc:	2d00      	cmp	r5, #0
10002ece:	d001      	beq.n	10002ed4 <_ftoa+0x208>
10002ed0:	07eb      	lsls	r3, r5, #31
10002ed2:	d5d4      	bpl.n	10002e7e <_ftoa+0x1b2>
10002ed4:	3501      	adds	r5, #1
10002ed6:	e7d2      	b.n	10002e7e <_ftoa+0x1b2>
10002ed8:	940a      	str	r4, [sp, #40]	; 0x28
10002eda:	2e1f      	cmp	r6, #31
10002edc:	d811      	bhi.n	10002f02 <_ftoa+0x236>
10002ede:	3f01      	subs	r7, #1
10002ee0:	210a      	movs	r1, #10
10002ee2:	0028      	movs	r0, r5
10002ee4:	f000 fc0e 	bl	10003704 <__wrap___aeabi_uidiv>
10002ee8:	1c74      	adds	r4, r6, #1
10002eea:	3130      	adds	r1, #48	; 0x30
10002eec:	ab0e      	add	r3, sp, #56	; 0x38
10002eee:	5599      	strb	r1, [r3, r6]
10002ef0:	210a      	movs	r1, #10
10002ef2:	0028      	movs	r0, r5
10002ef4:	f000 fc06 	bl	10003704 <__wrap___aeabi_uidiv>
10002ef8:	2d09      	cmp	r5, #9
10002efa:	d90e      	bls.n	10002f1a <_ftoa+0x24e>
10002efc:	0005      	movs	r5, r0
10002efe:	0026      	movs	r6, r4
10002f00:	e7eb      	b.n	10002eda <_ftoa+0x20e>
10002f02:	9c0a      	ldr	r4, [sp, #40]	; 0x28
10002f04:	2e1f      	cmp	r6, #31
10002f06:	d80c      	bhi.n	10002f22 <_ftoa+0x256>
10002f08:	1e7b      	subs	r3, r7, #1
10002f0a:	2f00      	cmp	r7, #0
10002f0c:	d009      	beq.n	10002f22 <_ftoa+0x256>
10002f0e:	aa0e      	add	r2, sp, #56	; 0x38
10002f10:	2130      	movs	r1, #48	; 0x30
10002f12:	5591      	strb	r1, [r2, r6]
10002f14:	001f      	movs	r7, r3
10002f16:	3601      	adds	r6, #1
10002f18:	e7f4      	b.n	10002f04 <_ftoa+0x238>
10002f1a:	46a0      	mov	r8, r4
10002f1c:	9c0a      	ldr	r4, [sp, #40]	; 0x28
10002f1e:	4646      	mov	r6, r8
10002f20:	e7f0      	b.n	10002f04 <_ftoa+0x238>
10002f22:	2e1f      	cmp	r6, #31
10002f24:	d803      	bhi.n	10002f2e <_ftoa+0x262>
10002f26:	ab0e      	add	r3, sp, #56	; 0x38
10002f28:	222e      	movs	r2, #46	; 0x2e
10002f2a:	559a      	strb	r2, [r3, r6]
10002f2c:	3601      	adds	r6, #1
10002f2e:	2e1f      	cmp	r6, #31
10002f30:	d810      	bhi.n	10002f54 <_ftoa+0x288>
10002f32:	210a      	movs	r1, #10
10002f34:	0020      	movs	r0, r4
10002f36:	f000 fbbd 	bl	100036b4 <__wrap___aeabi_idiv>
10002f3a:	1c75      	adds	r5, r6, #1
10002f3c:	3130      	adds	r1, #48	; 0x30
10002f3e:	ab0e      	add	r3, sp, #56	; 0x38
10002f40:	5599      	strb	r1, [r3, r6]
10002f42:	210a      	movs	r1, #10
10002f44:	0020      	movs	r0, r4
10002f46:	f000 fbb5 	bl	100036b4 <__wrap___aeabi_idiv>
10002f4a:	1e04      	subs	r4, r0, #0
10002f4c:	d001      	beq.n	10002f52 <_ftoa+0x286>
10002f4e:	002e      	movs	r6, r5
10002f50:	e7ed      	b.n	10002f2e <_ftoa+0x262>
10002f52:	002e      	movs	r6, r5
10002f54:	2303      	movs	r3, #3
10002f56:	9a22      	ldr	r2, [sp, #136]	; 0x88
10002f58:	4013      	ands	r3, r2
10002f5a:	2b01      	cmp	r3, #1
10002f5c:	d01a      	beq.n	10002f94 <_ftoa+0x2c8>
10002f5e:	2e1f      	cmp	r6, #31
10002f60:	d806      	bhi.n	10002f70 <_ftoa+0x2a4>
10002f62:	4653      	mov	r3, sl
10002f64:	2b00      	cmp	r3, #0
10002f66:	d02f      	beq.n	10002fc8 <_ftoa+0x2fc>
10002f68:	ab0e      	add	r3, sp, #56	; 0x38
10002f6a:	222d      	movs	r2, #45	; 0x2d
10002f6c:	559a      	strb	r2, [r3, r6]
10002f6e:	3601      	adds	r6, #1
10002f70:	9b22      	ldr	r3, [sp, #136]	; 0x88
10002f72:	9303      	str	r3, [sp, #12]
10002f74:	9b21      	ldr	r3, [sp, #132]	; 0x84
10002f76:	9302      	str	r3, [sp, #8]
10002f78:	9601      	str	r6, [sp, #4]
10002f7a:	ab0e      	add	r3, sp, #56	; 0x38
10002f7c:	9300      	str	r3, [sp, #0]
10002f7e:	9b09      	ldr	r3, [sp, #36]	; 0x24
10002f80:	9a08      	ldr	r2, [sp, #32]
10002f82:	9907      	ldr	r1, [sp, #28]
10002f84:	9806      	ldr	r0, [sp, #24]
10002f86:	f7ff fb05 	bl	10002594 <_out_rev>
10002f8a:	b017      	add	sp, #92	; 0x5c
10002f8c:	bc0c      	pop	{r2, r3}
10002f8e:	4690      	mov	r8, r2
10002f90:	469a      	mov	sl, r3
10002f92:	bdf0      	pop	{r4, r5, r6, r7, pc}
10002f94:	9b21      	ldr	r3, [sp, #132]	; 0x84
10002f96:	2b00      	cmp	r3, #0
10002f98:	d00a      	beq.n	10002fb0 <_ftoa+0x2e4>
10002f9a:	4653      	mov	r3, sl
10002f9c:	2b00      	cmp	r3, #0
10002f9e:	d102      	bne.n	10002fa6 <_ftoa+0x2da>
10002fa0:	330c      	adds	r3, #12
10002fa2:	4213      	tst	r3, r2
10002fa4:	d00e      	beq.n	10002fc4 <_ftoa+0x2f8>
10002fa6:	9b21      	ldr	r3, [sp, #132]	; 0x84
10002fa8:	3b01      	subs	r3, #1
10002faa:	9321      	str	r3, [sp, #132]	; 0x84
10002fac:	0019      	movs	r1, r3
10002fae:	e000      	b.n	10002fb2 <_ftoa+0x2e6>
10002fb0:	9921      	ldr	r1, [sp, #132]	; 0x84
10002fb2:	428e      	cmp	r6, r1
10002fb4:	d2d3      	bcs.n	10002f5e <_ftoa+0x292>
10002fb6:	2e1f      	cmp	r6, #31
10002fb8:	d8d1      	bhi.n	10002f5e <_ftoa+0x292>
10002fba:	ab0e      	add	r3, sp, #56	; 0x38
10002fbc:	2230      	movs	r2, #48	; 0x30
10002fbe:	559a      	strb	r2, [r3, r6]
10002fc0:	3601      	adds	r6, #1
10002fc2:	e7f6      	b.n	10002fb2 <_ftoa+0x2e6>
10002fc4:	9921      	ldr	r1, [sp, #132]	; 0x84
10002fc6:	e7f4      	b.n	10002fb2 <_ftoa+0x2e6>
10002fc8:	9b22      	ldr	r3, [sp, #136]	; 0x88
10002fca:	075b      	lsls	r3, r3, #29
10002fcc:	d504      	bpl.n	10002fd8 <_ftoa+0x30c>
10002fce:	ab0e      	add	r3, sp, #56	; 0x38
10002fd0:	222b      	movs	r2, #43	; 0x2b
10002fd2:	559a      	strb	r2, [r3, r6]
10002fd4:	3601      	adds	r6, #1
10002fd6:	e7cb      	b.n	10002f70 <_ftoa+0x2a4>
10002fd8:	9b22      	ldr	r3, [sp, #136]	; 0x88
10002fda:	071b      	lsls	r3, r3, #28
10002fdc:	d5c8      	bpl.n	10002f70 <_ftoa+0x2a4>
10002fde:	ab0e      	add	r3, sp, #56	; 0x38
10002fe0:	2220      	movs	r2, #32
10002fe2:	559a      	strb	r2, [r3, r6]
10002fe4:	3601      	adds	r6, #1
10002fe6:	e7c3      	b.n	10002f70 <_ftoa+0x2a4>
10002fe8:	ffefffff 	.word	0xffefffff
10002fec:	7fefffff 	.word	0x7fefffff
10002ff0:	41cdcd65 	.word	0x41cdcd65
10002ff4:	c1cdcd65 	.word	0xc1cdcd65
10002ff8:	10009a2c 	.word	0x10009a2c
10002ffc:	10009a30 	.word	0x10009a30
10003000:	10009a24 	.word	0x10009a24
10003004:	10009a20 	.word	0x10009a20
10003008:	10009a38 	.word	0x10009a38
1000300c:	3fe00000 	.word	0x3fe00000

10003010 <_vsnprintf>:
10003010:	b5f0      	push	{r4, r5, r6, r7, lr}
10003012:	46de      	mov	lr, fp
10003014:	4657      	mov	r7, sl
10003016:	464e      	mov	r6, r9
10003018:	4645      	mov	r5, r8
1000301a:	b5e0      	push	{r5, r6, r7, lr}
1000301c:	b093      	sub	sp, #76	; 0x4c
1000301e:	4683      	mov	fp, r0
10003020:	910b      	str	r1, [sp, #44]	; 0x2c
10003022:	920a      	str	r2, [sp, #40]	; 0x28
10003024:	9311      	str	r3, [sp, #68]	; 0x44
10003026:	2900      	cmp	r1, #0
10003028:	d100      	bne.n	1000302c <_vsnprintf+0x1c>
1000302a:	e2e6      	b.n	100035fa <_vsnprintf+0x5ea>
1000302c:	2700      	movs	r7, #0
1000302e:	465c      	mov	r4, fp
10003030:	9b11      	ldr	r3, [sp, #68]	; 0x44
10003032:	7818      	ldrb	r0, [r3, #0]
10003034:	2800      	cmp	r0, #0
10003036:	d100      	bne.n	1000303a <_vsnprintf+0x2a>
10003038:	e2e2      	b.n	10003600 <_vsnprintf+0x5f0>
1000303a:	2825      	cmp	r0, #37	; 0x25
1000303c:	d009      	beq.n	10003052 <_vsnprintf+0x42>
1000303e:	1c7d      	adds	r5, r7, #1
10003040:	9b0a      	ldr	r3, [sp, #40]	; 0x28
10003042:	003a      	movs	r2, r7
10003044:	990b      	ldr	r1, [sp, #44]	; 0x2c
10003046:	47a0      	blx	r4
10003048:	9b11      	ldr	r3, [sp, #68]	; 0x44
1000304a:	3301      	adds	r3, #1
1000304c:	9311      	str	r3, [sp, #68]	; 0x44
1000304e:	002f      	movs	r7, r5
10003050:	e7ee      	b.n	10003030 <_vsnprintf+0x20>
10003052:	3301      	adds	r3, #1
10003054:	9311      	str	r3, [sp, #68]	; 0x44
10003056:	2600      	movs	r6, #0
10003058:	e01d      	b.n	10003096 <_vsnprintf+0x86>
1000305a:	000b      	movs	r3, r1
1000305c:	3b30      	subs	r3, #48	; 0x30
1000305e:	b2db      	uxtb	r3, r3
10003060:	2b09      	cmp	r3, #9
10003062:	d937      	bls.n	100030d4 <_vsnprintf+0xc4>
10003064:	292a      	cmp	r1, #42	; 0x2a
10003066:	d03a      	beq.n	100030de <_vsnprintf+0xce>
10003068:	2300      	movs	r3, #0
1000306a:	469b      	mov	fp, r3
1000306c:	9b11      	ldr	r3, [sp, #68]	; 0x44
1000306e:	781a      	ldrb	r2, [r3, #0]
10003070:	2a2e      	cmp	r2, #46	; 0x2e
10003072:	d044      	beq.n	100030fe <_vsnprintf+0xee>
10003074:	2300      	movs	r3, #0
10003076:	4698      	mov	r8, r3
10003078:	9a11      	ldr	r2, [sp, #68]	; 0x44
1000307a:	7813      	ldrb	r3, [r2, #0]
1000307c:	3b68      	subs	r3, #104	; 0x68
1000307e:	b2d9      	uxtb	r1, r3
10003080:	2912      	cmp	r1, #18
10003082:	d900      	bls.n	10003086 <_vsnprintf+0x76>
10003084:	e080      	b.n	10003188 <_vsnprintf+0x178>
10003086:	008b      	lsls	r3, r1, #2
10003088:	49cb      	ldr	r1, [pc, #812]	; (100033b8 <_vsnprintf+0x3a8>)
1000308a:	58cb      	ldr	r3, [r1, r3]
1000308c:	469f      	mov	pc, r3
1000308e:	2301      	movs	r3, #1
10003090:	431e      	orrs	r6, r3
10003092:	3201      	adds	r2, #1
10003094:	9211      	str	r2, [sp, #68]	; 0x44
10003096:	9a11      	ldr	r2, [sp, #68]	; 0x44
10003098:	7811      	ldrb	r1, [r2, #0]
1000309a:	000b      	movs	r3, r1
1000309c:	3b20      	subs	r3, #32
1000309e:	b2d8      	uxtb	r0, r3
100030a0:	2810      	cmp	r0, #16
100030a2:	d8da      	bhi.n	1000305a <_vsnprintf+0x4a>
100030a4:	0083      	lsls	r3, r0, #2
100030a6:	48c5      	ldr	r0, [pc, #788]	; (100033bc <_vsnprintf+0x3ac>)
100030a8:	58c3      	ldr	r3, [r0, r3]
100030aa:	469f      	mov	pc, r3
100030ac:	2302      	movs	r3, #2
100030ae:	431e      	orrs	r6, r3
100030b0:	3201      	adds	r2, #1
100030b2:	9211      	str	r2, [sp, #68]	; 0x44
100030b4:	e7ef      	b.n	10003096 <_vsnprintf+0x86>
100030b6:	2304      	movs	r3, #4
100030b8:	431e      	orrs	r6, r3
100030ba:	3201      	adds	r2, #1
100030bc:	9211      	str	r2, [sp, #68]	; 0x44
100030be:	e7ea      	b.n	10003096 <_vsnprintf+0x86>
100030c0:	2308      	movs	r3, #8
100030c2:	431e      	orrs	r6, r3
100030c4:	3201      	adds	r2, #1
100030c6:	9211      	str	r2, [sp, #68]	; 0x44
100030c8:	e7e5      	b.n	10003096 <_vsnprintf+0x86>
100030ca:	2310      	movs	r3, #16
100030cc:	431e      	orrs	r6, r3
100030ce:	3201      	adds	r2, #1
100030d0:	9211      	str	r2, [sp, #68]	; 0x44
100030d2:	e7e0      	b.n	10003096 <_vsnprintf+0x86>
100030d4:	a811      	add	r0, sp, #68	; 0x44
100030d6:	f7ff fa49 	bl	1000256c <_atoi>
100030da:	4683      	mov	fp, r0
100030dc:	e7c6      	b.n	1000306c <_vsnprintf+0x5c>
100030de:	9b1c      	ldr	r3, [sp, #112]	; 0x70
100030e0:	1d1a      	adds	r2, r3, #4
100030e2:	921c      	str	r2, [sp, #112]	; 0x70
100030e4:	681b      	ldr	r3, [r3, #0]
100030e6:	2b00      	cmp	r3, #0
100030e8:	db04      	blt.n	100030f4 <_vsnprintf+0xe4>
100030ea:	469b      	mov	fp, r3
100030ec:	9b11      	ldr	r3, [sp, #68]	; 0x44
100030ee:	3301      	adds	r3, #1
100030f0:	9311      	str	r3, [sp, #68]	; 0x44
100030f2:	e7bb      	b.n	1000306c <_vsnprintf+0x5c>
100030f4:	2202      	movs	r2, #2
100030f6:	4316      	orrs	r6, r2
100030f8:	425b      	negs	r3, r3
100030fa:	469b      	mov	fp, r3
100030fc:	e7f6      	b.n	100030ec <_vsnprintf+0xdc>
100030fe:	2280      	movs	r2, #128	; 0x80
10003100:	00d2      	lsls	r2, r2, #3
10003102:	4316      	orrs	r6, r2
10003104:	1c5a      	adds	r2, r3, #1
10003106:	9211      	str	r2, [sp, #68]	; 0x44
10003108:	785a      	ldrb	r2, [r3, #1]
1000310a:	0013      	movs	r3, r2
1000310c:	3b30      	subs	r3, #48	; 0x30
1000310e:	b2db      	uxtb	r3, r3
10003110:	2b09      	cmp	r3, #9
10003112:	d904      	bls.n	1000311e <_vsnprintf+0x10e>
10003114:	2a2a      	cmp	r2, #42	; 0x2a
10003116:	d007      	beq.n	10003128 <_vsnprintf+0x118>
10003118:	2300      	movs	r3, #0
1000311a:	4698      	mov	r8, r3
1000311c:	e7ac      	b.n	10003078 <_vsnprintf+0x68>
1000311e:	a811      	add	r0, sp, #68	; 0x44
10003120:	f7ff fa24 	bl	1000256c <_atoi>
10003124:	4680      	mov	r8, r0
10003126:	e7a7      	b.n	10003078 <_vsnprintf+0x68>
10003128:	9b1c      	ldr	r3, [sp, #112]	; 0x70
1000312a:	1d1a      	adds	r2, r3, #4
1000312c:	921c      	str	r2, [sp, #112]	; 0x70
1000312e:	681b      	ldr	r3, [r3, #0]
10003130:	2b00      	cmp	r3, #0
10003132:	db04      	blt.n	1000313e <_vsnprintf+0x12e>
10003134:	4698      	mov	r8, r3
10003136:	9b11      	ldr	r3, [sp, #68]	; 0x44
10003138:	3301      	adds	r3, #1
1000313a:	9311      	str	r3, [sp, #68]	; 0x44
1000313c:	e79c      	b.n	10003078 <_vsnprintf+0x68>
1000313e:	2300      	movs	r3, #0
10003140:	e7f8      	b.n	10003134 <_vsnprintf+0x124>
10003142:	2380      	movs	r3, #128	; 0x80
10003144:	005b      	lsls	r3, r3, #1
10003146:	4333      	orrs	r3, r6
10003148:	1c51      	adds	r1, r2, #1
1000314a:	9111      	str	r1, [sp, #68]	; 0x44
1000314c:	7852      	ldrb	r2, [r2, #1]
1000314e:	2a6c      	cmp	r2, #108	; 0x6c
10003150:	d001      	beq.n	10003156 <_vsnprintf+0x146>
10003152:	001e      	movs	r6, r3
10003154:	e018      	b.n	10003188 <_vsnprintf+0x178>
10003156:	23c0      	movs	r3, #192	; 0xc0
10003158:	009b      	lsls	r3, r3, #2
1000315a:	431e      	orrs	r6, r3
1000315c:	3101      	adds	r1, #1
1000315e:	9111      	str	r1, [sp, #68]	; 0x44
10003160:	e012      	b.n	10003188 <_vsnprintf+0x178>
10003162:	2380      	movs	r3, #128	; 0x80
10003164:	4333      	orrs	r3, r6
10003166:	1c51      	adds	r1, r2, #1
10003168:	9111      	str	r1, [sp, #68]	; 0x44
1000316a:	7852      	ldrb	r2, [r2, #1]
1000316c:	2a68      	cmp	r2, #104	; 0x68
1000316e:	d001      	beq.n	10003174 <_vsnprintf+0x164>
10003170:	001e      	movs	r6, r3
10003172:	e009      	b.n	10003188 <_vsnprintf+0x178>
10003174:	23c0      	movs	r3, #192	; 0xc0
10003176:	431e      	orrs	r6, r3
10003178:	3101      	adds	r1, #1
1000317a:	9111      	str	r1, [sp, #68]	; 0x44
1000317c:	e004      	b.n	10003188 <_vsnprintf+0x178>
1000317e:	2380      	movs	r3, #128	; 0x80
10003180:	005b      	lsls	r3, r3, #1
10003182:	431e      	orrs	r6, r3
10003184:	3201      	adds	r2, #1
10003186:	9211      	str	r2, [sp, #68]	; 0x44
10003188:	9b11      	ldr	r3, [sp, #68]	; 0x44
1000318a:	7818      	ldrb	r0, [r3, #0]
1000318c:	0003      	movs	r3, r0
1000318e:	3b25      	subs	r3, #37	; 0x25
10003190:	b2da      	uxtb	r2, r3
10003192:	2a53      	cmp	r2, #83	; 0x53
10003194:	d900      	bls.n	10003198 <_vsnprintf+0x188>
10003196:	e226      	b.n	100035e6 <_vsnprintf+0x5d6>
10003198:	0093      	lsls	r3, r2, #2
1000319a:	4a89      	ldr	r2, [pc, #548]	; (100033c0 <_vsnprintf+0x3b0>)
1000319c:	58d3      	ldr	r3, [r2, r3]
1000319e:	469f      	mov	pc, r3
100031a0:	2380      	movs	r3, #128	; 0x80
100031a2:	009b      	lsls	r3, r3, #2
100031a4:	431e      	orrs	r6, r3
100031a6:	3201      	adds	r2, #1
100031a8:	9211      	str	r2, [sp, #68]	; 0x44
100031aa:	e7ed      	b.n	10003188 <_vsnprintf+0x178>
100031ac:	2380      	movs	r3, #128	; 0x80
100031ae:	005b      	lsls	r3, r3, #1
100031b0:	431e      	orrs	r6, r3
100031b2:	3201      	adds	r2, #1
100031b4:	9211      	str	r2, [sp, #68]	; 0x44
100031b6:	e7e7      	b.n	10003188 <_vsnprintf+0x178>
100031b8:	2878      	cmp	r0, #120	; 0x78
100031ba:	d009      	beq.n	100031d0 <_vsnprintf+0x1c0>
100031bc:	2858      	cmp	r0, #88	; 0x58
100031be:	d038      	beq.n	10003232 <_vsnprintf+0x222>
100031c0:	286f      	cmp	r0, #111	; 0x6f
100031c2:	d038      	beq.n	10003236 <_vsnprintf+0x226>
100031c4:	2862      	cmp	r0, #98	; 0x62
100031c6:	d038      	beq.n	1000323a <_vsnprintf+0x22a>
100031c8:	2310      	movs	r3, #16
100031ca:	439e      	bics	r6, r3
100031cc:	250a      	movs	r5, #10
100031ce:	e000      	b.n	100031d2 <_vsnprintf+0x1c2>
100031d0:	2510      	movs	r5, #16
100031d2:	2858      	cmp	r0, #88	; 0x58
100031d4:	d033      	beq.n	1000323e <_vsnprintf+0x22e>
100031d6:	2869      	cmp	r0, #105	; 0x69
100031d8:	d003      	beq.n	100031e2 <_vsnprintf+0x1d2>
100031da:	2864      	cmp	r0, #100	; 0x64
100031dc:	d001      	beq.n	100031e2 <_vsnprintf+0x1d2>
100031de:	220c      	movs	r2, #12
100031e0:	4396      	bics	r6, r2
100031e2:	0573      	lsls	r3, r6, #21
100031e4:	d501      	bpl.n	100031ea <_vsnprintf+0x1da>
100031e6:	2201      	movs	r2, #1
100031e8:	4396      	bics	r6, r2
100031ea:	2869      	cmp	r0, #105	; 0x69
100031ec:	d02a      	beq.n	10003244 <_vsnprintf+0x234>
100031ee:	2864      	cmp	r0, #100	; 0x64
100031f0:	d028      	beq.n	10003244 <_vsnprintf+0x234>
100031f2:	05b3      	lsls	r3, r6, #22
100031f4:	d500      	bpl.n	100031f8 <_vsnprintf+0x1e8>
100031f6:	e09f      	b.n	10003338 <_vsnprintf+0x328>
100031f8:	05f3      	lsls	r3, r6, #23
100031fa:	d500      	bpl.n	100031fe <_vsnprintf+0x1ee>
100031fc:	e0b8      	b.n	10003370 <_vsnprintf+0x360>
100031fe:	0673      	lsls	r3, r6, #25
10003200:	d400      	bmi.n	10003204 <_vsnprintf+0x1f4>
10003202:	e0ca      	b.n	1000339a <_vsnprintf+0x38a>
10003204:	9a1c      	ldr	r2, [sp, #112]	; 0x70
10003206:	1d11      	adds	r1, r2, #4
10003208:	911c      	str	r1, [sp, #112]	; 0x70
1000320a:	6811      	ldr	r1, [r2, #0]
1000320c:	22ff      	movs	r2, #255	; 0xff
1000320e:	400a      	ands	r2, r1
10003210:	9605      	str	r6, [sp, #20]
10003212:	465b      	mov	r3, fp
10003214:	9304      	str	r3, [sp, #16]
10003216:	4643      	mov	r3, r8
10003218:	9303      	str	r3, [sp, #12]
1000321a:	9502      	str	r5, [sp, #8]
1000321c:	2300      	movs	r3, #0
1000321e:	9301      	str	r3, [sp, #4]
10003220:	9200      	str	r2, [sp, #0]
10003222:	9b0a      	ldr	r3, [sp, #40]	; 0x28
10003224:	003a      	movs	r2, r7
10003226:	990b      	ldr	r1, [sp, #44]	; 0x2c
10003228:	0020      	movs	r0, r4
1000322a:	f7ff fa7f 	bl	1000272c <_ntoa_long>
1000322e:	0007      	movs	r7, r0
10003230:	e027      	b.n	10003282 <_vsnprintf+0x272>
10003232:	2510      	movs	r5, #16
10003234:	e7cd      	b.n	100031d2 <_vsnprintf+0x1c2>
10003236:	2508      	movs	r5, #8
10003238:	e7cb      	b.n	100031d2 <_vsnprintf+0x1c2>
1000323a:	2502      	movs	r5, #2
1000323c:	e7c9      	b.n	100031d2 <_vsnprintf+0x1c2>
1000323e:	2220      	movs	r2, #32
10003240:	4316      	orrs	r6, r2
10003242:	e7c8      	b.n	100031d6 <_vsnprintf+0x1c6>
10003244:	05b3      	lsls	r3, r6, #22
10003246:	d420      	bmi.n	1000328a <_vsnprintf+0x27a>
10003248:	05f3      	lsls	r3, r6, #23
1000324a:	d450      	bmi.n	100032ee <_vsnprintf+0x2de>
1000324c:	0673      	lsls	r3, r6, #25
1000324e:	d566      	bpl.n	1000331e <_vsnprintf+0x30e>
10003250:	9a1c      	ldr	r2, [sp, #112]	; 0x70
10003252:	1d11      	adds	r1, r2, #4
10003254:	911c      	str	r1, [sp, #112]	; 0x70
10003256:	6811      	ldr	r1, [r2, #0]
10003258:	22ff      	movs	r2, #255	; 0xff
1000325a:	400a      	ands	r2, r1
1000325c:	17d3      	asrs	r3, r2, #31
1000325e:	18d1      	adds	r1, r2, r3
10003260:	4059      	eors	r1, r3
10003262:	9605      	str	r6, [sp, #20]
10003264:	465b      	mov	r3, fp
10003266:	9304      	str	r3, [sp, #16]
10003268:	4643      	mov	r3, r8
1000326a:	9303      	str	r3, [sp, #12]
1000326c:	9502      	str	r5, [sp, #8]
1000326e:	0fd2      	lsrs	r2, r2, #31
10003270:	9201      	str	r2, [sp, #4]
10003272:	9100      	str	r1, [sp, #0]
10003274:	9b0a      	ldr	r3, [sp, #40]	; 0x28
10003276:	003a      	movs	r2, r7
10003278:	990b      	ldr	r1, [sp, #44]	; 0x2c
1000327a:	0020      	movs	r0, r4
1000327c:	f7ff fa56 	bl	1000272c <_ntoa_long>
10003280:	0007      	movs	r7, r0
10003282:	9b11      	ldr	r3, [sp, #68]	; 0x44
10003284:	3301      	adds	r3, #1
10003286:	9311      	str	r3, [sp, #68]	; 0x44
10003288:	e6d2      	b.n	10003030 <_vsnprintf+0x20>
1000328a:	9b1c      	ldr	r3, [sp, #112]	; 0x70
1000328c:	1dda      	adds	r2, r3, #7
1000328e:	2107      	movs	r1, #7
10003290:	438a      	bics	r2, r1
10003292:	0011      	movs	r1, r2
10003294:	3108      	adds	r1, #8
10003296:	911c      	str	r1, [sp, #112]	; 0x70
10003298:	6811      	ldr	r1, [r2, #0]
1000329a:	6853      	ldr	r3, [r2, #4]
1000329c:	469c      	mov	ip, r3
1000329e:	17db      	asrs	r3, r3, #31
100032a0:	930c      	str	r3, [sp, #48]	; 0x30
100032a2:	930d      	str	r3, [sp, #52]	; 0x34
100032a4:	9a0c      	ldr	r2, [sp, #48]	; 0x30
100032a6:	9b0d      	ldr	r3, [sp, #52]	; 0x34
100032a8:	0010      	movs	r0, r2
100032aa:	4048      	eors	r0, r1
100032ac:	900e      	str	r0, [sp, #56]	; 0x38
100032ae:	4662      	mov	r2, ip
100032b0:	4053      	eors	r3, r2
100032b2:	930f      	str	r3, [sp, #60]	; 0x3c
100032b4:	980e      	ldr	r0, [sp, #56]	; 0x38
100032b6:	990f      	ldr	r1, [sp, #60]	; 0x3c
100032b8:	9a0c      	ldr	r2, [sp, #48]	; 0x30
100032ba:	9b0d      	ldr	r3, [sp, #52]	; 0x34
100032bc:	1a80      	subs	r0, r0, r2
100032be:	4199      	sbcs	r1, r3
100032c0:	900e      	str	r0, [sp, #56]	; 0x38
100032c2:	910f      	str	r1, [sp, #60]	; 0x3c
100032c4:	9608      	str	r6, [sp, #32]
100032c6:	465b      	mov	r3, fp
100032c8:	9307      	str	r3, [sp, #28]
100032ca:	4643      	mov	r3, r8
100032cc:	9306      	str	r3, [sp, #24]
100032ce:	9504      	str	r5, [sp, #16]
100032d0:	2300      	movs	r3, #0
100032d2:	9305      	str	r3, [sp, #20]
100032d4:	4663      	mov	r3, ip
100032d6:	0fda      	lsrs	r2, r3, #31
100032d8:	9202      	str	r2, [sp, #8]
100032da:	9000      	str	r0, [sp, #0]
100032dc:	9101      	str	r1, [sp, #4]
100032de:	9b0a      	ldr	r3, [sp, #40]	; 0x28
100032e0:	003a      	movs	r2, r7
100032e2:	990b      	ldr	r1, [sp, #44]	; 0x2c
100032e4:	0020      	movs	r0, r4
100032e6:	f7ff fa79 	bl	100027dc <_ntoa_long_long>
100032ea:	0007      	movs	r7, r0
100032ec:	e7c9      	b.n	10003282 <_vsnprintf+0x272>
100032ee:	9a1c      	ldr	r2, [sp, #112]	; 0x70
100032f0:	1d11      	adds	r1, r2, #4
100032f2:	911c      	str	r1, [sp, #112]	; 0x70
100032f4:	6812      	ldr	r2, [r2, #0]
100032f6:	17d3      	asrs	r3, r2, #31
100032f8:	18d1      	adds	r1, r2, r3
100032fa:	4059      	eors	r1, r3
100032fc:	9605      	str	r6, [sp, #20]
100032fe:	465b      	mov	r3, fp
10003300:	9304      	str	r3, [sp, #16]
10003302:	4643      	mov	r3, r8
10003304:	9303      	str	r3, [sp, #12]
10003306:	9502      	str	r5, [sp, #8]
10003308:	0fd2      	lsrs	r2, r2, #31
1000330a:	9201      	str	r2, [sp, #4]
1000330c:	9100      	str	r1, [sp, #0]
1000330e:	9b0a      	ldr	r3, [sp, #40]	; 0x28
10003310:	003a      	movs	r2, r7
10003312:	990b      	ldr	r1, [sp, #44]	; 0x2c
10003314:	0020      	movs	r0, r4
10003316:	f7ff fa09 	bl	1000272c <_ntoa_long>
1000331a:	0007      	movs	r7, r0
1000331c:	e7b1      	b.n	10003282 <_vsnprintf+0x272>
1000331e:	0633      	lsls	r3, r6, #24
10003320:	d505      	bpl.n	1000332e <_vsnprintf+0x31e>
10003322:	9a1c      	ldr	r2, [sp, #112]	; 0x70
10003324:	1d11      	adds	r1, r2, #4
10003326:	911c      	str	r1, [sp, #112]	; 0x70
10003328:	2300      	movs	r3, #0
1000332a:	5ed2      	ldrsh	r2, [r2, r3]
1000332c:	e796      	b.n	1000325c <_vsnprintf+0x24c>
1000332e:	9a1c      	ldr	r2, [sp, #112]	; 0x70
10003330:	1d11      	adds	r1, r2, #4
10003332:	911c      	str	r1, [sp, #112]	; 0x70
10003334:	6812      	ldr	r2, [r2, #0]
10003336:	e791      	b.n	1000325c <_vsnprintf+0x24c>
10003338:	9b1c      	ldr	r3, [sp, #112]	; 0x70
1000333a:	1dda      	adds	r2, r3, #7
1000333c:	2107      	movs	r1, #7
1000333e:	438a      	bics	r2, r1
10003340:	0011      	movs	r1, r2
10003342:	3108      	adds	r1, #8
10003344:	911c      	str	r1, [sp, #112]	; 0x70
10003346:	9608      	str	r6, [sp, #32]
10003348:	465b      	mov	r3, fp
1000334a:	9307      	str	r3, [sp, #28]
1000334c:	4643      	mov	r3, r8
1000334e:	9306      	str	r3, [sp, #24]
10003350:	9504      	str	r5, [sp, #16]
10003352:	2300      	movs	r3, #0
10003354:	9305      	str	r3, [sp, #20]
10003356:	9302      	str	r3, [sp, #8]
10003358:	6853      	ldr	r3, [r2, #4]
1000335a:	6812      	ldr	r2, [r2, #0]
1000335c:	9200      	str	r2, [sp, #0]
1000335e:	9301      	str	r3, [sp, #4]
10003360:	9b0a      	ldr	r3, [sp, #40]	; 0x28
10003362:	003a      	movs	r2, r7
10003364:	990b      	ldr	r1, [sp, #44]	; 0x2c
10003366:	0020      	movs	r0, r4
10003368:	f7ff fa38 	bl	100027dc <_ntoa_long_long>
1000336c:	0007      	movs	r7, r0
1000336e:	e788      	b.n	10003282 <_vsnprintf+0x272>
10003370:	9a1c      	ldr	r2, [sp, #112]	; 0x70
10003372:	1d11      	adds	r1, r2, #4
10003374:	911c      	str	r1, [sp, #112]	; 0x70
10003376:	9605      	str	r6, [sp, #20]
10003378:	465b      	mov	r3, fp
1000337a:	9304      	str	r3, [sp, #16]
1000337c:	4643      	mov	r3, r8
1000337e:	9303      	str	r3, [sp, #12]
10003380:	9502      	str	r5, [sp, #8]
10003382:	2300      	movs	r3, #0
10003384:	9301      	str	r3, [sp, #4]
10003386:	6813      	ldr	r3, [r2, #0]
10003388:	9300      	str	r3, [sp, #0]
1000338a:	9b0a      	ldr	r3, [sp, #40]	; 0x28
1000338c:	003a      	movs	r2, r7
1000338e:	990b      	ldr	r1, [sp, #44]	; 0x2c
10003390:	0020      	movs	r0, r4
10003392:	f7ff f9cb 	bl	1000272c <_ntoa_long>
10003396:	0007      	movs	r7, r0
10003398:	e773      	b.n	10003282 <_vsnprintf+0x272>
1000339a:	0633      	lsls	r3, r6, #24
1000339c:	d506      	bpl.n	100033ac <_vsnprintf+0x39c>
1000339e:	9a1c      	ldr	r2, [sp, #112]	; 0x70
100033a0:	1d11      	adds	r1, r2, #4
100033a2:	911c      	str	r1, [sp, #112]	; 0x70
100033a4:	6812      	ldr	r2, [r2, #0]
100033a6:	0412      	lsls	r2, r2, #16
100033a8:	0c12      	lsrs	r2, r2, #16
100033aa:	e731      	b.n	10003210 <_vsnprintf+0x200>
100033ac:	9a1c      	ldr	r2, [sp, #112]	; 0x70
100033ae:	1d11      	adds	r1, r2, #4
100033b0:	911c      	str	r1, [sp, #112]	; 0x70
100033b2:	6812      	ldr	r2, [r2, #0]
100033b4:	e72c      	b.n	10003210 <_vsnprintf+0x200>
100033b6:	46c0      	nop			; (mov r8, r8)
100033b8:	10009840 	.word	0x10009840
100033bc:	1000988c 	.word	0x1000988c
100033c0:	100098d0 	.word	0x100098d0
100033c4:	2846      	cmp	r0, #70	; 0x46
100033c6:	d01a      	beq.n	100033fe <_vsnprintf+0x3ee>
100033c8:	9b1c      	ldr	r3, [sp, #112]	; 0x70
100033ca:	3307      	adds	r3, #7
100033cc:	2207      	movs	r2, #7
100033ce:	4393      	bics	r3, r2
100033d0:	001a      	movs	r2, r3
100033d2:	3208      	adds	r2, #8
100033d4:	921c      	str	r2, [sp, #112]	; 0x70
100033d6:	9604      	str	r6, [sp, #16]
100033d8:	465a      	mov	r2, fp
100033da:	9203      	str	r2, [sp, #12]
100033dc:	4642      	mov	r2, r8
100033de:	9202      	str	r2, [sp, #8]
100033e0:	681a      	ldr	r2, [r3, #0]
100033e2:	685b      	ldr	r3, [r3, #4]
100033e4:	9200      	str	r2, [sp, #0]
100033e6:	9301      	str	r3, [sp, #4]
100033e8:	9b0a      	ldr	r3, [sp, #40]	; 0x28
100033ea:	003a      	movs	r2, r7
100033ec:	990b      	ldr	r1, [sp, #44]	; 0x2c
100033ee:	0020      	movs	r0, r4
100033f0:	f7ff fc6c 	bl	10002ccc <_ftoa>
100033f4:	0007      	movs	r7, r0
100033f6:	9b11      	ldr	r3, [sp, #68]	; 0x44
100033f8:	3301      	adds	r3, #1
100033fa:	9311      	str	r3, [sp, #68]	; 0x44
100033fc:	e618      	b.n	10003030 <_vsnprintf+0x20>
100033fe:	2320      	movs	r3, #32
10003400:	431e      	orrs	r6, r3
10003402:	e7e1      	b.n	100033c8 <_vsnprintf+0x3b8>
10003404:	2867      	cmp	r0, #103	; 0x67
10003406:	d001      	beq.n	1000340c <_vsnprintf+0x3fc>
10003408:	2847      	cmp	r0, #71	; 0x47
1000340a:	d102      	bne.n	10003412 <_vsnprintf+0x402>
1000340c:	2380      	movs	r3, #128	; 0x80
1000340e:	011b      	lsls	r3, r3, #4
10003410:	431e      	orrs	r6, r3
10003412:	2845      	cmp	r0, #69	; 0x45
10003414:	d001      	beq.n	1000341a <_vsnprintf+0x40a>
10003416:	2847      	cmp	r0, #71	; 0x47
10003418:	d101      	bne.n	1000341e <_vsnprintf+0x40e>
1000341a:	2320      	movs	r3, #32
1000341c:	431e      	orrs	r6, r3
1000341e:	9b1c      	ldr	r3, [sp, #112]	; 0x70
10003420:	3307      	adds	r3, #7
10003422:	2207      	movs	r2, #7
10003424:	4393      	bics	r3, r2
10003426:	001a      	movs	r2, r3
10003428:	3208      	adds	r2, #8
1000342a:	921c      	str	r2, [sp, #112]	; 0x70
1000342c:	9604      	str	r6, [sp, #16]
1000342e:	465a      	mov	r2, fp
10003430:	9203      	str	r2, [sp, #12]
10003432:	4642      	mov	r2, r8
10003434:	9202      	str	r2, [sp, #8]
10003436:	681a      	ldr	r2, [r3, #0]
10003438:	685b      	ldr	r3, [r3, #4]
1000343a:	9200      	str	r2, [sp, #0]
1000343c:	9301      	str	r3, [sp, #4]
1000343e:	9b0a      	ldr	r3, [sp, #40]	; 0x28
10003440:	003a      	movs	r2, r7
10003442:	990b      	ldr	r1, [sp, #44]	; 0x2c
10003444:	0020      	movs	r0, r4
10003446:	f7ff fa3d 	bl	100028c4 <_etoa>
1000344a:	0007      	movs	r7, r0
1000344c:	9b11      	ldr	r3, [sp, #68]	; 0x44
1000344e:	3301      	adds	r3, #1
10003450:	9311      	str	r3, [sp, #68]	; 0x44
10003452:	e5ed      	b.n	10003030 <_vsnprintf+0x20>
10003454:	2302      	movs	r3, #2
10003456:	4033      	ands	r3, r6
10003458:	469a      	mov	sl, r3
1000345a:	d01e      	beq.n	1000349a <_vsnprintf+0x48a>
1000345c:	2601      	movs	r6, #1
1000345e:	9b1c      	ldr	r3, [sp, #112]	; 0x70
10003460:	1d1a      	adds	r2, r3, #4
10003462:	921c      	str	r2, [sp, #112]	; 0x70
10003464:	1c7d      	adds	r5, r7, #1
10003466:	7818      	ldrb	r0, [r3, #0]
10003468:	9b0a      	ldr	r3, [sp, #40]	; 0x28
1000346a:	003a      	movs	r2, r7
1000346c:	990b      	ldr	r1, [sp, #44]	; 0x2c
1000346e:	47a0      	blx	r4
10003470:	4653      	mov	r3, sl
10003472:	2b00      	cmp	r3, #0
10003474:	d115      	bne.n	100034a2 <_vsnprintf+0x492>
10003476:	9b11      	ldr	r3, [sp, #68]	; 0x44
10003478:	3301      	adds	r3, #1
1000347a:	9311      	str	r3, [sp, #68]	; 0x44
1000347c:	002f      	movs	r7, r5
1000347e:	e5d7      	b.n	10003030 <_vsnprintf+0x20>
10003480:	1c55      	adds	r5, r2, #1
10003482:	9b0a      	ldr	r3, [sp, #40]	; 0x28
10003484:	990b      	ldr	r1, [sp, #44]	; 0x2c
10003486:	2020      	movs	r0, #32
10003488:	47a0      	blx	r4
1000348a:	0033      	movs	r3, r6
1000348c:	002a      	movs	r2, r5
1000348e:	1c5e      	adds	r6, r3, #1
10003490:	429f      	cmp	r7, r3
10003492:	d8f5      	bhi.n	10003480 <_vsnprintf+0x470>
10003494:	46bb      	mov	fp, r7
10003496:	0017      	movs	r7, r2
10003498:	e7e1      	b.n	1000345e <_vsnprintf+0x44e>
1000349a:	2301      	movs	r3, #1
1000349c:	003a      	movs	r2, r7
1000349e:	465f      	mov	r7, fp
100034a0:	e7f5      	b.n	1000348e <_vsnprintf+0x47e>
100034a2:	002a      	movs	r2, r5
100034a4:	46a0      	mov	r8, r4
100034a6:	465c      	mov	r4, fp
100034a8:	e006      	b.n	100034b8 <_vsnprintf+0x4a8>
100034aa:	1c57      	adds	r7, r2, #1
100034ac:	9b0a      	ldr	r3, [sp, #40]	; 0x28
100034ae:	990b      	ldr	r1, [sp, #44]	; 0x2c
100034b0:	2020      	movs	r0, #32
100034b2:	47c0      	blx	r8
100034b4:	002e      	movs	r6, r5
100034b6:	003a      	movs	r2, r7
100034b8:	1c75      	adds	r5, r6, #1
100034ba:	42b4      	cmp	r4, r6
100034bc:	d8f5      	bhi.n	100034aa <_vsnprintf+0x49a>
100034be:	0015      	movs	r5, r2
100034c0:	4644      	mov	r4, r8
100034c2:	e7d8      	b.n	10003476 <_vsnprintf+0x466>
100034c4:	9b1c      	ldr	r3, [sp, #112]	; 0x70
100034c6:	1d1a      	adds	r2, r3, #4
100034c8:	921c      	str	r2, [sp, #112]	; 0x70
100034ca:	681b      	ldr	r3, [r3, #0]
100034cc:	469a      	mov	sl, r3
100034ce:	4643      	mov	r3, r8
100034d0:	2b00      	cmp	r3, #0
100034d2:	d100      	bne.n	100034d6 <_vsnprintf+0x4c6>
100034d4:	3b01      	subs	r3, #1
100034d6:	4655      	mov	r5, sl
100034d8:	782a      	ldrb	r2, [r5, #0]
100034da:	2a00      	cmp	r2, #0
100034dc:	d005      	beq.n	100034ea <_vsnprintf+0x4da>
100034de:	1e5a      	subs	r2, r3, #1
100034e0:	2b00      	cmp	r3, #0
100034e2:	d002      	beq.n	100034ea <_vsnprintf+0x4da>
100034e4:	3501      	adds	r5, #1
100034e6:	0013      	movs	r3, r2
100034e8:	e7f6      	b.n	100034d8 <_vsnprintf+0x4c8>
100034ea:	4653      	mov	r3, sl
100034ec:	1aed      	subs	r5, r5, r3
100034ee:	2380      	movs	r3, #128	; 0x80
100034f0:	00db      	lsls	r3, r3, #3
100034f2:	4033      	ands	r3, r6
100034f4:	4699      	mov	r9, r3
100034f6:	d002      	beq.n	100034fe <_vsnprintf+0x4ee>
100034f8:	4545      	cmp	r5, r8
100034fa:	d900      	bls.n	100034fe <_vsnprintf+0x4ee>
100034fc:	4645      	mov	r5, r8
100034fe:	2302      	movs	r3, #2
10003500:	4033      	ands	r3, r6
10003502:	9310      	str	r3, [sp, #64]	; 0x40
10003504:	d008      	beq.n	10003518 <_vsnprintf+0x508>
10003506:	003a      	movs	r2, r7
10003508:	4656      	mov	r6, sl
1000350a:	0029      	movs	r1, r5
1000350c:	464d      	mov	r5, r9
1000350e:	0023      	movs	r3, r4
10003510:	4644      	mov	r4, r8
10003512:	4698      	mov	r8, r3
10003514:	4689      	mov	r9, r1
10003516:	e01f      	b.n	10003558 <_vsnprintf+0x548>
10003518:	003a      	movs	r2, r7
1000351a:	0023      	movs	r3, r4
1000351c:	465c      	mov	r4, fp
1000351e:	469b      	mov	fp, r3
10003520:	e006      	b.n	10003530 <_vsnprintf+0x520>
10003522:	1c57      	adds	r7, r2, #1
10003524:	9b0a      	ldr	r3, [sp, #40]	; 0x28
10003526:	990b      	ldr	r1, [sp, #44]	; 0x2c
10003528:	2020      	movs	r0, #32
1000352a:	47d8      	blx	fp
1000352c:	0035      	movs	r5, r6
1000352e:	003a      	movs	r2, r7
10003530:	1c6e      	adds	r6, r5, #1
10003532:	42ac      	cmp	r4, r5
10003534:	d8f5      	bhi.n	10003522 <_vsnprintf+0x512>
10003536:	0035      	movs	r5, r6
10003538:	465b      	mov	r3, fp
1000353a:	46a3      	mov	fp, r4
1000353c:	4656      	mov	r6, sl
1000353e:	0029      	movs	r1, r5
10003540:	464d      	mov	r5, r9
10003542:	4644      	mov	r4, r8
10003544:	4698      	mov	r8, r3
10003546:	4689      	mov	r9, r1
10003548:	e006      	b.n	10003558 <_vsnprintf+0x548>
1000354a:	001c      	movs	r4, r3
1000354c:	3601      	adds	r6, #1
1000354e:	1c57      	adds	r7, r2, #1
10003550:	9b0a      	ldr	r3, [sp, #40]	; 0x28
10003552:	990b      	ldr	r1, [sp, #44]	; 0x2c
10003554:	47c0      	blx	r8
10003556:	003a      	movs	r2, r7
10003558:	7830      	ldrb	r0, [r6, #0]
1000355a:	2800      	cmp	r0, #0
1000355c:	d004      	beq.n	10003568 <_vsnprintf+0x558>
1000355e:	2d00      	cmp	r5, #0
10003560:	d0f4      	beq.n	1000354c <_vsnprintf+0x53c>
10003562:	1e63      	subs	r3, r4, #1
10003564:	2c00      	cmp	r4, #0
10003566:	d1f0      	bne.n	1000354a <_vsnprintf+0x53a>
10003568:	0017      	movs	r7, r2
1000356a:	464d      	mov	r5, r9
1000356c:	4644      	mov	r4, r8
1000356e:	9b10      	ldr	r3, [sp, #64]	; 0x40
10003570:	2b00      	cmp	r3, #0
10003572:	d103      	bne.n	1000357c <_vsnprintf+0x56c>
10003574:	9b11      	ldr	r3, [sp, #68]	; 0x44
10003576:	3301      	adds	r3, #1
10003578:	9311      	str	r3, [sp, #68]	; 0x44
1000357a:	e559      	b.n	10003030 <_vsnprintf+0x20>
1000357c:	465c      	mov	r4, fp
1000357e:	e006      	b.n	1000358e <_vsnprintf+0x57e>
10003580:	1c57      	adds	r7, r2, #1
10003582:	9b0a      	ldr	r3, [sp, #40]	; 0x28
10003584:	990b      	ldr	r1, [sp, #44]	; 0x2c
10003586:	2020      	movs	r0, #32
10003588:	47c0      	blx	r8
1000358a:	0035      	movs	r5, r6
1000358c:	003a      	movs	r2, r7
1000358e:	1c6e      	adds	r6, r5, #1
10003590:	42ac      	cmp	r4, r5
10003592:	d8f5      	bhi.n	10003580 <_vsnprintf+0x570>
10003594:	0017      	movs	r7, r2
10003596:	4644      	mov	r4, r8
10003598:	e7ec      	b.n	10003574 <_vsnprintf+0x564>
1000359a:	2321      	movs	r3, #33	; 0x21
1000359c:	4333      	orrs	r3, r6
1000359e:	9a1c      	ldr	r2, [sp, #112]	; 0x70
100035a0:	1d11      	adds	r1, r2, #4
100035a2:	911c      	str	r1, [sp, #112]	; 0x70
100035a4:	6812      	ldr	r2, [r2, #0]
100035a6:	9200      	str	r2, [sp, #0]
100035a8:	9305      	str	r3, [sp, #20]
100035aa:	2308      	movs	r3, #8
100035ac:	9304      	str	r3, [sp, #16]
100035ae:	4643      	mov	r3, r8
100035b0:	9303      	str	r3, [sp, #12]
100035b2:	2310      	movs	r3, #16
100035b4:	9302      	str	r3, [sp, #8]
100035b6:	2300      	movs	r3, #0
100035b8:	9301      	str	r3, [sp, #4]
100035ba:	9b0a      	ldr	r3, [sp, #40]	; 0x28
100035bc:	003a      	movs	r2, r7
100035be:	990b      	ldr	r1, [sp, #44]	; 0x2c
100035c0:	0020      	movs	r0, r4
100035c2:	f7ff f8b3 	bl	1000272c <_ntoa_long>
100035c6:	0007      	movs	r7, r0
100035c8:	9b11      	ldr	r3, [sp, #68]	; 0x44
100035ca:	3301      	adds	r3, #1
100035cc:	9311      	str	r3, [sp, #68]	; 0x44
100035ce:	e52f      	b.n	10003030 <_vsnprintf+0x20>
100035d0:	1c7d      	adds	r5, r7, #1
100035d2:	9b0a      	ldr	r3, [sp, #40]	; 0x28
100035d4:	003a      	movs	r2, r7
100035d6:	990b      	ldr	r1, [sp, #44]	; 0x2c
100035d8:	2025      	movs	r0, #37	; 0x25
100035da:	47a0      	blx	r4
100035dc:	9b11      	ldr	r3, [sp, #68]	; 0x44
100035de:	3301      	adds	r3, #1
100035e0:	9311      	str	r3, [sp, #68]	; 0x44
100035e2:	002f      	movs	r7, r5
100035e4:	e524      	b.n	10003030 <_vsnprintf+0x20>
100035e6:	1c7d      	adds	r5, r7, #1
100035e8:	9b0a      	ldr	r3, [sp, #40]	; 0x28
100035ea:	003a      	movs	r2, r7
100035ec:	990b      	ldr	r1, [sp, #44]	; 0x2c
100035ee:	47a0      	blx	r4
100035f0:	9b11      	ldr	r3, [sp, #68]	; 0x44
100035f2:	3301      	adds	r3, #1
100035f4:	9311      	str	r3, [sp, #68]	; 0x44
100035f6:	002f      	movs	r7, r5
100035f8:	e51a      	b.n	10003030 <_vsnprintf+0x20>
100035fa:	4b0b      	ldr	r3, [pc, #44]	; (10003628 <_vsnprintf+0x618>)
100035fc:	469b      	mov	fp, r3
100035fe:	e515      	b.n	1000302c <_vsnprintf+0x1c>
10003600:	46a3      	mov	fp, r4
10003602:	9b0a      	ldr	r3, [sp, #40]	; 0x28
10003604:	429f      	cmp	r7, r3
10003606:	d30c      	bcc.n	10003622 <_vsnprintf+0x612>
10003608:	1e5a      	subs	r2, r3, #1
1000360a:	9b0a      	ldr	r3, [sp, #40]	; 0x28
1000360c:	990b      	ldr	r1, [sp, #44]	; 0x2c
1000360e:	2000      	movs	r0, #0
10003610:	47d8      	blx	fp
10003612:	0038      	movs	r0, r7
10003614:	b013      	add	sp, #76	; 0x4c
10003616:	bc3c      	pop	{r2, r3, r4, r5}
10003618:	4690      	mov	r8, r2
1000361a:	4699      	mov	r9, r3
1000361c:	46a2      	mov	sl, r4
1000361e:	46ab      	mov	fp, r5
10003620:	bdf0      	pop	{r4, r5, r6, r7, pc}
10003622:	003a      	movs	r2, r7
10003624:	e7f1      	b.n	1000360a <_vsnprintf+0x5fa>
10003626:	46c0      	nop			; (mov r8, r8)
10003628:	1000255d 	.word	0x1000255d

1000362c <vfctprintf>:
1000362c:	b500      	push	{lr}
1000362e:	b085      	sub	sp, #20
10003630:	9002      	str	r0, [sp, #8]
10003632:	9103      	str	r1, [sp, #12]
10003634:	2101      	movs	r1, #1
10003636:	9300      	str	r3, [sp, #0]
10003638:	0013      	movs	r3, r2
1000363a:	424a      	negs	r2, r1
1000363c:	a902      	add	r1, sp, #8
1000363e:	4802      	ldr	r0, [pc, #8]	; (10003648 <vfctprintf+0x1c>)
10003640:	f7ff fce6 	bl	10003010 <_vsnprintf>
10003644:	b005      	add	sp, #20
10003646:	bd00      	pop	{pc}
10003648:	1000255f 	.word	0x1000255f

1000364c <__aeabi_bits_init>:
1000364c:	4801      	ldr	r0, [pc, #4]	; (10003654 <__aeabi_bits_init+0x8>)
1000364e:	2104      	movs	r1, #4
10003650:	4b01      	ldr	r3, [pc, #4]	; (10003658 <__aeabi_bits_init+0xc>)
10003652:	4718      	bx	r3
10003654:	20000340 	.word	0x20000340
10003658:	1000367d 	.word	0x1000367d

1000365c <rom_func_lookup>:
1000365c:	b510      	push	{r4, lr}
1000365e:	0001      	movs	r1, r0
10003660:	2318      	movs	r3, #24
10003662:	881b      	ldrh	r3, [r3, #0]
10003664:	2214      	movs	r2, #20
10003666:	8810      	ldrh	r0, [r2, #0]
10003668:	4798      	blx	r3
1000366a:	bd10      	pop	{r4, pc}

1000366c <rom_data_lookup>:
1000366c:	b510      	push	{r4, lr}
1000366e:	0001      	movs	r1, r0
10003670:	2318      	movs	r3, #24
10003672:	881b      	ldrh	r3, [r3, #0]
10003674:	2216      	movs	r2, #22
10003676:	8810      	ldrh	r0, [r2, #0]
10003678:	4798      	blx	r3
1000367a:	bd10      	pop	{r4, pc}

1000367c <rom_funcs_lookup>:
1000367c:	b5f0      	push	{r4, r5, r6, r7, lr}
1000367e:	46c6      	mov	lr, r8
10003680:	b500      	push	{lr}
10003682:	0007      	movs	r7, r0
10003684:	000e      	movs	r6, r1
10003686:	2500      	movs	r5, #0
10003688:	2301      	movs	r3, #1
1000368a:	4698      	mov	r8, r3
1000368c:	e000      	b.n	10003690 <rom_funcs_lookup+0x14>
1000368e:	3501      	adds	r5, #1
10003690:	42b5      	cmp	r5, r6
10003692:	d20a      	bcs.n	100036aa <rom_funcs_lookup+0x2e>
10003694:	00ac      	lsls	r4, r5, #2
10003696:	193c      	adds	r4, r7, r4
10003698:	6820      	ldr	r0, [r4, #0]
1000369a:	f7ff ffdf 	bl	1000365c <rom_func_lookup>
1000369e:	6020      	str	r0, [r4, #0]
100036a0:	2800      	cmp	r0, #0
100036a2:	d1f4      	bne.n	1000368e <rom_funcs_lookup+0x12>
100036a4:	2300      	movs	r3, #0
100036a6:	4698      	mov	r8, r3
100036a8:	e7f1      	b.n	1000368e <rom_funcs_lookup+0x12>
100036aa:	4640      	mov	r0, r8
100036ac:	bc04      	pop	{r2}
100036ae:	4690      	mov	r8, r2
100036b0:	bdf0      	pop	{r4, r5, r6, r7, pc}
	...

100036b4 <__wrap___aeabi_idiv>:
100036b4:	4a12      	ldr	r2, [pc, #72]	; (10003700 <divmod_s32s32_savestate+0x18>)
100036b6:	6f93      	ldr	r3, [r2, #120]	; 0x78
100036b8:	089b      	lsrs	r3, r3, #2
100036ba:	d215      	bcs.n	100036e8 <divmod_s32s32_savestate>

100036bc <divmod_s32s32_unsafe>:
100036bc:	6690      	str	r0, [r2, #104]	; 0x68
100036be:	66d1      	str	r1, [r2, #108]	; 0x6c
100036c0:	2900      	cmp	r1, #0
100036c2:	d005      	beq.n	100036d0 <divmod_s32s32_unsafe+0x14>
100036c4:	e7ff      	b.n	100036c6 <divmod_s32s32_unsafe+0xa>
100036c6:	e7ff      	b.n	100036c8 <divmod_s32s32_unsafe+0xc>
100036c8:	e7ff      	b.n	100036ca <divmod_s32s32_unsafe+0xe>
100036ca:	6f51      	ldr	r1, [r2, #116]	; 0x74
100036cc:	6f10      	ldr	r0, [r2, #112]	; 0x70
100036ce:	4770      	bx	lr
100036d0:	b504      	push	{r2, lr}
100036d2:	2180      	movs	r1, #128	; 0x80
100036d4:	0609      	lsls	r1, r1, #24
100036d6:	17c2      	asrs	r2, r0, #31
100036d8:	4051      	eors	r1, r2
100036da:	2800      	cmp	r0, #0
100036dc:	d000      	beq.n	100036e0 <divmod_s32s32_unsafe+0x24>
100036de:	43c8      	mvns	r0, r1
100036e0:	f005 f8e2 	bl	100088a8 <____aeabi_idiv0_veneer>
100036e4:	2100      	movs	r1, #0
100036e6:	bd04      	pop	{r2, pc}

100036e8 <divmod_s32s32_savestate>:
100036e8:	b5f0      	push	{r4, r5, r6, r7, lr}
100036ea:	6e14      	ldr	r4, [r2, #96]	; 0x60
100036ec:	6e55      	ldr	r5, [r2, #100]	; 0x64
100036ee:	6f57      	ldr	r7, [r2, #116]	; 0x74
100036f0:	6f16      	ldr	r6, [r2, #112]	; 0x70
100036f2:	f7ff ffe3 	bl	100036bc <divmod_s32s32_unsafe>
100036f6:	6614      	str	r4, [r2, #96]	; 0x60
100036f8:	6655      	str	r5, [r2, #100]	; 0x64
100036fa:	6757      	str	r7, [r2, #116]	; 0x74
100036fc:	6716      	str	r6, [r2, #112]	; 0x70
100036fe:	bdf0      	pop	{r4, r5, r6, r7, pc}
10003700:	d0000000 	.word	0xd0000000

10003704 <__wrap___aeabi_uidiv>:
10003704:	4a11      	ldr	r2, [pc, #68]	; (1000374c <divmod_u32u32_savestate+0x18>)
10003706:	6f93      	ldr	r3, [r2, #120]	; 0x78
10003708:	089b      	lsrs	r3, r3, #2
1000370a:	d213      	bcs.n	10003734 <divmod_u32u32_savestate>

1000370c <divmod_u32u32_unsafe>:
1000370c:	6610      	str	r0, [r2, #96]	; 0x60
1000370e:	6651      	str	r1, [r2, #100]	; 0x64
10003710:	2900      	cmp	r1, #0
10003712:	d005      	beq.n	10003720 <divmod_u32u32_unsafe+0x14>
10003714:	e7ff      	b.n	10003716 <divmod_u32u32_unsafe+0xa>
10003716:	e7ff      	b.n	10003718 <divmod_u32u32_unsafe+0xc>
10003718:	e7ff      	b.n	1000371a <divmod_u32u32_unsafe+0xe>
1000371a:	6f51      	ldr	r1, [r2, #116]	; 0x74
1000371c:	6f10      	ldr	r0, [r2, #112]	; 0x70
1000371e:	4770      	bx	lr
10003720:	b504      	push	{r2, lr}
10003722:	2800      	cmp	r0, #0
10003724:	d001      	beq.n	1000372a <divmod_u32u32_unsafe+0x1e>
10003726:	2000      	movs	r0, #0
10003728:	43c0      	mvns	r0, r0
1000372a:	f005 f8bd 	bl	100088a8 <____aeabi_idiv0_veneer>
1000372e:	2100      	movs	r1, #0
10003730:	bd04      	pop	{r2, pc}
10003732:	46c0      	nop			; (mov r8, r8)

10003734 <divmod_u32u32_savestate>:
10003734:	b5f0      	push	{r4, r5, r6, r7, lr}
10003736:	6e14      	ldr	r4, [r2, #96]	; 0x60
10003738:	6e55      	ldr	r5, [r2, #100]	; 0x64
1000373a:	6f57      	ldr	r7, [r2, #116]	; 0x74
1000373c:	6f16      	ldr	r6, [r2, #112]	; 0x70
1000373e:	f7ff ffe5 	bl	1000370c <divmod_u32u32_unsafe>
10003742:	6614      	str	r4, [r2, #96]	; 0x60
10003744:	6655      	str	r5, [r2, #100]	; 0x64
10003746:	6757      	str	r7, [r2, #116]	; 0x74
10003748:	6716      	str	r6, [r2, #112]	; 0x70
1000374a:	bdf0      	pop	{r4, r5, r6, r7, pc}
1000374c:	d0000000 	.word	0xd0000000

10003750 <__wrap___aeabi_ldivmod>:
10003750:	4694      	mov	ip, r2
10003752:	4a4e      	ldr	r2, [pc, #312]	; (1000388c <udiv0+0x1a>)
10003754:	6f92      	ldr	r2, [r2, #120]	; 0x78
10003756:	0892      	lsrs	r2, r2, #2
10003758:	4662      	mov	r2, ip
1000375a:	d201      	bcs.n	10003760 <divmod_s64s64_savestate>
1000375c:	e030      	b.n	100037c0 <divmod_s64s64_unsafe>
1000375e:	46c0      	nop			; (mov r8, r8)

10003760 <divmod_s64s64_savestate>:
10003760:	b5f0      	push	{r4, r5, r6, r7, lr}
10003762:	4e4a      	ldr	r6, [pc, #296]	; (1000388c <udiv0+0x1a>)
10003764:	6fb5      	ldr	r5, [r6, #120]	; 0x78
10003766:	086d      	lsrs	r5, r5, #1
10003768:	d3fc      	bcc.n	10003764 <divmod_s64s64_savestate+0x4>
1000376a:	6e34      	ldr	r4, [r6, #96]	; 0x60
1000376c:	6e75      	ldr	r5, [r6, #100]	; 0x64
1000376e:	6f77      	ldr	r7, [r6, #116]	; 0x74
10003770:	6f36      	ldr	r6, [r6, #112]	; 0x70
10003772:	f000 f825 	bl	100037c0 <divmod_s64s64_unsafe>
10003776:	4694      	mov	ip, r2
10003778:	4a44      	ldr	r2, [pc, #272]	; (1000388c <udiv0+0x1a>)
1000377a:	6614      	str	r4, [r2, #96]	; 0x60
1000377c:	6655      	str	r5, [r2, #100]	; 0x64
1000377e:	6757      	str	r7, [r2, #116]	; 0x74
10003780:	6716      	str	r6, [r2, #112]	; 0x70
10003782:	4662      	mov	r2, ip
10003784:	bdf0      	pop	{r4, r5, r6, r7, pc}
10003786:	46c0      	nop			; (mov r8, r8)

10003788 <__wrap___aeabi_uldivmod>:
10003788:	4694      	mov	ip, r2
1000378a:	4a40      	ldr	r2, [pc, #256]	; (1000388c <udiv0+0x1a>)
1000378c:	6f92      	ldr	r2, [r2, #120]	; 0x78
1000378e:	0892      	lsrs	r2, r2, #2
10003790:	4662      	mov	r2, ip
10003792:	d201      	bcs.n	10003798 <divmod_u64u64_savestate>
10003794:	e058      	b.n	10003848 <divmod_u64u64_unsafe>
10003796:	46c0      	nop			; (mov r8, r8)

10003798 <divmod_u64u64_savestate>:
10003798:	b5f0      	push	{r4, r5, r6, r7, lr}
1000379a:	4e3c      	ldr	r6, [pc, #240]	; (1000388c <udiv0+0x1a>)
1000379c:	6fb5      	ldr	r5, [r6, #120]	; 0x78
1000379e:	086d      	lsrs	r5, r5, #1
100037a0:	d3fc      	bcc.n	1000379c <divmod_u64u64_savestate+0x4>
100037a2:	6e34      	ldr	r4, [r6, #96]	; 0x60
100037a4:	6e75      	ldr	r5, [r6, #100]	; 0x64
100037a6:	6f77      	ldr	r7, [r6, #116]	; 0x74
100037a8:	6f36      	ldr	r6, [r6, #112]	; 0x70
100037aa:	f000 f84d 	bl	10003848 <divmod_u64u64_unsafe>
100037ae:	4694      	mov	ip, r2
100037b0:	4a36      	ldr	r2, [pc, #216]	; (1000388c <udiv0+0x1a>)
100037b2:	6614      	str	r4, [r2, #96]	; 0x60
100037b4:	6655      	str	r5, [r2, #100]	; 0x64
100037b6:	6757      	str	r7, [r2, #116]	; 0x74
100037b8:	6716      	str	r6, [r2, #112]	; 0x70
100037ba:	4662      	mov	r2, ip
100037bc:	bdf0      	pop	{r4, r5, r6, r7, pc}
100037be:	46c0      	nop			; (mov r8, r8)

100037c0 <divmod_s64s64_unsafe>:
100037c0:	2b00      	cmp	r3, #0
100037c2:	db24      	blt.n	1000380e <l41_1+0x26>
100037c4:	d011      	beq.n	100037ea <l41_1+0x2>
100037c6:	2900      	cmp	r1, #0
100037c8:	da3e      	bge.n	10003848 <divmod_u64u64_unsafe>
100037ca:	b500      	push	{lr}
100037cc:	43c9      	mvns	r1, r1
100037ce:	4240      	negs	r0, r0
100037d0:	d100      	bne.n	100037d4 <l39_1>
100037d2:	3101      	adds	r1, #1

100037d4 <l39_1>:
100037d4:	f000 f838 	bl	10003848 <divmod_u64u64_unsafe>
100037d8:	43c9      	mvns	r1, r1
100037da:	4240      	negs	r0, r0
100037dc:	d100      	bne.n	100037e0 <l40_1>
100037de:	3101      	adds	r1, #1

100037e0 <l40_1>:
100037e0:	43db      	mvns	r3, r3
100037e2:	4252      	negs	r2, r2
100037e4:	d100      	bne.n	100037e8 <l41_1>
100037e6:	3301      	adds	r3, #1

100037e8 <l41_1>:
100037e8:	bd00      	pop	{pc}
100037ea:	2a00      	cmp	r2, #0
100037ec:	d1eb      	bne.n	100037c6 <divmod_s64s64_unsafe+0x6>
100037ee:	2800      	cmp	r0, #0
100037f0:	d101      	bne.n	100037f6 <l41_1+0xe>
100037f2:	2900      	cmp	r1, #0
100037f4:	d005      	beq.n	10003802 <l41_1+0x1a>
100037f6:	2000      	movs	r0, #0
100037f8:	0fc9      	lsrs	r1, r1, #31
100037fa:	07c9      	lsls	r1, r1, #31
100037fc:	d101      	bne.n	10003802 <l41_1+0x1a>
100037fe:	43c0      	mvns	r0, r0
10003800:	0841      	lsrs	r1, r0, #1
10003802:	b500      	push	{lr}
10003804:	f005 f848 	bl	10008898 <____aeabi_ldiv0_veneer>
10003808:	2200      	movs	r2, #0
1000380a:	2300      	movs	r3, #0
1000380c:	bd00      	pop	{pc}
1000380e:	b500      	push	{lr}
10003810:	2900      	cmp	r1, #0
10003812:	db0a      	blt.n	1000382a <l43_1+0x2>
10003814:	43db      	mvns	r3, r3
10003816:	4252      	negs	r2, r2
10003818:	d100      	bne.n	1000381c <l42_1>
1000381a:	3301      	adds	r3, #1

1000381c <l42_1>:
1000381c:	f000 f814 	bl	10003848 <divmod_u64u64_unsafe>
10003820:	43c9      	mvns	r1, r1
10003822:	4240      	negs	r0, r0
10003824:	d100      	bne.n	10003828 <l43_1>
10003826:	3101      	adds	r1, #1

10003828 <l43_1>:
10003828:	bd00      	pop	{pc}
1000382a:	43c9      	mvns	r1, r1
1000382c:	4240      	negs	r0, r0
1000382e:	d100      	bne.n	10003832 <l44_1>
10003830:	3101      	adds	r1, #1

10003832 <l44_1>:
10003832:	43db      	mvns	r3, r3
10003834:	4252      	negs	r2, r2
10003836:	d100      	bne.n	1000383a <l45_1>
10003838:	3301      	adds	r3, #1

1000383a <l45_1>:
1000383a:	f000 f805 	bl	10003848 <divmod_u64u64_unsafe>
1000383e:	43db      	mvns	r3, r3
10003840:	4252      	negs	r2, r2
10003842:	d100      	bne.n	10003846 <l46_1>
10003844:	3301      	adds	r3, #1

10003846 <l46_1>:
10003846:	bd00      	pop	{pc}

10003848 <divmod_u64u64_unsafe>:
10003848:	2900      	cmp	r1, #0
1000384a:	d123      	bne.n	10003894 <y64>
1000384c:	2b00      	cmp	r3, #0
1000384e:	d118      	bne.n	10003882 <udiv0+0x10>
10003850:	2a00      	cmp	r2, #0
10003852:	d00c      	beq.n	1000386e <divmod_u64u64_unsafe+0x26>
10003854:	46bc      	mov	ip, r7
10003856:	4f0d      	ldr	r7, [pc, #52]	; (1000388c <udiv0+0x1a>)
10003858:	6638      	str	r0, [r7, #96]	; 0x60
1000385a:	667a      	str	r2, [r7, #100]	; 0x64
1000385c:	2100      	movs	r1, #0
1000385e:	2300      	movs	r3, #0
10003860:	e7ff      	b.n	10003862 <divmod_u64u64_unsafe+0x1a>
10003862:	e7ff      	b.n	10003864 <divmod_u64u64_unsafe+0x1c>
10003864:	e7ff      	b.n	10003866 <divmod_u64u64_unsafe+0x1e>
10003866:	6f7a      	ldr	r2, [r7, #116]	; 0x74
10003868:	6f38      	ldr	r0, [r7, #112]	; 0x70
1000386a:	4667      	mov	r7, ip
1000386c:	4770      	bx	lr
1000386e:	2800      	cmp	r0, #0
10003870:	d001      	beq.n	10003876 <udiv0+0x4>

10003872 <udiv0>:
10003872:	4807      	ldr	r0, [pc, #28]	; (10003890 <udiv0+0x1e>)
10003874:	0001      	movs	r1, r0
10003876:	b500      	push	{lr}
10003878:	f005 f80e 	bl	10008898 <____aeabi_ldiv0_veneer>
1000387c:	2200      	movs	r2, #0
1000387e:	2300      	movs	r3, #0
10003880:	bd00      	pop	{pc}
10003882:	0002      	movs	r2, r0
10003884:	000b      	movs	r3, r1
10003886:	2000      	movs	r0, #0
10003888:	2100      	movs	r1, #0
1000388a:	4770      	bx	lr
1000388c:	d0000000 	.word	0xd0000000
10003890:	ffffffff 	.word	0xffffffff

10003894 <y64>:
10003894:	2b00      	cmp	r3, #0
10003896:	d000      	beq.n	1000389a <y64+0x6>
10003898:	e0bf      	b.n	10003a1a <y64_x48>
1000389a:	0c13      	lsrs	r3, r2, #16
1000389c:	d128      	bne.n	100038f0 <y64_x32>
1000389e:	2a00      	cmp	r2, #0
100038a0:	d0e7      	beq.n	10003872 <udiv0>
100038a2:	b480      	push	{r7}
100038a4:	4f11      	ldr	r7, [pc, #68]	; (100038ec <y64+0x58>)
100038a6:	6639      	str	r1, [r7, #96]	; 0x60
100038a8:	667a      	str	r2, [r7, #100]	; 0x64
100038aa:	e7ff      	b.n	100038ac <y64+0x18>
100038ac:	e7ff      	b.n	100038ae <y64+0x1a>
100038ae:	b430      	push	{r4, r5}
100038b0:	0c04      	lsrs	r4, r0, #16
100038b2:	6f7b      	ldr	r3, [r7, #116]	; 0x74
100038b4:	6f39      	ldr	r1, [r7, #112]	; 0x70
100038b6:	041b      	lsls	r3, r3, #16
100038b8:	4323      	orrs	r3, r4
100038ba:	663b      	str	r3, [r7, #96]	; 0x60
100038bc:	667a      	str	r2, [r7, #100]	; 0x64
100038be:	e7ff      	b.n	100038c0 <y64+0x2c>
100038c0:	e7ff      	b.n	100038c2 <y64+0x2e>
100038c2:	e7ff      	b.n	100038c4 <y64+0x30>
100038c4:	46c0      	nop			; (mov r8, r8)
100038c6:	b284      	uxth	r4, r0
100038c8:	6f7b      	ldr	r3, [r7, #116]	; 0x74
100038ca:	6f3d      	ldr	r5, [r7, #112]	; 0x70
100038cc:	041b      	lsls	r3, r3, #16
100038ce:	4323      	orrs	r3, r4
100038d0:	663b      	str	r3, [r7, #96]	; 0x60
100038d2:	667a      	str	r2, [r7, #100]	; 0x64
100038d4:	e7ff      	b.n	100038d6 <y64+0x42>
100038d6:	e7ff      	b.n	100038d8 <y64+0x44>
100038d8:	46c0      	nop			; (mov r8, r8)
100038da:	2300      	movs	r3, #0
100038dc:	042c      	lsls	r4, r5, #16
100038de:	0c2d      	lsrs	r5, r5, #16
100038e0:	6f7a      	ldr	r2, [r7, #116]	; 0x74
100038e2:	6f38      	ldr	r0, [r7, #112]	; 0x70
100038e4:	1900      	adds	r0, r0, r4
100038e6:	4169      	adcs	r1, r5
100038e8:	bcb0      	pop	{r4, r5, r7}
100038ea:	4770      	bx	lr
100038ec:	d0000000 	.word	0xd0000000

100038f0 <y64_x32>:
100038f0:	b5f0      	push	{r4, r5, r6, r7, lr}
100038f2:	4694      	mov	ip, r2
100038f4:	2500      	movs	r5, #0
100038f6:	0e14      	lsrs	r4, r2, #24
100038f8:	d101      	bne.n	100038fe <y64_x32+0xe>
100038fa:	0212      	lsls	r2, r2, #8
100038fc:	3508      	adds	r5, #8
100038fe:	0f14      	lsrs	r4, r2, #28
10003900:	d101      	bne.n	10003906 <y64_x32+0x16>
10003902:	0112      	lsls	r2, r2, #4
10003904:	3504      	adds	r5, #4
10003906:	0f94      	lsrs	r4, r2, #30
10003908:	d101      	bne.n	1000390e <y64_x32+0x1e>
1000390a:	0092      	lsls	r2, r2, #2
1000390c:	3502      	adds	r5, #2
1000390e:	0fd4      	lsrs	r4, r2, #31
10003910:	d101      	bne.n	10003916 <y64_x32+0x26>
10003912:	0052      	lsls	r2, r2, #1
10003914:	3501      	adds	r5, #1
10003916:	0bd4      	lsrs	r4, r2, #15
10003918:	3401      	adds	r4, #1
1000391a:	4f25      	ldr	r7, [pc, #148]	; (100039b0 <y64_x32+0xc0>)
1000391c:	667c      	str	r4, [r7, #100]	; 0x64
1000391e:	4c25      	ldr	r4, [pc, #148]	; (100039b4 <y64_x32+0xc4>)
10003920:	663c      	str	r4, [r7, #96]	; 0x60
10003922:	0c0e      	lsrs	r6, r1, #16
10003924:	b293      	uxth	r3, r2
10003926:	e7ff      	b.n	10003928 <y64_x32+0x38>
10003928:	e7ff      	b.n	1000392a <y64_x32+0x3a>
1000392a:	e7ff      	b.n	1000392c <y64_x32+0x3c>
1000392c:	6f3c      	ldr	r4, [r7, #112]	; 0x70
1000392e:	4366      	muls	r6, r4
10003930:	0c36      	lsrs	r6, r6, #16
10003932:	0377      	lsls	r7, r6, #13
10003934:	46be      	mov	lr, r7
10003936:	4373      	muls	r3, r6
10003938:	0bdf      	lsrs	r7, r3, #15
1000393a:	045b      	lsls	r3, r3, #17
1000393c:	1ac0      	subs	r0, r0, r3
1000393e:	41b9      	sbcs	r1, r7
10003940:	0c13      	lsrs	r3, r2, #16
10003942:	4373      	muls	r3, r6
10003944:	18db      	adds	r3, r3, r3
10003946:	1ac9      	subs	r1, r1, r3
10003948:	08ce      	lsrs	r6, r1, #3
1000394a:	4366      	muls	r6, r4
1000394c:	0c36      	lsrs	r6, r6, #16
1000394e:	44b6      	add	lr, r6
10003950:	b293      	uxth	r3, r2
10003952:	4373      	muls	r3, r6
10003954:	0f1f      	lsrs	r7, r3, #28
10003956:	011b      	lsls	r3, r3, #4
10003958:	1ac0      	subs	r0, r0, r3
1000395a:	41b9      	sbcs	r1, r7
1000395c:	0c13      	lsrs	r3, r2, #16
1000395e:	4373      	muls	r3, r6
10003960:	0b1f      	lsrs	r7, r3, #12
10003962:	051b      	lsls	r3, r3, #20
10003964:	1ac0      	subs	r0, r0, r3
10003966:	41b9      	sbcs	r1, r7
10003968:	0d86      	lsrs	r6, r0, #22
1000396a:	028f      	lsls	r7, r1, #10
1000396c:	433e      	orrs	r6, r7
1000396e:	4366      	muls	r6, r4
10003970:	0c36      	lsrs	r6, r6, #16
10003972:	2d09      	cmp	r5, #9
10003974:	db24      	blt.n	100039c0 <last0>
10003976:	0a52      	lsrs	r2, r2, #9
10003978:	4372      	muls	r2, r6
1000397a:	1a80      	subs	r0, r0, r2
1000397c:	0377      	lsls	r7, r6, #13
1000397e:	0a46      	lsrs	r6, r0, #9
10003980:	4366      	muls	r6, r4
10003982:	0c36      	lsrs	r6, r6, #16
10003984:	2316      	movs	r3, #22
10003986:	1b5b      	subs	r3, r3, r5
10003988:	40de      	lsrs	r6, r3
1000398a:	40df      	lsrs	r7, r3
1000398c:	19bf      	adds	r7, r7, r6
1000398e:	4664      	mov	r4, ip
10003990:	4366      	muls	r6, r4
10003992:	1b82      	subs	r2, r0, r6
10003994:	4670      	mov	r0, lr
10003996:	3504      	adds	r5, #4
10003998:	3306      	adds	r3, #6
1000399a:	0001      	movs	r1, r0
1000399c:	40d9      	lsrs	r1, r3
1000399e:	40a8      	lsls	r0, r5
100039a0:	19c0      	adds	r0, r0, r7
100039a2:	d300      	bcc.n	100039a6 <y64_x32+0xb6>
100039a4:	3101      	adds	r1, #1
100039a6:	42a2      	cmp	r2, r4
100039a8:	d206      	bcs.n	100039b8 <y64_x32+0xc8>
100039aa:	2300      	movs	r3, #0
100039ac:	bdf0      	pop	{r4, r5, r6, r7, pc}
100039ae:	0000      	.short	0x0000
100039b0:	d0000000 	.word	0xd0000000
100039b4:	ffffffff 	.word	0xffffffff
100039b8:	1b12      	subs	r2, r2, r4
100039ba:	3001      	adds	r0, #1
100039bc:	d3f3      	bcc.n	100039a6 <y64_x32+0xb6>
100039be:	e7f1      	b.n	100039a4 <y64_x32+0xb4>

100039c0 <last0>:
100039c0:	2709      	movs	r7, #9
100039c2:	1b7f      	subs	r7, r7, r5
100039c4:	40fe      	lsrs	r6, r7
100039c6:	4664      	mov	r4, ip
100039c8:	b2a2      	uxth	r2, r4
100039ca:	4372      	muls	r2, r6
100039cc:	1a80      	subs	r0, r0, r2
100039ce:	d200      	bcs.n	100039d2 <last0+0x12>
100039d0:	3901      	subs	r1, #1
100039d2:	0c22      	lsrs	r2, r4, #16
100039d4:	4372      	muls	r2, r6
100039d6:	0c13      	lsrs	r3, r2, #16
100039d8:	0412      	lsls	r2, r2, #16
100039da:	1a82      	subs	r2, r0, r2
100039dc:	4199      	sbcs	r1, r3
100039de:	000b      	movs	r3, r1
100039e0:	4670      	mov	r0, lr
100039e2:	3504      	adds	r5, #4
100039e4:	3713      	adds	r7, #19
100039e6:	0001      	movs	r1, r0
100039e8:	40f9      	lsrs	r1, r7
100039ea:	40a8      	lsls	r0, r5
100039ec:	1980      	adds	r0, r0, r6
100039ee:	d300      	bcc.n	100039f2 <last0+0x32>
100039f0:	3101      	adds	r1, #1
100039f2:	2b00      	cmp	r3, #0
100039f4:	d102      	bne.n	100039fc <last0+0x3c>
100039f6:	42a2      	cmp	r2, r4
100039f8:	d20a      	bcs.n	10003a10 <last0+0x50>
100039fa:	bdf0      	pop	{r4, r5, r6, r7, pc}
100039fc:	3001      	adds	r0, #1
100039fe:	d300      	bcc.n	10003a02 <last0+0x42>
10003a00:	3101      	adds	r1, #1
10003a02:	1b12      	subs	r2, r2, r4
10003a04:	d2fa      	bcs.n	100039fc <last0+0x3c>
10003a06:	3b01      	subs	r3, #1
10003a08:	d1f8      	bne.n	100039fc <last0+0x3c>
10003a0a:	42a2      	cmp	r2, r4
10003a0c:	d200      	bcs.n	10003a10 <last0+0x50>
10003a0e:	bdf0      	pop	{r4, r5, r6, r7, pc}
10003a10:	3001      	adds	r0, #1
10003a12:	d300      	bcc.n	10003a16 <last0+0x56>
10003a14:	3101      	adds	r1, #1
10003a16:	1b12      	subs	r2, r2, r4
10003a18:	e7f7      	b.n	10003a0a <last0+0x4a>

10003a1a <y64_x48>:
10003a1a:	b5f0      	push	{r4, r5, r6, r7, lr}
10003a1c:	0c1c      	lsrs	r4, r3, #16
10003a1e:	d000      	beq.n	10003a22 <y64_x48+0x8>
10003a20:	e080      	b.n	10003b24 <y64_x64>
10003a22:	b40c      	push	{r2, r3}
10003a24:	2500      	movs	r5, #0
10003a26:	0a1c      	lsrs	r4, r3, #8
10003a28:	d104      	bne.n	10003a34 <y64_x48+0x1a>
10003a2a:	021b      	lsls	r3, r3, #8
10003a2c:	0e16      	lsrs	r6, r2, #24
10003a2e:	4333      	orrs	r3, r6
10003a30:	0212      	lsls	r2, r2, #8
10003a32:	3508      	adds	r5, #8
10003a34:	0b1c      	lsrs	r4, r3, #12
10003a36:	d104      	bne.n	10003a42 <y64_x48+0x28>
10003a38:	011b      	lsls	r3, r3, #4
10003a3a:	0f16      	lsrs	r6, r2, #28
10003a3c:	4333      	orrs	r3, r6
10003a3e:	0112      	lsls	r2, r2, #4
10003a40:	3504      	adds	r5, #4
10003a42:	0b9c      	lsrs	r4, r3, #14
10003a44:	d104      	bne.n	10003a50 <y64_x48+0x36>
10003a46:	009b      	lsls	r3, r3, #2
10003a48:	0f96      	lsrs	r6, r2, #30
10003a4a:	4333      	orrs	r3, r6
10003a4c:	0092      	lsls	r2, r2, #2
10003a4e:	3502      	adds	r5, #2
10003a50:	0bdc      	lsrs	r4, r3, #15
10003a52:	d102      	bne.n	10003a5a <y64_x48+0x40>
10003a54:	1892      	adds	r2, r2, r2
10003a56:	415b      	adcs	r3, r3
10003a58:	3501      	adds	r5, #1
10003a5a:	001c      	movs	r4, r3
10003a5c:	1897      	adds	r7, r2, r2
10003a5e:	4164      	adcs	r4, r4
10003a60:	3401      	adds	r4, #1
10003a62:	4f46      	ldr	r7, [pc, #280]	; (10003b7c <y64_x64+0x58>)
10003a64:	667c      	str	r4, [r7, #100]	; 0x64
10003a66:	4c46      	ldr	r4, [pc, #280]	; (10003b80 <y64_x64+0x5c>)
10003a68:	663c      	str	r4, [r7, #96]	; 0x60
10003a6a:	0c0e      	lsrs	r6, r1, #16
10003a6c:	e7ff      	b.n	10003a6e <y64_x48+0x54>
10003a6e:	e7ff      	b.n	10003a70 <y64_x48+0x56>
10003a70:	e7ff      	b.n	10003a72 <y64_x48+0x58>
10003a72:	46c0      	nop			; (mov r8, r8)
10003a74:	6f3c      	ldr	r4, [r7, #112]	; 0x70
10003a76:	4366      	muls	r6, r4
10003a78:	0c36      	lsrs	r6, r6, #16
10003a7a:	0377      	lsls	r7, r6, #13
10003a7c:	46be      	mov	lr, r7
10003a7e:	b297      	uxth	r7, r2
10003a80:	4377      	muls	r7, r6
10003a82:	1bc0      	subs	r0, r0, r7
10003a84:	d200      	bcs.n	10003a88 <y64_x48+0x6e>
10003a86:	3901      	subs	r1, #1
10003a88:	1bc0      	subs	r0, r0, r7
10003a8a:	d200      	bcs.n	10003a8e <y64_x48+0x74>
10003a8c:	3901      	subs	r1, #1
10003a8e:	b29f      	uxth	r7, r3
10003a90:	4377      	muls	r7, r6
10003a92:	1bc9      	subs	r1, r1, r7
10003a94:	1bc9      	subs	r1, r1, r7
10003a96:	0c17      	lsrs	r7, r2, #16
10003a98:	4377      	muls	r7, r6
10003a9a:	047e      	lsls	r6, r7, #17
10003a9c:	0bff      	lsrs	r7, r7, #15
10003a9e:	1b80      	subs	r0, r0, r6
10003aa0:	41b9      	sbcs	r1, r7
10003aa2:	08ce      	lsrs	r6, r1, #3
10003aa4:	4366      	muls	r6, r4
10003aa6:	0c36      	lsrs	r6, r6, #16
10003aa8:	2d0c      	cmp	r5, #12
10003aaa:	db33      	blt.n	10003b14 <last1>
10003aac:	44b6      	add	lr, r6
10003aae:	0b12      	lsrs	r2, r2, #12
10003ab0:	051f      	lsls	r7, r3, #20
10003ab2:	433a      	orrs	r2, r7
10003ab4:	0b1b      	lsrs	r3, r3, #12
10003ab6:	b297      	uxth	r7, r2
10003ab8:	4377      	muls	r7, r6
10003aba:	1bc0      	subs	r0, r0, r7
10003abc:	d200      	bcs.n	10003ac0 <y64_x48+0xa6>
10003abe:	3901      	subs	r1, #1
10003ac0:	b29f      	uxth	r7, r3
10003ac2:	4377      	muls	r7, r6
10003ac4:	1bc9      	subs	r1, r1, r7
10003ac6:	0c17      	lsrs	r7, r2, #16
10003ac8:	4377      	muls	r7, r6
10003aca:	043e      	lsls	r6, r7, #16
10003acc:	0c3f      	lsrs	r7, r7, #16
10003ace:	1b80      	subs	r0, r0, r6
10003ad0:	41b9      	sbcs	r1, r7
10003ad2:	0d86      	lsrs	r6, r0, #22
10003ad4:	028f      	lsls	r7, r1, #10
10003ad6:	433e      	orrs	r6, r7
10003ad8:	4366      	muls	r6, r4
10003ada:	2729      	movs	r7, #41	; 0x29
10003adc:	1b7f      	subs	r7, r7, r5
10003ade:	40fe      	lsrs	r6, r7
10003ae0:	3d0c      	subs	r5, #12
10003ae2:	4677      	mov	r7, lr
10003ae4:	40af      	lsls	r7, r5
10003ae6:	19bf      	adds	r7, r7, r6
10003ae8:	bc30      	pop	{r4, r5}
10003aea:	b2a2      	uxth	r2, r4
10003aec:	b2ab      	uxth	r3, r5
10003aee:	4372      	muls	r2, r6
10003af0:	4373      	muls	r3, r6
10003af2:	1a80      	subs	r0, r0, r2
10003af4:	4199      	sbcs	r1, r3
10003af6:	0c22      	lsrs	r2, r4, #16
10003af8:	4372      	muls	r2, r6
10003afa:	0c13      	lsrs	r3, r2, #16
10003afc:	0412      	lsls	r2, r2, #16
10003afe:	1a80      	subs	r0, r0, r2
10003b00:	4199      	sbcs	r1, r3
10003b02:	0002      	movs	r2, r0
10003b04:	000b      	movs	r3, r1
10003b06:	3701      	adds	r7, #1
10003b08:	1b00      	subs	r0, r0, r4
10003b0a:	41a9      	sbcs	r1, r5
10003b0c:	d2f9      	bcs.n	10003b02 <y64_x48+0xe8>
10003b0e:	1e78      	subs	r0, r7, #1
10003b10:	2100      	movs	r1, #0
10003b12:	bdf0      	pop	{r4, r5, r6, r7, pc}

10003b14 <last1>:
10003b14:	270c      	movs	r7, #12
10003b16:	1b7f      	subs	r7, r7, r5
10003b18:	40fe      	lsrs	r6, r7
10003b1a:	4677      	mov	r7, lr
10003b1c:	0b7f      	lsrs	r7, r7, #13
10003b1e:	40af      	lsls	r7, r5
10003b20:	19ff      	adds	r7, r7, r7
10003b22:	e7e0      	b.n	10003ae6 <y64_x48+0xcc>

10003b24 <y64_x64>:
10003b24:	2400      	movs	r4, #0
10003b26:	1c5d      	adds	r5, r3, #1
10003b28:	d007      	beq.n	10003b3a <y64_x64+0x16>
10003b2a:	4f14      	ldr	r7, [pc, #80]	; (10003b7c <y64_x64+0x58>)
10003b2c:	667d      	str	r5, [r7, #100]	; 0x64
10003b2e:	6639      	str	r1, [r7, #96]	; 0x60
10003b30:	e7ff      	b.n	10003b32 <y64_x64+0xe>
10003b32:	e7ff      	b.n	10003b34 <y64_x64+0x10>
10003b34:	e7ff      	b.n	10003b36 <y64_x64+0x12>
10003b36:	e7ff      	b.n	10003b38 <y64_x64+0x14>
10003b38:	6f3c      	ldr	r4, [r7, #112]	; 0x70
10003b3a:	b295      	uxth	r5, r2
10003b3c:	b29e      	uxth	r6, r3
10003b3e:	4365      	muls	r5, r4
10003b40:	4366      	muls	r6, r4
10003b42:	1b40      	subs	r0, r0, r5
10003b44:	41b1      	sbcs	r1, r6
10003b46:	0c15      	lsrs	r5, r2, #16
10003b48:	0c1e      	lsrs	r6, r3, #16
10003b4a:	4365      	muls	r5, r4
10003b4c:	4366      	muls	r6, r4
10003b4e:	0436      	lsls	r6, r6, #16
10003b50:	0c2f      	lsrs	r7, r5, #16
10003b52:	433e      	orrs	r6, r7
10003b54:	042d      	lsls	r5, r5, #16
10003b56:	1b40      	subs	r0, r0, r5
10003b58:	41b1      	sbcs	r1, r6
10003b5a:	4299      	cmp	r1, r3
10003b5c:	d204      	bcs.n	10003b68 <y64_x64+0x44>
10003b5e:	0002      	movs	r2, r0
10003b60:	000b      	movs	r3, r1
10003b62:	0020      	movs	r0, r4
10003b64:	2100      	movs	r1, #0
10003b66:	bdf0      	pop	{r4, r5, r6, r7, pc}
10003b68:	d101      	bne.n	10003b6e <y64_x64+0x4a>
10003b6a:	4290      	cmp	r0, r2
10003b6c:	d3f7      	bcc.n	10003b5e <y64_x64+0x3a>
10003b6e:	1a80      	subs	r0, r0, r2
10003b70:	4199      	sbcs	r1, r3
10003b72:	3401      	adds	r4, #1
10003b74:	4299      	cmp	r1, r3
10003b76:	d3f2      	bcc.n	10003b5e <y64_x64+0x3a>
10003b78:	e7f6      	b.n	10003b68 <y64_x64+0x44>
10003b7a:	0000      	.short	0x0000
10003b7c:	d0000000 	.word	0xd0000000
10003b80:	ffffffff 	.word	0xffffffff

10003b84 <__wrap___aeabi_drsub>:
10003b84:	4048      	eors	r0, r1
10003b86:	4041      	eors	r1, r0
10003b88:	4048      	eors	r0, r1

10003b8a <__wrap___aeabi_dsub>:
10003b8a:	b418      	push	{r3, r4}
10003b8c:	4b1b      	ldr	r3, [pc, #108]	; (10003bfc <__wrap___aeabi_dmul+0x12>)
10003b8e:	685b      	ldr	r3, [r3, #4]
10003b90:	46fc      	mov	ip, pc
10003b92:	9301      	str	r3, [sp, #4]
10003b94:	bd08      	pop	{r3, pc}
10003b96:	df04      	.short	0xdf04
10003b98:	10003e5f 	.word	0x10003e5f

10003b9c <__wrap___aeabi_dadd>:
10003b9c:	b418      	push	{r3, r4}
10003b9e:	4b17      	ldr	r3, [pc, #92]	; (10003bfc <__wrap___aeabi_dmul+0x12>)
10003ba0:	681b      	ldr	r3, [r3, #0]
10003ba2:	46fc      	mov	ip, pc
10003ba4:	9301      	str	r3, [sp, #4]
10003ba6:	bd08      	pop	{r3, pc}
10003ba8:	3e69df00 	.word	0x3e69df00
10003bac:	1000      	.short	0x1000

10003bae <__wrap___aeabi_ddiv>:
10003bae:	4694      	mov	ip, r2
10003bb0:	4a13      	ldr	r2, [pc, #76]	; (10003c00 <__wrap___aeabi_dmul+0x16>)
10003bb2:	6f92      	ldr	r2, [r2, #120]	; 0x78
10003bb4:	0892      	lsrs	r2, r2, #2
10003bb6:	d209      	bcs.n	10003bcc <ddiv_save_state>
10003bb8:	4662      	mov	r2, ip

10003bba <ddiv_shim_call>:
10003bba:	b418      	push	{r3, r4}
10003bbc:	4b0f      	ldr	r3, [pc, #60]	; (10003bfc <__wrap___aeabi_dmul+0x12>)
10003bbe:	68db      	ldr	r3, [r3, #12]
10003bc0:	46fc      	mov	ip, pc
10003bc2:	9301      	str	r3, [sp, #4]
10003bc4:	bd08      	pop	{r3, pc}
10003bc6:	df0c      	.short	0xdf0c
10003bc8:	10004121 	.word	0x10004121

10003bcc <ddiv_save_state>:
10003bcc:	4a0c      	ldr	r2, [pc, #48]	; (10003c00 <__wrap___aeabi_dmul+0x16>)
10003bce:	b5f0      	push	{r4, r5, r6, r7, lr}
10003bd0:	6e14      	ldr	r4, [r2, #96]	; 0x60
10003bd2:	6e55      	ldr	r5, [r2, #100]	; 0x64
10003bd4:	6f57      	ldr	r7, [r2, #116]	; 0x74
10003bd6:	6f16      	ldr	r6, [r2, #112]	; 0x70
10003bd8:	4662      	mov	r2, ip
10003bda:	f7ff ffee 	bl	10003bba <ddiv_shim_call>
10003bde:	4a08      	ldr	r2, [pc, #32]	; (10003c00 <__wrap___aeabi_dmul+0x16>)
10003be0:	6614      	str	r4, [r2, #96]	; 0x60
10003be2:	6655      	str	r5, [r2, #100]	; 0x64
10003be4:	6757      	str	r7, [r2, #116]	; 0x74
10003be6:	6716      	str	r6, [r2, #112]	; 0x70
10003be8:	bdf0      	pop	{r4, r5, r6, r7, pc}

10003bea <__wrap___aeabi_dmul>:
10003bea:	b418      	push	{r3, r4}
10003bec:	4b03      	ldr	r3, [pc, #12]	; (10003bfc <__wrap___aeabi_dmul+0x12>)
10003bee:	689b      	ldr	r3, [r3, #8]
10003bf0:	46fc      	mov	ip, pc
10003bf2:	9301      	str	r3, [sp, #4]
10003bf4:	bd08      	pop	{r3, pc}
10003bf6:	df08      	.short	0xdf08
10003bf8:	10003fc5 	.word	0x10003fc5
10003bfc:	20001cc4 	.word	0x20001cc4
10003c00:	d0000000 	.word	0xd0000000

10003c04 <__wrap___aeabi_cdrcmple>:
10003c04:	b5ff      	push	{r0, r1, r2, r3, r4, r5, r6, r7, lr}
10003c06:	4050      	eors	r0, r2
10003c08:	4042      	eors	r2, r0
10003c0a:	4050      	eors	r0, r2
10003c0c:	4059      	eors	r1, r3
10003c0e:	404b      	eors	r3, r1
10003c10:	4059      	eors	r1, r3
10003c12:	e000      	b.n	10003c16 <__aeabi_dfcmple_guts>

10003c14 <__wrap___aeabi_cdcmpeq>:
10003c14:	b5ff      	push	{r0, r1, r2, r3, r4, r5, r6, r7, lr}

10003c16 <__aeabi_dfcmple_guts>:
10003c16:	4f15      	ldr	r7, [pc, #84]	; (10003c6c <__aeabi_dfcmple_guts+0x56>)
10003c18:	004c      	lsls	r4, r1, #1
10003c1a:	0d64      	lsrs	r4, r4, #21
10003c1c:	d003      	beq.n	10003c26 <__aeabi_dfcmple_guts+0x10>
10003c1e:	42bc      	cmp	r4, r7
10003c20:	d104      	bne.n	10003c2c <__aeabi_dfcmple_guts+0x16>
10003c22:	030c      	lsls	r4, r1, #12
10003c24:	d814      	bhi.n	10003c50 <__aeabi_dfcmple_guts+0x3a>
10003c26:	2000      	movs	r0, #0
10003c28:	0d09      	lsrs	r1, r1, #20
10003c2a:	0509      	lsls	r1, r1, #20
10003c2c:	005c      	lsls	r4, r3, #1
10003c2e:	0d64      	lsrs	r4, r4, #21
10003c30:	d003      	beq.n	10003c3a <__aeabi_dfcmple_guts+0x24>
10003c32:	42bc      	cmp	r4, r7
10003c34:	d104      	bne.n	10003c40 <__aeabi_dfcmple_guts+0x2a>
10003c36:	031c      	lsls	r4, r3, #12
10003c38:	d80a      	bhi.n	10003c50 <__aeabi_dfcmple_guts+0x3a>
10003c3a:	2200      	movs	r2, #0
10003c3c:	0d1b      	lsrs	r3, r3, #20
10003c3e:	051b      	lsls	r3, r3, #20
10003c40:	2601      	movs	r6, #1
10003c42:	404b      	eors	r3, r1
10003c44:	d409      	bmi.n	10003c5a <__aeabi_dfcmple_guts+0x44>
10003c46:	404b      	eors	r3, r1
10003c48:	d503      	bpl.n	10003c52 <__aeabi_dfcmple_guts+0x3c>
10003c4a:	428b      	cmp	r3, r1
10003c4c:	d100      	bne.n	10003c50 <__aeabi_dfcmple_guts+0x3a>
10003c4e:	4282      	cmp	r2, r0
10003c50:	bdff      	pop	{r0, r1, r2, r3, r4, r5, r6, r7, pc}
10003c52:	4299      	cmp	r1, r3
10003c54:	d1fc      	bne.n	10003c50 <__aeabi_dfcmple_guts+0x3a>
10003c56:	4290      	cmp	r0, r2
10003c58:	bdff      	pop	{r0, r1, r2, r3, r4, r5, r6, r7, pc}
10003c5a:	430b      	orrs	r3, r1
10003c5c:	18db      	adds	r3, r3, r3
10003c5e:	4303      	orrs	r3, r0
10003c60:	4313      	orrs	r3, r2
10003c62:	d0f5      	beq.n	10003c50 <__aeabi_dfcmple_guts+0x3a>
10003c64:	43c9      	mvns	r1, r1
10003c66:	1849      	adds	r1, r1, r1
10003c68:	bdff      	pop	{r0, r1, r2, r3, r4, r5, r6, r7, pc}
10003c6a:	0000      	.short	0x0000
10003c6c:	000007ff 	.word	0x000007ff

10003c70 <__wrap___aeabi_dcmplt>:
10003c70:	b500      	push	{lr}
10003c72:	f7ff ffcf 	bl	10003c14 <__wrap___aeabi_cdcmpeq>
10003c76:	4180      	sbcs	r0, r0
10003c78:	bd00      	pop	{pc}
10003c7a:	46c0      	nop			; (mov r8, r8)

10003c7c <__wrap___aeabi_dcmple>:
10003c7c:	b500      	push	{lr}
10003c7e:	f7ff ffc9 	bl	10003c14 <__wrap___aeabi_cdcmpeq>
10003c82:	d901      	bls.n	10003c88 <__wrap___aeabi_dcmple+0xc>
10003c84:	2000      	movs	r0, #0
10003c86:	bd00      	pop	{pc}
10003c88:	2001      	movs	r0, #1
10003c8a:	bd00      	pop	{pc}

10003c8c <__wrap___aeabi_dcmpge>:
10003c8c:	b500      	push	{lr}
10003c8e:	f7ff ffb9 	bl	10003c04 <__wrap___aeabi_cdrcmple>
10003c92:	d901      	bls.n	10003c98 <__wrap___aeabi_dcmpge+0xc>
10003c94:	2000      	movs	r0, #0
10003c96:	bd00      	pop	{pc}
10003c98:	2001      	movs	r0, #1
10003c9a:	bd00      	pop	{pc}

10003c9c <__wrap___aeabi_dcmpgt>:
10003c9c:	b500      	push	{lr}
10003c9e:	f7ff ffb1 	bl	10003c04 <__wrap___aeabi_cdrcmple>
10003ca2:	4180      	sbcs	r0, r0
10003ca4:	bd00      	pop	{pc}

10003ca6 <__wrap___aeabi_dcmpun>:
10003ca6:	2001      	movs	r0, #1
10003ca8:	0540      	lsls	r0, r0, #21
10003caa:	004a      	lsls	r2, r1, #1
10003cac:	1812      	adds	r2, r2, r0
10003cae:	d804      	bhi.n	10003cba <__wrap___aeabi_dcmpun+0x14>
10003cb0:	005a      	lsls	r2, r3, #1
10003cb2:	1812      	adds	r2, r2, r0
10003cb4:	d801      	bhi.n	10003cba <__wrap___aeabi_dcmpun+0x14>
10003cb6:	2000      	movs	r0, #0
10003cb8:	4770      	bx	lr
10003cba:	2001      	movs	r0, #1
10003cbc:	4770      	bx	lr
10003cbe:	2000      	movs	r0, #0
10003cc0:	4770      	bx	lr
	...

10003cc4 <__wrap___aeabi_ui2d>:
10003cc4:	2100      	movs	r1, #0
10003cc6:	2800      	cmp	r0, #0
10003cc8:	d105      	bne.n	10003cd6 <__wrap___aeabi_i2d+0xa>
10003cca:	4770      	bx	lr

10003ccc <__wrap___aeabi_i2d>:
10003ccc:	17c1      	asrs	r1, r0, #31
10003cce:	4048      	eors	r0, r1
10003cd0:	1a40      	subs	r0, r0, r1
10003cd2:	d0fa      	beq.n	10003cca <__wrap___aeabi_ui2d+0x6>
10003cd4:	07c9      	lsls	r1, r1, #31
10003cd6:	b513      	push	{r0, r1, r4, lr}
10003cd8:	4b06      	ldr	r3, [pc, #24]	; (10003cf4 <__wrap___aeabi_i2d+0x28>)
10003cda:	681b      	ldr	r3, [r3, #0]
10003cdc:	4798      	blx	r3
10003cde:	bc0c      	pop	{r2, r3}
10003ce0:	1c44      	adds	r4, r0, #1
10003ce2:	40a2      	lsls	r2, r4
10003ce4:	0510      	lsls	r0, r2, #20
10003ce6:	0b12      	lsrs	r2, r2, #12
10003ce8:	4903      	ldr	r1, [pc, #12]	; (10003cf8 <__wrap___aeabi_i2d+0x2c>)
10003cea:	1b09      	subs	r1, r1, r4
10003cec:	0509      	lsls	r1, r1, #20
10003cee:	4319      	orrs	r1, r3
10003cf0:	4311      	orrs	r1, r2
10003cf2:	bd10      	pop	{r4, pc}
10003cf4:	20001c94 	.word	0x20001c94
10003cf8:	0000041f 	.word	0x0000041f

10003cfc <__wrap___aeabi_d2iz>:
10003cfc:	b510      	push	{r4, lr}
10003cfe:	004c      	lsls	r4, r1, #1
10003d00:	0d62      	lsrs	r2, r4, #21
10003d02:	2380      	movs	r3, #128	; 0x80
10003d04:	18d2      	adds	r2, r2, r3
10003d06:	00db      	lsls	r3, r3, #3
10003d08:	1ad2      	subs	r2, r2, r3
10003d0a:	055b      	lsls	r3, r3, #21
10003d0c:	2a7e      	cmp	r2, #126	; 0x7e
10003d0e:	dd10      	ble.n	10003d32 <__wrap___aeabi_d2iz+0x36>
10003d10:	3a9e      	subs	r2, #158	; 0x9e
10003d12:	da13      	bge.n	10003d3c <__wrap___aeabi_d2iz+0x40>
10003d14:	17cc      	asrs	r4, r1, #31
10003d16:	0309      	lsls	r1, r1, #12
10003d18:	0849      	lsrs	r1, r1, #1
10003d1a:	4319      	orrs	r1, r3
10003d1c:	4252      	negs	r2, r2
10003d1e:	40d1      	lsrs	r1, r2
10003d20:	0064      	lsls	r4, r4, #1
10003d22:	3401      	adds	r4, #1
10003d24:	3215      	adds	r2, #21
10003d26:	2a20      	cmp	r2, #32
10003d28:	da05      	bge.n	10003d36 <__wrap___aeabi_d2iz+0x3a>
10003d2a:	40d0      	lsrs	r0, r2
10003d2c:	4308      	orrs	r0, r1
10003d2e:	4360      	muls	r0, r4
10003d30:	bd10      	pop	{r4, pc}
10003d32:	2000      	movs	r0, #0
10003d34:	bd10      	pop	{r4, pc}
10003d36:	4608      	mov	r0, r1
10003d38:	4360      	muls	r0, r4
10003d3a:	bd10      	pop	{r4, pc}
10003d3c:	0fc8      	lsrs	r0, r1, #31
10003d3e:	18c0      	adds	r0, r0, r3
10003d40:	3801      	subs	r0, #1
10003d42:	bd10      	pop	{r4, pc}

10003d44 <__wrap___aeabi_d2uiz>:
10003d44:	b418      	push	{r3, r4}
10003d46:	4b04      	ldr	r3, [pc, #16]	; (10003d58 <__wrap___aeabi_d2uiz+0x14>)
10003d48:	6a5b      	ldr	r3, [r3, #36]	; 0x24
10003d4a:	46fc      	mov	ip, pc
10003d4c:	9301      	str	r3, [sp, #4]
10003d4e:	bd08      	pop	{r3, pc}
10003d50:	42d1df24 	.word	0x42d1df24
10003d54:	00001000 	.word	0x00001000
10003d58:	20001cc4 	.word	0x20001cc4

10003d5c <__aeabi_double_init>:
10003d5c:	b570      	push	{r4, r5, r6, lr}
10003d5e:	2313      	movs	r3, #19
10003d60:	781c      	ldrb	r4, [r3, #0]
10003d62:	2c01      	cmp	r4, #1
10003d64:	d00c      	beq.n	10003d80 <__aeabi_double_init+0x24>
10003d66:	2c01      	cmp	r4, #1
10003d68:	dc13      	bgt.n	10003d92 <__aeabi_double_init+0x36>
10003d6a:	2c02      	cmp	r4, #2
10003d6c:	dc02      	bgt.n	10003d74 <__aeabi_double_init+0x18>
10003d6e:	4a1f      	ldr	r2, [pc, #124]	; (10003dec <__aeabi_double_init+0x90>)
10003d70:	4b1f      	ldr	r3, [pc, #124]	; (10003df0 <__aeabi_double_init+0x94>)
10003d72:	649a      	str	r2, [r3, #72]	; 0x48
10003d74:	481f      	ldr	r0, [pc, #124]	; (10003df4 <__aeabi_double_init+0x98>)
10003d76:	f7ff fc71 	bl	1000365c <rom_func_lookup>
10003d7a:	4b1f      	ldr	r3, [pc, #124]	; (10003df8 <__aeabi_double_init+0x9c>)
10003d7c:	6018      	str	r0, [r3, #0]
10003d7e:	bd70      	pop	{r4, r5, r6, pc}
10003d80:	2300      	movs	r3, #0
10003d82:	2b1f      	cmp	r3, #31
10003d84:	d8ef      	bhi.n	10003d66 <__aeabi_double_init+0xa>
10003d86:	0099      	lsls	r1, r3, #2
10003d88:	4818      	ldr	r0, [pc, #96]	; (10003dec <__aeabi_double_init+0x90>)
10003d8a:	4a19      	ldr	r2, [pc, #100]	; (10003df0 <__aeabi_double_init+0x94>)
10003d8c:	5088      	str	r0, [r1, r2]
10003d8e:	3301      	adds	r3, #1
10003d90:	e7f7      	b.n	10003d82 <__aeabi_double_init+0x26>
10003d92:	481a      	ldr	r0, [pc, #104]	; (10003dfc <__aeabi_double_init+0xa0>)
10003d94:	f7ff fc6a 	bl	1000366c <rom_data_lookup>
10003d98:	0005      	movs	r5, r0
10003d9a:	4819      	ldr	r0, [pc, #100]	; (10003e00 <__aeabi_double_init+0xa4>)
10003d9c:	f7ff fc66 	bl	1000366c <rom_data_lookup>
10003da0:	3802      	subs	r0, #2
10003da2:	7803      	ldrb	r3, [r0, #0]
10003da4:	009b      	lsls	r3, r3, #2
10003da6:	2b7f      	cmp	r3, #127	; 0x7f
10003da8:	dd19      	ble.n	10003dde <__aeabi_double_init+0x82>
10003daa:	2280      	movs	r2, #128	; 0x80
10003dac:	0029      	movs	r1, r5
10003dae:	4810      	ldr	r0, [pc, #64]	; (10003df0 <__aeabi_double_init+0x94>)
10003db0:	f000 fbac 	bl	1000450c <__wrap___aeabi_memcpy>
10003db4:	2c02      	cmp	r4, #2
10003db6:	d1d8      	bne.n	10003d6a <__aeabi_double_init+0xe>
10003db8:	4b12      	ldr	r3, [pc, #72]	; (10003e04 <__aeabi_double_init+0xa8>)
10003dba:	881a      	ldrh	r2, [r3, #0]
10003dbc:	23b5      	movs	r3, #181	; 0xb5
10003dbe:	021b      	lsls	r3, r3, #8
10003dc0:	429a      	cmp	r2, r3
10003dc2:	d109      	bne.n	10003dd8 <__aeabi_double_init+0x7c>
10003dc4:	4b10      	ldr	r3, [pc, #64]	; (10003e08 <__aeabi_double_init+0xac>)
10003dc6:	881a      	ldrh	r2, [r3, #0]
10003dc8:	4b10      	ldr	r3, [pc, #64]	; (10003e0c <__aeabi_double_init+0xb0>)
10003dca:	429a      	cmp	r2, r3
10003dcc:	d104      	bne.n	10003dd8 <__aeabi_double_init+0x7c>
10003dce:	4b10      	ldr	r3, [pc, #64]	; (10003e10 <__aeabi_double_init+0xb4>)
10003dd0:	881a      	ldrh	r2, [r3, #0]
10003dd2:	4b10      	ldr	r3, [pc, #64]	; (10003e14 <__aeabi_double_init+0xb8>)
10003dd4:	429a      	cmp	r2, r3
10003dd6:	d0c8      	beq.n	10003d6a <__aeabi_double_init+0xe>
10003dd8:	2000      	movs	r0, #0
10003dda:	f7fe f9e7 	bl	100021ac <panic>
10003dde:	4b0e      	ldr	r3, [pc, #56]	; (10003e18 <__aeabi_double_init+0xbc>)
10003de0:	4a0e      	ldr	r2, [pc, #56]	; (10003e1c <__aeabi_double_init+0xc0>)
10003de2:	2132      	movs	r1, #50	; 0x32
10003de4:	480e      	ldr	r0, [pc, #56]	; (10003e20 <__aeabi_double_init+0xc4>)
10003de6:	f7fe f947 	bl	10002078 <__assert_func>
10003dea:	46c0      	nop			; (mov r8, r8)
10003dec:	10003e25 	.word	0x10003e25
10003df0:	20001cc4 	.word	0x20001cc4
10003df4:	0000334c 	.word	0x0000334c
10003df8:	20001c94 	.word	0x20001c94
10003dfc:	00004453 	.word	0x00004453
10003e00:	00004653 	.word	0x00004653
10003e04:	00003854 	.word	0x00003854
10003e08:	000038d8 	.word	0x000038d8
10003e0c:	00004649 	.word	0x00004649
10003e10:	0000389c 	.word	0x0000389c
10003e14:	00004659 	.word	0x00004659
10003e18:	10009a88 	.word	0x10009a88
10003e1c:	10009b3c 	.word	0x10009b3c
10003e20:	10009ae8 	.word	0x10009ae8

10003e24 <double_table_shim_on_use_helper>:
10003e24:	b507      	push	{r0, r1, r2, lr}
10003e26:	4660      	mov	r0, ip
10003e28:	2800      	cmp	r0, #0
10003e2a:	d100      	bne.n	10003e2e <double_table_shim_on_use_helper+0xa>
10003e2c:	be00      	bkpt	0x0000
10003e2e:	8801      	ldrh	r1, [r0, #0]
10003e30:	0a0a      	lsrs	r2, r1, #8
10003e32:	3002      	adds	r0, #2
10003e34:	2adf      	cmp	r2, #223	; 0xdf
10003e36:	d1fa      	bne.n	10003e2e <double_table_shim_on_use_helper+0xa>
10003e38:	b2c9      	uxtb	r1, r1
10003e3a:	0882      	lsrs	r2, r0, #2
10003e3c:	d304      	bcc.n	10003e48 <double_table_shim_on_use_helper+0x24>
10003e3e:	8802      	ldrh	r2, [r0, #0]
10003e40:	8840      	ldrh	r0, [r0, #2]
10003e42:	0400      	lsls	r0, r0, #16
10003e44:	4310      	orrs	r0, r2
10003e46:	e000      	b.n	10003e4a <double_table_shim_on_use_helper+0x26>
10003e48:	6800      	ldr	r0, [r0, #0]
10003e4a:	4a02      	ldr	r2, [pc, #8]	; (10003e54 <double_table_shim_on_use_helper+0x30>)
10003e4c:	5050      	str	r0, [r2, r1]
10003e4e:	9003      	str	r0, [sp, #12]
10003e50:	bd07      	pop	{r0, r1, r2, pc}
10003e52:	0000      	.short	0x0000
10003e54:	20001cc4 	.word	0x20001cc4

10003e58 <drsub_shim>:
10003e58:	b40f      	push	{r0, r1, r2, r3}
10003e5a:	bc03      	pop	{r0, r1}
10003e5c:	bc0c      	pop	{r2, r3}

10003e5e <dsub_shim>:
10003e5e:	b5f0      	push	{r4, r5, r6, r7, lr}
10003e60:	2401      	movs	r4, #1
10003e62:	07e4      	lsls	r4, r4, #31
10003e64:	4063      	eors	r3, r4
10003e66:	e000      	b.n	10003e6a <da_entry>

10003e68 <dadd_shim>:
10003e68:	b5f0      	push	{r4, r5, r6, r7, lr}

10003e6a <da_entry>:
10003e6a:	0d0c      	lsrs	r4, r1, #20
10003e6c:	0fcf      	lsrs	r7, r1, #31
10003e6e:	1e66      	subs	r6, r4, #1
10003e70:	0536      	lsls	r6, r6, #20
10003e72:	1b89      	subs	r1, r1, r6
10003e74:	0564      	lsls	r4, r4, #21
10003e76:	d303      	bcc.n	10003e80 <l7_1>
10003e78:	43c9      	mvns	r1, r1
10003e7a:	4240      	negs	r0, r0
10003e7c:	d300      	bcc.n	10003e80 <l7_1>
10003e7e:	3101      	adds	r1, #1

10003e80 <l7_1>:
10003e80:	0d64      	lsrs	r4, r4, #21
10003e82:	d003      	beq.n	10003e8c <l7_2>
10003e84:	1c66      	adds	r6, r4, #1
10003e86:	0af6      	lsrs	r6, r6, #11
10003e88:	d007      	beq.n	10003e9a <l7_3>
10003e8a:	1be4      	subs	r4, r4, r7

10003e8c <l7_2>:
10003e8c:	2000      	movs	r0, #0
10003e8e:	007f      	lsls	r7, r7, #1
10003e90:	1c79      	adds	r1, r7, #1
10003e92:	0789      	lsls	r1, r1, #30
10003e94:	1289      	asrs	r1, r1, #10
10003e96:	3c80      	subs	r4, #128	; 0x80
10003e98:	0324      	lsls	r4, r4, #12

10003e9a <l7_3>:
10003e9a:	0d1d      	lsrs	r5, r3, #20
10003e9c:	0fdf      	lsrs	r7, r3, #31
10003e9e:	1e6e      	subs	r6, r5, #1
10003ea0:	0536      	lsls	r6, r6, #20
10003ea2:	1b9b      	subs	r3, r3, r6
10003ea4:	056d      	lsls	r5, r5, #21
10003ea6:	d303      	bcc.n	10003eb0 <l8_1>
10003ea8:	43db      	mvns	r3, r3
10003eaa:	4252      	negs	r2, r2
10003eac:	d300      	bcc.n	10003eb0 <l8_1>
10003eae:	3301      	adds	r3, #1

10003eb0 <l8_1>:
10003eb0:	0d6d      	lsrs	r5, r5, #21
10003eb2:	d003      	beq.n	10003ebc <l8_2>
10003eb4:	1c6e      	adds	r6, r5, #1
10003eb6:	0af6      	lsrs	r6, r6, #11
10003eb8:	d007      	beq.n	10003eca <l8_3>
10003eba:	1bed      	subs	r5, r5, r7

10003ebc <l8_2>:
10003ebc:	2200      	movs	r2, #0
10003ebe:	007f      	lsls	r7, r7, #1
10003ec0:	1c7b      	adds	r3, r7, #1
10003ec2:	079b      	lsls	r3, r3, #30
10003ec4:	129b      	asrs	r3, r3, #10
10003ec6:	3d80      	subs	r5, #128	; 0x80
10003ec8:	032d      	lsls	r5, r5, #12

10003eca <l8_3>:
10003eca:	1b2f      	subs	r7, r5, r4
10003ecc:	1b66      	subs	r6, r4, r5
10003ece:	d458      	bmi.n	10003f82 <da_ygtx>
10003ed0:	46a4      	mov	ip, r4
10003ed2:	2e20      	cmp	r6, #32
10003ed4:	da46      	bge.n	10003f64 <da_xrgty>
10003ed6:	3720      	adds	r7, #32
10003ed8:	0014      	movs	r4, r2
10003eda:	40bc      	lsls	r4, r7

10003edc <da_xgty0>:
10003edc:	001d      	movs	r5, r3
10003ede:	40bd      	lsls	r5, r7
10003ee0:	40f2      	lsrs	r2, r6
10003ee2:	4133      	asrs	r3, r6
10003ee4:	432a      	orrs	r2, r5

10003ee6 <da_add>:
10003ee6:	1880      	adds	r0, r0, r2
10003ee8:	4159      	adcs	r1, r3

10003eea <da_pack>:
10003eea:	0fcb      	lsrs	r3, r1, #31
10003eec:	d005      	beq.n	10003efa <da_pack+0x10>
10003eee:	43c9      	mvns	r1, r1
10003ef0:	43c0      	mvns	r0, r0
10003ef2:	2200      	movs	r2, #0
10003ef4:	4264      	negs	r4, r4
10003ef6:	4150      	adcs	r0, r2
10003ef8:	4151      	adcs	r1, r2
10003efa:	4662      	mov	r2, ip
10003efc:	0d4d      	lsrs	r5, r1, #21
10003efe:	d128      	bne.n	10003f52 <da_0>
10003f00:	0d0d      	lsrs	r5, r1, #20
10003f02:	d107      	bne.n	10003f14 <da_1>
10003f04:	2800      	cmp	r0, #0
10003f06:	d01f      	beq.n	10003f48 <da_5>

10003f08 <da_2>:
10003f08:	1924      	adds	r4, r4, r4
10003f0a:	4140      	adcs	r0, r0
10003f0c:	4149      	adcs	r1, r1
10003f0e:	3a01      	subs	r2, #1
10003f10:	0d0d      	lsrs	r5, r1, #20
10003f12:	d0f9      	beq.n	10003f08 <da_2>

10003f14 <da_1>:
10003f14:	0064      	lsls	r4, r4, #1
10003f16:	d306      	bcc.n	10003f26 <da_3>

10003f18 <da_4>:
10003f18:	3001      	adds	r0, #1
10003f1a:	d300      	bcc.n	10003f1e <da_4+0x6>
10003f1c:	3101      	adds	r1, #1
10003f1e:	2c00      	cmp	r4, #0
10003f20:	d101      	bne.n	10003f26 <da_3>
10003f22:	0840      	lsrs	r0, r0, #1
10003f24:	0040      	lsls	r0, r0, #1

10003f26 <da_3>:
10003f26:	3a01      	subs	r2, #1
10003f28:	d40b      	bmi.n	10003f42 <da_6>
10003f2a:	1c94      	adds	r4, r2, #2
10003f2c:	0ae4      	lsrs	r4, r4, #11
10003f2e:	d104      	bne.n	10003f3a <da_7>
10003f30:	0512      	lsls	r2, r2, #20
10003f32:	4411      	add	r1, r2
10003f34:	07db      	lsls	r3, r3, #31
10003f36:	4419      	add	r1, r3
10003f38:	bdf0      	pop	{r4, r5, r6, r7, pc}

10003f3a <da_7>:
10003f3a:	07d9      	lsls	r1, r3, #31
10003f3c:	4b20      	ldr	r3, [pc, #128]	; (10003fc0 <da_xmgty+0x4>)
10003f3e:	4319      	orrs	r1, r3
10003f40:	e000      	b.n	10003f44 <da_6+0x2>

10003f42 <da_6>:
10003f42:	07d9      	lsls	r1, r3, #31
10003f44:	2000      	movs	r0, #0
10003f46:	bdf0      	pop	{r4, r5, r6, r7, pc}

10003f48 <da_5>:
10003f48:	2900      	cmp	r1, #0
10003f4a:	d1dd      	bne.n	10003f08 <da_2>
10003f4c:	2c00      	cmp	r4, #0
10003f4e:	d1db      	bne.n	10003f08 <da_2>
10003f50:	bdf0      	pop	{r4, r5, r6, r7, pc}

10003f52 <da_0>:
10003f52:	3201      	adds	r2, #1
10003f54:	07c6      	lsls	r6, r0, #31
10003f56:	0840      	lsrs	r0, r0, #1
10003f58:	07cd      	lsls	r5, r1, #31
10003f5a:	4328      	orrs	r0, r5
10003f5c:	0849      	lsrs	r1, r1, #1
10003f5e:	2e00      	cmp	r6, #0
10003f60:	d0e1      	beq.n	10003f26 <da_3>
10003f62:	e7d9      	b.n	10003f18 <da_4>

10003f64 <da_xrgty>:
10003f64:	2e3c      	cmp	r6, #60	; 0x3c
10003f66:	da29      	bge.n	10003fbc <da_xmgty>
10003f68:	3e20      	subs	r6, #32
10003f6a:	3740      	adds	r7, #64	; 0x40
10003f6c:	0014      	movs	r4, r2
10003f6e:	40bc      	lsls	r4, r7
10003f70:	d000      	beq.n	10003f74 <da_xrgty+0x10>
10003f72:	2401      	movs	r4, #1
10003f74:	40f2      	lsrs	r2, r6
10003f76:	4314      	orrs	r4, r2
10003f78:	001a      	movs	r2, r3
10003f7a:	40bb      	lsls	r3, r7
10003f7c:	431c      	orrs	r4, r3
10003f7e:	17d3      	asrs	r3, r2, #31
10003f80:	e7ac      	b.n	10003edc <da_xgty0>

10003f82 <da_ygtx>:
10003f82:	46ac      	mov	ip, r5
10003f84:	2f20      	cmp	r7, #32
10003f86:	da08      	bge.n	10003f9a <da_yrgtx>
10003f88:	3620      	adds	r6, #32
10003f8a:	0004      	movs	r4, r0
10003f8c:	40b4      	lsls	r4, r6

10003f8e <da_ygtx0>:
10003f8e:	000d      	movs	r5, r1
10003f90:	40b5      	lsls	r5, r6
10003f92:	40f8      	lsrs	r0, r7
10003f94:	4139      	asrs	r1, r7
10003f96:	4328      	orrs	r0, r5
10003f98:	e7a5      	b.n	10003ee6 <da_add>

10003f9a <da_yrgtx>:
10003f9a:	2f3c      	cmp	r7, #60	; 0x3c
10003f9c:	da0c      	bge.n	10003fb8 <da_ymgtx>
10003f9e:	3f20      	subs	r7, #32
10003fa0:	3640      	adds	r6, #64	; 0x40
10003fa2:	0004      	movs	r4, r0
10003fa4:	40b4      	lsls	r4, r6
10003fa6:	d000      	beq.n	10003faa <da_yrgtx+0x10>
10003fa8:	2401      	movs	r4, #1
10003faa:	40f8      	lsrs	r0, r7
10003fac:	4304      	orrs	r4, r0
10003fae:	0008      	movs	r0, r1
10003fb0:	40b1      	lsls	r1, r6
10003fb2:	430c      	orrs	r4, r1
10003fb4:	17c1      	asrs	r1, r0, #31
10003fb6:	e7ea      	b.n	10003f8e <da_ygtx0>

10003fb8 <da_ymgtx>:
10003fb8:	0010      	movs	r0, r2
10003fba:	0019      	movs	r1, r3

10003fbc <da_xmgty>:
10003fbc:	2400      	movs	r4, #0
10003fbe:	e794      	b.n	10003eea <da_pack>
10003fc0:	7ff00000 	.word	0x7ff00000

10003fc4 <dmul_shim>:
10003fc4:	b5f0      	push	{r4, r5, r6, r7, lr}
10003fc6:	0d0c      	lsrs	r4, r1, #20
10003fc8:	1e66      	subs	r6, r4, #1
10003fca:	0536      	lsls	r6, r6, #20
10003fcc:	1b89      	subs	r1, r1, r6
10003fce:	0ae6      	lsrs	r6, r4, #11
10003fd0:	0564      	lsls	r4, r4, #21
10003fd2:	0d64      	lsrs	r4, r4, #21
10003fd4:	d002      	beq.n	10003fdc <l11_1>
10003fd6:	1c65      	adds	r5, r4, #1
10003fd8:	0aed      	lsrs	r5, r5, #11
10003fda:	d004      	beq.n	10003fe6 <l11_2>

10003fdc <l11_1>:
10003fdc:	2000      	movs	r0, #0
10003fde:	2101      	movs	r1, #1
10003fe0:	0509      	lsls	r1, r1, #20
10003fe2:	3c80      	subs	r4, #128	; 0x80
10003fe4:	0324      	lsls	r4, r4, #12

10003fe6 <l11_2>:
10003fe6:	46a4      	mov	ip, r4
10003fe8:	0d1c      	lsrs	r4, r3, #20
10003fea:	1e67      	subs	r7, r4, #1
10003fec:	053f      	lsls	r7, r7, #20
10003fee:	1bdb      	subs	r3, r3, r7
10003ff0:	0ae7      	lsrs	r7, r4, #11
10003ff2:	0564      	lsls	r4, r4, #21
10003ff4:	0d64      	lsrs	r4, r4, #21
10003ff6:	d002      	beq.n	10003ffe <l12_1>
10003ff8:	1c65      	adds	r5, r4, #1
10003ffa:	0aed      	lsrs	r5, r5, #11
10003ffc:	d004      	beq.n	10004008 <l12_2>

10003ffe <l12_1>:
10003ffe:	2200      	movs	r2, #0
10004000:	2301      	movs	r3, #1
10004002:	051b      	lsls	r3, r3, #20
10004004:	3c80      	subs	r4, #128	; 0x80
10004006:	0324      	lsls	r4, r4, #12

10004008 <l12_2>:
10004008:	4077      	eors	r7, r6
1000400a:	4464      	add	r4, ip
1000400c:	b497      	push	{r0, r1, r2, r4, r7}
1000400e:	b284      	uxth	r4, r0
10004010:	b296      	uxth	r6, r2
10004012:	4374      	muls	r4, r6
10004014:	0c07      	lsrs	r7, r0, #16
10004016:	437e      	muls	r6, r7
10004018:	0c15      	lsrs	r5, r2, #16
1000401a:	436f      	muls	r7, r5
1000401c:	b280      	uxth	r0, r0
1000401e:	4368      	muls	r0, r5
10004020:	1836      	adds	r6, r6, r0
10004022:	d302      	bcc.n	1000402a <l13_1>
10004024:	2001      	movs	r0, #1
10004026:	0400      	lsls	r0, r0, #16
10004028:	183f      	adds	r7, r7, r0

1000402a <l13_1>:
1000402a:	0430      	lsls	r0, r6, #16
1000402c:	0c35      	lsrs	r5, r6, #16
1000402e:	1900      	adds	r0, r0, r4
10004030:	417d      	adcs	r5, r7
10004032:	4684      	mov	ip, r0
10004034:	b288      	uxth	r0, r1
10004036:	b29a      	uxth	r2, r3
10004038:	4350      	muls	r0, r2
1000403a:	0c0c      	lsrs	r4, r1, #16
1000403c:	4362      	muls	r2, r4
1000403e:	0c1f      	lsrs	r7, r3, #16
10004040:	437c      	muls	r4, r7
10004042:	b28e      	uxth	r6, r1
10004044:	437e      	muls	r6, r7
10004046:	1992      	adds	r2, r2, r6
10004048:	d302      	bcc.n	10004050 <l14_1>
1000404a:	2601      	movs	r6, #1
1000404c:	0436      	lsls	r6, r6, #16
1000404e:	19a4      	adds	r4, r4, r6

10004050 <l14_1>:
10004050:	0416      	lsls	r6, r2, #16
10004052:	0c17      	lsrs	r7, r2, #16
10004054:	1836      	adds	r6, r6, r0
10004056:	4167      	adcs	r7, r4
10004058:	bc01      	pop	{r0}
1000405a:	b281      	uxth	r1, r0
1000405c:	b29a      	uxth	r2, r3
1000405e:	4351      	muls	r1, r2
10004060:	0c04      	lsrs	r4, r0, #16
10004062:	4362      	muls	r2, r4
10004064:	0c1b      	lsrs	r3, r3, #16
10004066:	435c      	muls	r4, r3
10004068:	b280      	uxth	r0, r0
1000406a:	4358      	muls	r0, r3
1000406c:	1812      	adds	r2, r2, r0
1000406e:	d302      	bcc.n	10004076 <l15_1>
10004070:	2001      	movs	r0, #1
10004072:	0400      	lsls	r0, r0, #16
10004074:	1824      	adds	r4, r4, r0

10004076 <l15_1>:
10004076:	0410      	lsls	r0, r2, #16
10004078:	0c13      	lsrs	r3, r2, #16
1000407a:	1840      	adds	r0, r0, r1
1000407c:	4163      	adcs	r3, r4
1000407e:	182d      	adds	r5, r5, r0
10004080:	415e      	adcs	r6, r3
10004082:	2000      	movs	r0, #0
10004084:	4147      	adcs	r7, r0
10004086:	bc06      	pop	{r1, r2}
10004088:	b288      	uxth	r0, r1
1000408a:	b293      	uxth	r3, r2
1000408c:	4358      	muls	r0, r3
1000408e:	0c0c      	lsrs	r4, r1, #16
10004090:	4363      	muls	r3, r4
10004092:	0c12      	lsrs	r2, r2, #16
10004094:	4354      	muls	r4, r2
10004096:	b289      	uxth	r1, r1
10004098:	4351      	muls	r1, r2
1000409a:	185b      	adds	r3, r3, r1
1000409c:	d302      	bcc.n	100040a4 <l16_1>
1000409e:	2101      	movs	r1, #1
100040a0:	0409      	lsls	r1, r1, #16
100040a2:	1864      	adds	r4, r4, r1

100040a4 <l16_1>:
100040a4:	0419      	lsls	r1, r3, #16
100040a6:	0c1a      	lsrs	r2, r3, #16
100040a8:	1809      	adds	r1, r1, r0
100040aa:	4162      	adcs	r2, r4
100040ac:	186d      	adds	r5, r5, r1
100040ae:	4156      	adcs	r6, r2
100040b0:	2000      	movs	r0, #0
100040b2:	4147      	adcs	r7, r0
100040b4:	bc18      	pop	{r3, r4}
100040b6:	02f9      	lsls	r1, r7, #11
100040b8:	0d72      	lsrs	r2, r6, #21
100040ba:	4311      	orrs	r1, r2
100040bc:	02f0      	lsls	r0, r6, #11
100040be:	0d6a      	lsrs	r2, r5, #21
100040c0:	4310      	orrs	r0, r2
100040c2:	02ed      	lsls	r5, r5, #11
100040c4:	0d0a      	lsrs	r2, r1, #20
100040c6:	d103      	bne.n	100040d0 <l16_1+0x2c>
100040c8:	196d      	adds	r5, r5, r5
100040ca:	4140      	adcs	r0, r0
100040cc:	4149      	adcs	r1, r1
100040ce:	3b01      	subs	r3, #1
100040d0:	4e12      	ldr	r6, [pc, #72]	; (1000411c <dm_1+0xa>)
100040d2:	1b9b      	subs	r3, r3, r6
100040d4:	0076      	lsls	r6, r6, #1
100040d6:	42b3      	cmp	r3, r6
100040d8:	d20e      	bcs.n	100040f8 <dm_0>
100040da:	006d      	lsls	r5, r5, #1
100040dc:	d307      	bcc.n	100040ee <l16_1+0x4a>
100040de:	3001      	adds	r0, #1
100040e0:	2600      	movs	r6, #0
100040e2:	4171      	adcs	r1, r6
100040e4:	4666      	mov	r6, ip
100040e6:	4335      	orrs	r5, r6
100040e8:	d101      	bne.n	100040ee <l16_1+0x4a>
100040ea:	0840      	lsrs	r0, r0, #1
100040ec:	0040      	lsls	r0, r0, #1
100040ee:	051b      	lsls	r3, r3, #20
100040f0:	18c9      	adds	r1, r1, r3

100040f2 <dm_2>:
100040f2:	07e4      	lsls	r4, r4, #31
100040f4:	4421      	add	r1, r4
100040f6:	bdf0      	pop	{r4, r5, r6, r7, pc}

100040f8 <dm_0>:
100040f8:	da0b      	bge.n	10004112 <dm_1>
100040fa:	3301      	adds	r3, #1
100040fc:	d106      	bne.n	1000410c <dm_0+0x14>
100040fe:	3001      	adds	r0, #1
10004100:	d104      	bne.n	1000410c <dm_0+0x14>
10004102:	3101      	adds	r1, #1
10004104:	0d4f      	lsrs	r7, r1, #21
10004106:	d001      	beq.n	1000410c <dm_0+0x14>
10004108:	0849      	lsrs	r1, r1, #1
1000410a:	e7f2      	b.n	100040f2 <dm_2>
1000410c:	07e1      	lsls	r1, r4, #31
1000410e:	2000      	movs	r0, #0
10004110:	bdf0      	pop	{r4, r5, r6, r7, pc}

10004112 <dm_1>:
10004112:	3601      	adds	r6, #1
10004114:	0531      	lsls	r1, r6, #20
10004116:	2000      	movs	r0, #0
10004118:	e7eb      	b.n	100040f2 <dm_2>
1000411a:	0000      	.short	0x0000
1000411c:	000003ff 	.word	0x000003ff

10004120 <ddiv_shim>:
10004120:	b5f0      	push	{r4, r5, r6, r7, lr}

10004122 <ddiv0>:
10004122:	0d1c      	lsrs	r4, r3, #20
10004124:	1e67      	subs	r7, r4, #1
10004126:	053f      	lsls	r7, r7, #20
10004128:	1bdb      	subs	r3, r3, r7
1000412a:	0ae7      	lsrs	r7, r4, #11
1000412c:	0564      	lsls	r4, r4, #21
1000412e:	0d64      	lsrs	r4, r4, #21
10004130:	d002      	beq.n	10004138 <l19_1>
10004132:	1c66      	adds	r6, r4, #1
10004134:	0af6      	lsrs	r6, r6, #11
10004136:	d004      	beq.n	10004142 <l19_2>

10004138 <l19_1>:
10004138:	2200      	movs	r2, #0
1000413a:	2301      	movs	r3, #1
1000413c:	051b      	lsls	r3, r3, #20
1000413e:	3c80      	subs	r4, #128	; 0x80
10004140:	0324      	lsls	r4, r4, #12

10004142 <l19_2>:
10004142:	25d0      	movs	r5, #208	; 0xd0
10004144:	062d      	lsls	r5, r5, #24
10004146:	2600      	movs	r6, #0
10004148:	43f6      	mvns	r6, r6
1000414a:	662e      	str	r6, [r5, #96]	; 0x60
1000414c:	091e      	lsrs	r6, r3, #4
1000414e:	666e      	str	r6, [r5, #100]	; 0x64
10004150:	0fce      	lsrs	r6, r1, #31
10004152:	19f6      	adds	r6, r6, r7
10004154:	46b4      	mov	ip, r6
10004156:	0049      	lsls	r1, r1, #1
10004158:	0d4f      	lsrs	r7, r1, #21
1000415a:	d002      	beq.n	10004162 <l19_2+0x20>
1000415c:	1c7e      	adds	r6, r7, #1
1000415e:	0af6      	lsrs	r6, r6, #11
10004160:	d003      	beq.n	1000416a <l19_2+0x28>
10004162:	2000      	movs	r0, #0
10004164:	2100      	movs	r1, #0
10004166:	3f40      	subs	r7, #64	; 0x40
10004168:	033f      	lsls	r7, r7, #12
1000416a:	1b3e      	subs	r6, r7, r4
1000416c:	00b6      	lsls	r6, r6, #2
1000416e:	44b4      	add	ip, r6
10004170:	3f01      	subs	r7, #1
10004172:	057f      	lsls	r7, r7, #21
10004174:	1bc9      	subs	r1, r1, r7
10004176:	0849      	lsrs	r1, r1, #1
10004178:	6f2e      	ldr	r6, [r5, #112]	; 0x70
1000417a:	3601      	adds	r6, #1
1000417c:	0876      	lsrs	r6, r6, #1
1000417e:	029c      	lsls	r4, r3, #10
10004180:	0d95      	lsrs	r5, r2, #22
10004182:	4325      	orrs	r5, r4
10004184:	4375      	muls	r5, r6
10004186:	13ed      	asrs	r5, r5, #15
10004188:	4375      	muls	r5, r6
1000418a:	13ad      	asrs	r5, r5, #14
1000418c:	3501      	adds	r5, #1
1000418e:	106d      	asrs	r5, r5, #1
10004190:	03f6      	lsls	r6, r6, #15
10004192:	1b76      	subs	r6, r6, r5
10004194:	b40c      	push	{r2, r3}
10004196:	02cc      	lsls	r4, r1, #11
10004198:	0d45      	lsrs	r5, r0, #21
1000419a:	432c      	orrs	r4, r5
1000419c:	b2a2      	uxth	r2, r4
1000419e:	b2b3      	uxth	r3, r6
100041a0:	435a      	muls	r2, r3
100041a2:	0c27      	lsrs	r7, r4, #16
100041a4:	437b      	muls	r3, r7
100041a6:	0c35      	lsrs	r5, r6, #16
100041a8:	436f      	muls	r7, r5
100041aa:	b2a4      	uxth	r4, r4
100041ac:	436c      	muls	r4, r5
100041ae:	191b      	adds	r3, r3, r4
100041b0:	d302      	bcc.n	100041b8 <l20_1>
100041b2:	2401      	movs	r4, #1
100041b4:	0424      	lsls	r4, r4, #16
100041b6:	193f      	adds	r7, r7, r4

100041b8 <l20_1>:
100041b8:	041c      	lsls	r4, r3, #16
100041ba:	0c1d      	lsrs	r5, r3, #16
100041bc:	18a4      	adds	r4, r4, r2
100041be:	417d      	adcs	r5, r7
100041c0:	1924      	adds	r4, r4, r4
100041c2:	416d      	adcs	r5, r5
100041c4:	9a00      	ldr	r2, [sp, #0]
100041c6:	b291      	uxth	r1, r2
100041c8:	b2ac      	uxth	r4, r5
100041ca:	4361      	muls	r1, r4
100041cc:	0c17      	lsrs	r7, r2, #16
100041ce:	437c      	muls	r4, r7
100041d0:	0c2b      	lsrs	r3, r5, #16
100041d2:	435f      	muls	r7, r3
100041d4:	b292      	uxth	r2, r2
100041d6:	435a      	muls	r2, r3
100041d8:	18a4      	adds	r4, r4, r2
100041da:	d302      	bcc.n	100041e2 <l21_1>
100041dc:	2201      	movs	r2, #1
100041de:	0412      	lsls	r2, r2, #16
100041e0:	18bf      	adds	r7, r7, r2

100041e2 <l21_1>:
100041e2:	0422      	lsls	r2, r4, #16
100041e4:	0c23      	lsrs	r3, r4, #16
100041e6:	1852      	adds	r2, r2, r1
100041e8:	417b      	adcs	r3, r7
100041ea:	9c01      	ldr	r4, [sp, #4]
100041ec:	436c      	muls	r4, r5
100041ee:	191b      	adds	r3, r3, r4
100041f0:	0e52      	lsrs	r2, r2, #25
100041f2:	01d9      	lsls	r1, r3, #7
100041f4:	430a      	orrs	r2, r1
100041f6:	0144      	lsls	r4, r0, #5
100041f8:	1aa0      	subs	r0, r4, r2
100041fa:	b281      	uxth	r1, r0
100041fc:	b2b2      	uxth	r2, r6
100041fe:	4351      	muls	r1, r2
10004200:	1403      	asrs	r3, r0, #16
10004202:	435a      	muls	r2, r3
10004204:	0c36      	lsrs	r6, r6, #16
10004206:	4373      	muls	r3, r6
10004208:	b287      	uxth	r7, r0
1000420a:	4377      	muls	r7, r6
1000420c:	17d6      	asrs	r6, r2, #31
1000420e:	19d2      	adds	r2, r2, r7
10004210:	2700      	movs	r7, #0
10004212:	417e      	adcs	r6, r7
10004214:	0436      	lsls	r6, r6, #16
10004216:	199b      	adds	r3, r3, r6
10004218:	0417      	lsls	r7, r2, #16
1000421a:	0c16      	lsrs	r6, r2, #16
1000421c:	187f      	adds	r7, r7, r1
1000421e:	415e      	adcs	r6, r3
10004220:	1673      	asrs	r3, r6, #25
10004222:	18ed      	adds	r5, r5, r3
10004224:	01f3      	lsls	r3, r6, #7
10004226:	2600      	movs	r6, #0
10004228:	3380      	adds	r3, #128	; 0x80
1000422a:	4175      	adcs	r5, r6
1000422c:	0fa9      	lsrs	r1, r5, #30
1000422e:	d106      	bne.n	1000423e <dd_0>
10004230:	0064      	lsls	r4, r4, #1
10004232:	0a69      	lsrs	r1, r5, #9
10004234:	05e8      	lsls	r0, r5, #23
10004236:	0a5b      	lsrs	r3, r3, #9
10004238:	4318      	orrs	r0, r3
1000423a:	d209      	bcs.n	10004250 <dd_1>
1000423c:	e02f      	b.n	1000429e <dd_2>

1000423e <dd_0>:
1000423e:	2204      	movs	r2, #4
10004240:	4494      	add	ip, r2
10004242:	3380      	adds	r3, #128	; 0x80
10004244:	4175      	adcs	r5, r6
10004246:	0aa9      	lsrs	r1, r5, #10
10004248:	05a8      	lsls	r0, r5, #22
1000424a:	0a9b      	lsrs	r3, r3, #10
1000424c:	4318      	orrs	r0, r3
1000424e:	d326      	bcc.n	1000429e <dd_2>

10004250 <dd_1>:
10004250:	4140      	adcs	r0, r0
10004252:	4149      	adcs	r1, r1
10004254:	0424      	lsls	r4, r4, #16
10004256:	9a00      	ldr	r2, [sp, #0]
10004258:	9b01      	ldr	r3, [sp, #4]
1000425a:	000d      	movs	r5, r1
1000425c:	4355      	muls	r5, r2
1000425e:	1b64      	subs	r4, r4, r5
10004260:	4343      	muls	r3, r0
10004262:	1ae4      	subs	r4, r4, r3
10004264:	b295      	uxth	r5, r2
10004266:	b286      	uxth	r6, r0
10004268:	4375      	muls	r5, r6
1000426a:	0c17      	lsrs	r7, r2, #16
1000426c:	437e      	muls	r6, r7
1000426e:	0c03      	lsrs	r3, r0, #16
10004270:	435f      	muls	r7, r3
10004272:	b292      	uxth	r2, r2
10004274:	435a      	muls	r2, r3
10004276:	18b6      	adds	r6, r6, r2
10004278:	d302      	bcc.n	10004280 <l23_1>
1000427a:	2201      	movs	r2, #1
1000427c:	0412      	lsls	r2, r2, #16
1000427e:	18bf      	adds	r7, r7, r2

10004280 <l23_1>:
10004280:	0432      	lsls	r2, r6, #16
10004282:	0c33      	lsrs	r3, r6, #16
10004284:	1952      	adds	r2, r2, r5
10004286:	417b      	adcs	r3, r7
10004288:	4252      	negs	r2, r2
1000428a:	419c      	sbcs	r4, r3
1000428c:	2c00      	cmp	r4, #0
1000428e:	d402      	bmi.n	10004296 <l23_1+0x16>
10004290:	2200      	movs	r2, #0
10004292:	3001      	adds	r0, #1
10004294:	4151      	adcs	r1, r2
10004296:	0840      	lsrs	r0, r0, #1
10004298:	07ca      	lsls	r2, r1, #31
1000429a:	4310      	orrs	r0, r2
1000429c:	0849      	lsrs	r1, r1, #1

1000429e <dd_2>:
1000429e:	b002      	add	sp, #8
100042a0:	4662      	mov	r2, ip
100042a2:	07d7      	lsls	r7, r2, #31
100042a4:	1092      	asrs	r2, r2, #2
100042a6:	4b08      	ldr	r3, [pc, #32]	; (100042c8 <dd_4+0x6>)
100042a8:	18d2      	adds	r2, r2, r3
100042aa:	4b08      	ldr	r3, [pc, #32]	; (100042cc <dd_4+0xa>)
100042ac:	429a      	cmp	r2, r3
100042ae:	d203      	bcs.n	100042b8 <dd_3>
100042b0:	0512      	lsls	r2, r2, #20
100042b2:	1889      	adds	r1, r1, r2

100042b4 <dd_5>:
100042b4:	19c9      	adds	r1, r1, r7
100042b6:	bdf0      	pop	{r4, r5, r6, r7, pc}

100042b8 <dd_3>:
100042b8:	2000      	movs	r0, #0
100042ba:	2a00      	cmp	r2, #0
100042bc:	dc01      	bgt.n	100042c2 <dd_4>
100042be:	0039      	movs	r1, r7
100042c0:	bdf0      	pop	{r4, r5, r6, r7, pc}

100042c2 <dd_4>:
100042c2:	3301      	adds	r3, #1
100042c4:	0519      	lsls	r1, r3, #20
100042c6:	e7f5      	b.n	100042b4 <dd_5>
100042c8:	000003fd 	.word	0x000003fd
100042cc:	000007fe 	.word	0x000007fe

100042d0 <double2uint_shim>:
100042d0:	2200      	movs	r2, #0

100042d2 <double2ufix_shim>:
100042d2:	b500      	push	{lr}
100042d4:	3220      	adds	r2, #32
100042d6:	f000 f804 	bl	100042e2 <double2ufix64_shim>
100042da:	0008      	movs	r0, r1
100042dc:	bd00      	pop	{pc}
	...

100042e0 <double2uint64_shim>:
100042e0:	2200      	movs	r2, #0

100042e2 <double2ufix64_shim>:
100042e2:	150b      	asrs	r3, r1, #20
100042e4:	d40a      	bmi.n	100042fc <ret_dzero>

100042e6 <d2fix>:
100042e6:	b510      	push	{r4, lr}
100042e8:	4694      	mov	ip, r2
100042ea:	f000 f831 	bl	10004350 <dunpacks>
100042ee:	1414      	asrs	r4, r2, #16
100042f0:	3401      	adds	r4, #1
100042f2:	da00      	bge.n	100042f6 <d2fix+0x10>
100042f4:	2100      	movs	r1, #0
100042f6:	17cb      	asrs	r3, r1, #31
100042f8:	4c14      	ldr	r4, [pc, #80]	; (1000434c <d2fix_a+0x4a>)
100042fa:	4720      	bx	r4

100042fc <ret_dzero>:
100042fc:	2000      	movs	r0, #0
100042fe:	2100      	movs	r1, #0
10004300:	4770      	bx	lr

10004302 <d2fix_a>:
10004302:	4462      	add	r2, ip
10004304:	3a34      	subs	r2, #52	; 0x34
10004306:	d40c      	bmi.n	10004322 <d2fix_a+0x20>
10004308:	2a0c      	cmp	r2, #12
1000430a:	da07      	bge.n	1000431c <d2fix_a+0x1a>
1000430c:	0004      	movs	r4, r0
1000430e:	4091      	lsls	r1, r2
10004310:	4090      	lsls	r0, r2
10004312:	4252      	negs	r2, r2
10004314:	3220      	adds	r2, #32
10004316:	40d4      	lsrs	r4, r2
10004318:	4321      	orrs	r1, r4
1000431a:	bd10      	pop	{r4, pc}
1000431c:	43d8      	mvns	r0, r3
1000431e:	43d9      	mvns	r1, r3
10004320:	bd10      	pop	{r4, pc}
10004322:	3220      	adds	r2, #32
10004324:	d407      	bmi.n	10004336 <d2fix_a+0x34>
10004326:	460c      	mov	r4, r1
10004328:	4094      	lsls	r4, r2
1000432a:	4252      	negs	r2, r2
1000432c:	3220      	adds	r2, #32
1000432e:	4111      	asrs	r1, r2
10004330:	40d0      	lsrs	r0, r2
10004332:	4320      	orrs	r0, r4
10004334:	bd10      	pop	{r4, pc}
10004336:	0008      	movs	r0, r1
10004338:	17c9      	asrs	r1, r1, #31
1000433a:	3220      	adds	r2, #32
1000433c:	d403      	bmi.n	10004346 <d2fix_a+0x44>
1000433e:	4252      	negs	r2, r2
10004340:	3220      	adds	r2, #32
10004342:	4110      	asrs	r0, r2
10004344:	bd10      	pop	{r4, pc}
10004346:	0018      	movs	r0, r3
10004348:	0019      	movs	r1, r3
1000434a:	bd10      	pop	{r4, pc}
1000434c:	10004303 	.word	0x10004303

10004350 <dunpacks>:
10004350:	0d0a      	lsrs	r2, r1, #20
10004352:	0fcc      	lsrs	r4, r1, #31
10004354:	1e53      	subs	r3, r2, #1
10004356:	051b      	lsls	r3, r3, #20
10004358:	1ac9      	subs	r1, r1, r3
1000435a:	0552      	lsls	r2, r2, #21
1000435c:	d303      	bcc.n	10004366 <l59_1>
1000435e:	43c9      	mvns	r1, r1
10004360:	4240      	negs	r0, r0
10004362:	d300      	bcc.n	10004366 <l59_1>
10004364:	3101      	adds	r1, #1

10004366 <l59_1>:
10004366:	0d52      	lsrs	r2, r2, #21
10004368:	d003      	beq.n	10004372 <l59_2>
1000436a:	1c53      	adds	r3, r2, #1
1000436c:	0adb      	lsrs	r3, r3, #11
1000436e:	d007      	beq.n	10004380 <l59_3>
10004370:	1b12      	subs	r2, r2, r4

10004372 <l59_2>:
10004372:	2000      	movs	r0, #0
10004374:	0064      	lsls	r4, r4, #1
10004376:	1c61      	adds	r1, r4, #1
10004378:	0789      	lsls	r1, r1, #30
1000437a:	1289      	asrs	r1, r1, #10
1000437c:	3a80      	subs	r2, #128	; 0x80
1000437e:	0312      	lsls	r2, r2, #12

10004380 <l59_3>:
10004380:	4b01      	ldr	r3, [pc, #4]	; (10004388 <l59_3+0x8>)
10004382:	1ad2      	subs	r2, r2, r3
10004384:	4770      	bx	lr
10004386:	0000      	.short	0x0000
10004388:	000003ff 	.word	0x000003ff

1000438c <__wrap___aeabi_lmul>:
1000438c:	4351      	muls	r1, r2
1000438e:	4343      	muls	r3, r0
10004390:	18c9      	adds	r1, r1, r3
10004392:	468c      	mov	ip, r1
10004394:	0c11      	lsrs	r1, r2, #16
10004396:	b283      	uxth	r3, r0
10004398:	434b      	muls	r3, r1
1000439a:	b410      	push	{r4}
1000439c:	0c04      	lsrs	r4, r0, #16
1000439e:	4361      	muls	r1, r4
100043a0:	b292      	uxth	r2, r2
100043a2:	b280      	uxth	r0, r0
100043a4:	4350      	muls	r0, r2
100043a6:	4362      	muls	r2, r4
100043a8:	041c      	lsls	r4, r3, #16
100043aa:	0c1b      	lsrs	r3, r3, #16
100043ac:	1900      	adds	r0, r0, r4
100043ae:	bc10      	pop	{r4}
100043b0:	4159      	adcs	r1, r3
100043b2:	0413      	lsls	r3, r2, #16
100043b4:	0c12      	lsrs	r2, r2, #16
100043b6:	18c0      	adds	r0, r0, r3
100043b8:	4151      	adcs	r1, r2
100043ba:	4461      	add	r1, ip
100043bc:	4770      	bx	lr
	...

100043c0 <__aeabi_float_init>:
100043c0:	b570      	push	{r4, r5, r6, lr}
100043c2:	2313      	movs	r3, #19
100043c4:	781d      	ldrb	r5, [r3, #0]
100043c6:	482a      	ldr	r0, [pc, #168]	; (10004470 <__aeabi_float_init+0xb0>)
100043c8:	f7ff f950 	bl	1000366c <rom_data_lookup>
100043cc:	0004      	movs	r4, r0
100043ce:	2d01      	cmp	r5, #1
100043d0:	d011      	beq.n	100043f6 <__aeabi_float_init+0x36>
100043d2:	2d01      	cmp	r5, #1
100043d4:	dd09      	ble.n	100043ea <__aeabi_float_init+0x2a>
100043d6:	1ea3      	subs	r3, r4, #2
100043d8:	781b      	ldrb	r3, [r3, #0]
100043da:	009b      	lsls	r3, r3, #2
100043dc:	2b7f      	cmp	r3, #127	; 0x7f
100043de:	dd40      	ble.n	10004462 <__aeabi_float_init+0xa2>
100043e0:	2280      	movs	r2, #128	; 0x80
100043e2:	0021      	movs	r1, r4
100043e4:	4823      	ldr	r0, [pc, #140]	; (10004474 <__aeabi_float_init+0xb4>)
100043e6:	f000 f891 	bl	1000450c <__wrap___aeabi_memcpy>
100043ea:	4823      	ldr	r0, [pc, #140]	; (10004478 <__aeabi_float_init+0xb8>)
100043ec:	f7ff f936 	bl	1000365c <rom_func_lookup>
100043f0:	4b22      	ldr	r3, [pc, #136]	; (1000447c <__aeabi_float_init+0xbc>)
100043f2:	6018      	str	r0, [r3, #0]
100043f4:	bd70      	pop	{r4, r5, r6, pc}
100043f6:	2254      	movs	r2, #84	; 0x54
100043f8:	0001      	movs	r1, r0
100043fa:	481e      	ldr	r0, [pc, #120]	; (10004474 <__aeabi_float_init+0xb4>)
100043fc:	f000 f886 	bl	1000450c <__wrap___aeabi_memcpy>
10004400:	4b1f      	ldr	r3, [pc, #124]	; (10004480 <__aeabi_float_init+0xc0>)
10004402:	881a      	ldrh	r2, [r3, #0]
10004404:	4b1f      	ldr	r3, [pc, #124]	; (10004484 <__aeabi_float_init+0xc4>)
10004406:	429a      	cmp	r2, r3
10004408:	d11c      	bne.n	10004444 <__aeabi_float_init+0x84>
1000440a:	23a7      	movs	r3, #167	; 0xa7
1000440c:	019b      	lsls	r3, r3, #6
1000440e:	881a      	ldrh	r2, [r3, #0]
10004410:	4b1d      	ldr	r3, [pc, #116]	; (10004488 <__aeabi_float_init+0xc8>)
10004412:	429a      	cmp	r2, r3
10004414:	d116      	bne.n	10004444 <__aeabi_float_init+0x84>
10004416:	4b1d      	ldr	r3, [pc, #116]	; (1000448c <__aeabi_float_init+0xcc>)
10004418:	881a      	ldrh	r2, [r3, #0]
1000441a:	4b1d      	ldr	r3, [pc, #116]	; (10004490 <__aeabi_float_init+0xd0>)
1000441c:	429a      	cmp	r2, r3
1000441e:	d111      	bne.n	10004444 <__aeabi_float_init+0x84>
10004420:	4b1c      	ldr	r3, [pc, #112]	; (10004494 <__aeabi_float_init+0xd4>)
10004422:	881a      	ldrh	r2, [r3, #0]
10004424:	2394      	movs	r3, #148	; 0x94
10004426:	019b      	lsls	r3, r3, #6
10004428:	429a      	cmp	r2, r3
1000442a:	d10b      	bne.n	10004444 <__aeabi_float_init+0x84>
1000442c:	4b1a      	ldr	r3, [pc, #104]	; (10004498 <__aeabi_float_init+0xd8>)
1000442e:	881a      	ldrh	r2, [r3, #0]
10004430:	4b1a      	ldr	r3, [pc, #104]	; (1000449c <__aeabi_float_init+0xdc>)
10004432:	429a      	cmp	r2, r3
10004434:	d106      	bne.n	10004444 <__aeabi_float_init+0x84>
10004436:	4b1a      	ldr	r3, [pc, #104]	; (100044a0 <__aeabi_float_init+0xe0>)
10004438:	681a      	ldr	r2, [r3, #0]
1000443a:	4b1a      	ldr	r3, [pc, #104]	; (100044a4 <__aeabi_float_init+0xe4>)
1000443c:	429a      	cmp	r2, r3
1000443e:	d101      	bne.n	10004444 <__aeabi_float_init+0x84>
10004440:	2315      	movs	r3, #21
10004442:	e007      	b.n	10004454 <__aeabi_float_init+0x94>
10004444:	4818      	ldr	r0, [pc, #96]	; (100044a8 <__aeabi_float_init+0xe8>)
10004446:	f7fd feb1 	bl	100021ac <panic>
1000444a:	0099      	lsls	r1, r3, #2
1000444c:	4817      	ldr	r0, [pc, #92]	; (100044ac <__aeabi_float_init+0xec>)
1000444e:	4a09      	ldr	r2, [pc, #36]	; (10004474 <__aeabi_float_init+0xb4>)
10004450:	5088      	str	r0, [r1, r2]
10004452:	3301      	adds	r3, #1
10004454:	2b1f      	cmp	r3, #31
10004456:	d9f8      	bls.n	1000444a <__aeabi_float_init+0x8a>
10004458:	4a14      	ldr	r2, [pc, #80]	; (100044ac <__aeabi_float_init+0xec>)
1000445a:	4b06      	ldr	r3, [pc, #24]	; (10004474 <__aeabi_float_init+0xb4>)
1000445c:	621a      	str	r2, [r3, #32]
1000445e:	61da      	str	r2, [r3, #28]
10004460:	e7b7      	b.n	100043d2 <__aeabi_float_init+0x12>
10004462:	4b13      	ldr	r3, [pc, #76]	; (100044b0 <__aeabi_float_init+0xf0>)
10004464:	4a13      	ldr	r2, [pc, #76]	; (100044b4 <__aeabi_float_init+0xf4>)
10004466:	2142      	movs	r1, #66	; 0x42
10004468:	4813      	ldr	r0, [pc, #76]	; (100044b8 <__aeabi_float_init+0xf8>)
1000446a:	f7fd fe05 	bl	10002078 <__assert_func>
1000446e:	46c0      	nop			; (mov r8, r8)
10004470:	00004653 	.word	0x00004653
10004474:	20001dc4 	.word	0x20001dc4
10004478:	0000334c 	.word	0x0000334c
1000447c:	20001c94 	.word	0x20001c94
10004480:	000029ee 	.word	0x000029ee
10004484:	00000fc4 	.word	0x00000fc4
10004488:	00000dc2 	.word	0x00000dc2
1000448c:	00002b96 	.word	0x00002b96
10004490:	0000b5c0 	.word	0x0000b5c0
10004494:	00002b18 	.word	0x00002b18
10004498:	00002acc 	.word	0x00002acc
1000449c:	0000b510 	.word	0x0000b510
100044a0:	00002cfc 	.word	0x00002cfc
100044a4:	6487ed51 	.word	0x6487ed51
100044a8:	10008c64 	.word	0x10008c64
100044ac:	100044bd 	.word	0x100044bd
100044b0:	10009b50 	.word	0x10009b50
100044b4:	10009bd4 	.word	0x10009bd4
100044b8:	10009b84 	.word	0x10009b84

100044bc <float_table_shim_on_use_helper>:
100044bc:	b507      	push	{r0, r1, r2, lr}
100044be:	4660      	mov	r0, ip
100044c0:	2800      	cmp	r0, #0
100044c2:	d100      	bne.n	100044c6 <float_table_shim_on_use_helper+0xa>
100044c4:	be00      	bkpt	0x0000
100044c6:	8801      	ldrh	r1, [r0, #0]
100044c8:	0a0a      	lsrs	r2, r1, #8
100044ca:	3002      	adds	r0, #2
100044cc:	2adf      	cmp	r2, #223	; 0xdf
100044ce:	d1fa      	bne.n	100044c6 <float_table_shim_on_use_helper+0xa>
100044d0:	b2c9      	uxtb	r1, r1
100044d2:	0882      	lsrs	r2, r0, #2
100044d4:	d304      	bcc.n	100044e0 <float_table_shim_on_use_helper+0x24>
100044d6:	8802      	ldrh	r2, [r0, #0]
100044d8:	8840      	ldrh	r0, [r0, #2]
100044da:	0400      	lsls	r0, r0, #16
100044dc:	4310      	orrs	r0, r2
100044de:	e000      	b.n	100044e2 <float_table_shim_on_use_helper+0x26>
100044e0:	6800      	ldr	r0, [r0, #0]
100044e2:	4a02      	ldr	r2, [pc, #8]	; (100044ec <float_table_shim_on_use_helper+0x30>)
100044e4:	5050      	str	r0, [r2, r1]
100044e6:	9003      	str	r0, [sp, #12]
100044e8:	bd07      	pop	{r0, r1, r2, pc}
100044ea:	0000      	.short	0x0000
100044ec:	20001dc4 	.word	0x20001dc4

100044f0 <__aeabi_mem_init>:
100044f0:	4801      	ldr	r0, [pc, #4]	; (100044f8 <__aeabi_mem_init+0x8>)
100044f2:	2104      	movs	r1, #4
100044f4:	4b01      	ldr	r3, [pc, #4]	; (100044fc <__aeabi_mem_init+0xc>)
100044f6:	4718      	bx	r3
100044f8:	20000350 	.word	0x20000350
100044fc:	1000367d 	.word	0x1000367d

10004500 <__wrap_memset>:
10004500:	4b01      	ldr	r3, [pc, #4]	; (10004508 <__wrap_memset+0x8>)
10004502:	681b      	ldr	r3, [r3, #0]
10004504:	4718      	bx	r3
10004506:	0000      	.short	0x0000
10004508:	20000350 	.word	0x20000350

1000450c <__wrap___aeabi_memcpy>:
1000450c:	4b01      	ldr	r3, [pc, #4]	; (10004514 <__wrap___aeabi_memcpy+0x8>)
1000450e:	685b      	ldr	r3, [r3, #4]
10004510:	4718      	bx	r3
10004512:	0000      	.short	0x0000
10004514:	20000350 	.word	0x20000350

10004518 <stdio_out_chars_no_crlf>:
10004518:	b510      	push	{r4, lr}
1000451a:	000c      	movs	r4, r1
1000451c:	6803      	ldr	r3, [r0, #0]
1000451e:	0011      	movs	r1, r2
10004520:	0020      	movs	r0, r4
10004522:	4798      	blx	r3
10004524:	bd10      	pop	{r4, pc}
	...

10004528 <stdio_out_chars_crlf>:
10004528:	b5f8      	push	{r3, r4, r5, r6, r7, lr}
1000452a:	0007      	movs	r7, r0
1000452c:	000d      	movs	r5, r1
1000452e:	0016      	movs	r6, r2
10004530:	7c43      	ldrb	r3, [r0, #17]
10004532:	2b00      	cmp	r3, #0
10004534:	d002      	beq.n	1000453c <stdio_out_chars_crlf+0x14>
10004536:	2400      	movs	r4, #0
10004538:	2000      	movs	r0, #0
1000453a:	e00c      	b.n	10004556 <stdio_out_chars_crlf+0x2e>
1000453c:	6803      	ldr	r3, [r0, #0]
1000453e:	0011      	movs	r1, r2
10004540:	0028      	movs	r0, r5
10004542:	4798      	blx	r3
10004544:	e02d      	b.n	100045a2 <stdio_out_chars_crlf+0x7a>
10004546:	7c3b      	ldrb	r3, [r7, #16]
10004548:	e010      	b.n	1000456c <stdio_out_chars_crlf+0x44>
1000454a:	2102      	movs	r1, #2
1000454c:	4815      	ldr	r0, [pc, #84]	; (100045a4 <stdio_out_chars_crlf+0x7c>)
1000454e:	683b      	ldr	r3, [r7, #0]
10004550:	4798      	blx	r3
10004552:	1c60      	adds	r0, r4, #1
10004554:	3401      	adds	r4, #1
10004556:	42b4      	cmp	r4, r6
10004558:	da14      	bge.n	10004584 <stdio_out_chars_crlf+0x5c>
1000455a:	2c00      	cmp	r4, #0
1000455c:	ddf3      	ble.n	10004546 <stdio_out_chars_crlf+0x1e>
1000455e:	192b      	adds	r3, r5, r4
10004560:	3b01      	subs	r3, #1
10004562:	781b      	ldrb	r3, [r3, #0]
10004564:	3b0d      	subs	r3, #13
10004566:	425a      	negs	r2, r3
10004568:	4153      	adcs	r3, r2
1000456a:	b2db      	uxtb	r3, r3
1000456c:	5d2a      	ldrb	r2, [r5, r4]
1000456e:	2a0a      	cmp	r2, #10
10004570:	d1f0      	bne.n	10004554 <stdio_out_chars_crlf+0x2c>
10004572:	2b00      	cmp	r3, #0
10004574:	d1ee      	bne.n	10004554 <stdio_out_chars_crlf+0x2c>
10004576:	42a0      	cmp	r0, r4
10004578:	dae7      	bge.n	1000454a <stdio_out_chars_crlf+0x22>
1000457a:	1a21      	subs	r1, r4, r0
1000457c:	1828      	adds	r0, r5, r0
1000457e:	683b      	ldr	r3, [r7, #0]
10004580:	4798      	blx	r3
10004582:	e7e2      	b.n	1000454a <stdio_out_chars_crlf+0x22>
10004584:	42b0      	cmp	r0, r6
10004586:	da03      	bge.n	10004590 <stdio_out_chars_crlf+0x68>
10004588:	1a31      	subs	r1, r6, r0
1000458a:	1828      	adds	r0, r5, r0
1000458c:	683b      	ldr	r3, [r7, #0]
1000458e:	4798      	blx	r3
10004590:	2e00      	cmp	r6, #0
10004592:	dd06      	ble.n	100045a2 <stdio_out_chars_crlf+0x7a>
10004594:	19ad      	adds	r5, r5, r6
10004596:	3d01      	subs	r5, #1
10004598:	782b      	ldrb	r3, [r5, #0]
1000459a:	3b0d      	subs	r3, #13
1000459c:	425a      	negs	r2, r3
1000459e:	4153      	adcs	r3, r2
100045a0:	743b      	strb	r3, [r7, #16]
100045a2:	bdf8      	pop	{r3, r4, r5, r6, r7, pc}
100045a4:	10009ca0 	.word	0x10009ca0

100045a8 <stdio_stack_buffer_flush>:
100045a8:	b570      	push	{r4, r5, r6, lr}
100045aa:	0005      	movs	r5, r0
100045ac:	6803      	ldr	r3, [r0, #0]
100045ae:	2b00      	cmp	r3, #0
100045b0:	d016      	beq.n	100045e0 <stdio_stack_buffer_flush+0x38>
100045b2:	4b0c      	ldr	r3, [pc, #48]	; (100045e4 <stdio_stack_buffer_flush+0x3c>)
100045b4:	681c      	ldr	r4, [r3, #0]
100045b6:	e005      	b.n	100045c4 <stdio_stack_buffer_flush+0x1c>
100045b8:	0029      	movs	r1, r5
100045ba:	c904      	ldmia	r1!, {r2}
100045bc:	0020      	movs	r0, r4
100045be:	f7ff ffb3 	bl	10004528 <stdio_out_chars_crlf>
100045c2:	68e4      	ldr	r4, [r4, #12]
100045c4:	2c00      	cmp	r4, #0
100045c6:	d009      	beq.n	100045dc <stdio_stack_buffer_flush+0x34>
100045c8:	6823      	ldr	r3, [r4, #0]
100045ca:	2b00      	cmp	r3, #0
100045cc:	d0f9      	beq.n	100045c2 <stdio_stack_buffer_flush+0x1a>
100045ce:	4b06      	ldr	r3, [pc, #24]	; (100045e8 <stdio_stack_buffer_flush+0x40>)
100045d0:	681b      	ldr	r3, [r3, #0]
100045d2:	2b00      	cmp	r3, #0
100045d4:	d0f0      	beq.n	100045b8 <stdio_stack_buffer_flush+0x10>
100045d6:	42a3      	cmp	r3, r4
100045d8:	d1f3      	bne.n	100045c2 <stdio_stack_buffer_flush+0x1a>
100045da:	e7ed      	b.n	100045b8 <stdio_stack_buffer_flush+0x10>
100045dc:	2300      	movs	r3, #0
100045de:	602b      	str	r3, [r5, #0]
100045e0:	bd70      	pop	{r4, r5, r6, pc}
100045e2:	46c0      	nop			; (mov r8, r8)
100045e4:	2000197c 	.word	0x2000197c
100045e8:	20001bc0 	.word	0x20001bc0

100045ec <stdio_buffered_printer>:
100045ec:	b570      	push	{r4, r5, r6, lr}
100045ee:	0005      	movs	r5, r0
100045f0:	000c      	movs	r4, r1
100045f2:	680b      	ldr	r3, [r1, #0]
100045f4:	2b80      	cmp	r3, #128	; 0x80
100045f6:	d005      	beq.n	10004604 <stdio_buffered_printer+0x18>
100045f8:	6823      	ldr	r3, [r4, #0]
100045fa:	1c5a      	adds	r2, r3, #1
100045fc:	6022      	str	r2, [r4, #0]
100045fe:	18e4      	adds	r4, r4, r3
10004600:	7125      	strb	r5, [r4, #4]
10004602:	bd70      	pop	{r4, r5, r6, pc}
10004604:	0008      	movs	r0, r1
10004606:	f7ff ffcf 	bl	100045a8 <stdio_stack_buffer_flush>
1000460a:	e7f5      	b.n	100045f8 <stdio_buffered_printer+0xc>

1000460c <stdio_get_until>:
1000460c:	b5f0      	push	{r4, r5, r6, r7, lr}
1000460e:	b083      	sub	sp, #12
10004610:	0005      	movs	r5, r0
10004612:	000c      	movs	r4, r1
10004614:	0017      	movs	r7, r2
10004616:	9301      	str	r3, [sp, #4]
10004618:	e027      	b.n	1000466a <stdio_get_until+0x5e>
1000461a:	68b3      	ldr	r3, [r6, #8]
1000461c:	2b00      	cmp	r3, #0
1000461e:	d004      	beq.n	1000462a <stdio_get_until+0x1e>
10004620:	0021      	movs	r1, r4
10004622:	0028      	movs	r0, r5
10004624:	4798      	blx	r3
10004626:	2800      	cmp	r0, #0
10004628:	dc26      	bgt.n	10004678 <stdio_get_until+0x6c>
1000462a:	68f6      	ldr	r6, [r6, #12]
1000462c:	2e00      	cmp	r6, #0
1000462e:	d006      	beq.n	1000463e <stdio_get_until+0x32>
10004630:	4b12      	ldr	r3, [pc, #72]	; (1000467c <stdio_get_until+0x70>)
10004632:	681b      	ldr	r3, [r3, #0]
10004634:	2b00      	cmp	r3, #0
10004636:	d0f0      	beq.n	1000461a <stdio_get_until+0xe>
10004638:	42b3      	cmp	r3, r6
1000463a:	d1f6      	bne.n	1000462a <stdio_get_until+0x1e>
1000463c:	e7ed      	b.n	1000461a <stdio_get_until+0xe>
1000463e:	9a01      	ldr	r2, [sp, #4]
10004640:	4b0f      	ldr	r3, [pc, #60]	; (10004680 <stdio_get_until+0x74>)
10004642:	6a5b      	ldr	r3, [r3, #36]	; 0x24
10004644:	429a      	cmp	r2, r3
10004646:	d809      	bhi.n	1000465c <stdio_get_until+0x50>
10004648:	480d      	ldr	r0, [pc, #52]	; (10004680 <stdio_get_until+0x74>)
1000464a:	6a80      	ldr	r0, [r0, #40]	; 0x28
1000464c:	42b8      	cmp	r0, r7
1000464e:	d20f      	bcs.n	10004670 <stdio_get_until+0x64>
10004650:	429a      	cmp	r2, r3
10004652:	d001      	beq.n	10004658 <stdio_get_until+0x4c>
10004654:	2301      	movs	r3, #1
10004656:	e002      	b.n	1000465e <stdio_get_until+0x52>
10004658:	2300      	movs	r3, #0
1000465a:	e000      	b.n	1000465e <stdio_get_until+0x52>
1000465c:	2300      	movs	r3, #0
1000465e:	2b00      	cmp	r3, #0
10004660:	d108      	bne.n	10004674 <stdio_get_until+0x68>
10004662:	2001      	movs	r0, #1
10004664:	2100      	movs	r1, #0
10004666:	f7fd f921 	bl	100018ac <busy_wait_us>
1000466a:	4b06      	ldr	r3, [pc, #24]	; (10004684 <stdio_get_until+0x78>)
1000466c:	681e      	ldr	r6, [r3, #0]
1000466e:	e7dd      	b.n	1000462c <stdio_get_until+0x20>
10004670:	2301      	movs	r3, #1
10004672:	e7f4      	b.n	1000465e <stdio_get_until+0x52>
10004674:	2001      	movs	r0, #1
10004676:	4240      	negs	r0, r0
10004678:	b003      	add	sp, #12
1000467a:	bdf0      	pop	{r4, r5, r6, r7, pc}
1000467c:	20001bc0 	.word	0x20001bc0
10004680:	40054000 	.word	0x40054000
10004684:	2000197c 	.word	0x2000197c

10004688 <stdout_serialize_begin>:
10004688:	b510      	push	{r4, lr}
1000468a:	b082      	sub	sp, #8
1000468c:	23d0      	movs	r3, #208	; 0xd0
1000468e:	061b      	lsls	r3, r3, #24
10004690:	2400      	movs	r4, #0
10004692:	571c      	ldrsb	r4, [r3, r4]
10004694:	a901      	add	r1, sp, #4
10004696:	4807      	ldr	r0, [pc, #28]	; (100046b4 <stdout_serialize_begin+0x2c>)
10004698:	f004 f90e 	bl	100088b8 <__mutex_try_enter_veneer>
1000469c:	2800      	cmp	r0, #0
1000469e:	d106      	bne.n	100046ae <stdout_serialize_begin+0x26>
100046a0:	9b01      	ldr	r3, [sp, #4]
100046a2:	429c      	cmp	r4, r3
100046a4:	d003      	beq.n	100046ae <stdout_serialize_begin+0x26>
100046a6:	4803      	ldr	r0, [pc, #12]	; (100046b4 <stdout_serialize_begin+0x2c>)
100046a8:	f004 f916 	bl	100088d8 <__mutex_enter_blocking_veneer>
100046ac:	2001      	movs	r0, #1
100046ae:	b002      	add	sp, #8
100046b0:	bd10      	pop	{r4, pc}
100046b2:	46c0      	nop			; (mov r8, r8)
100046b4:	20000be0 	.word	0x20000be0

100046b8 <stdout_serialize_end>:
100046b8:	b510      	push	{r4, lr}
100046ba:	4802      	ldr	r0, [pc, #8]	; (100046c4 <stdout_serialize_end+0xc>)
100046bc:	f004 f8e4 	bl	10008888 <__mutex_exit_veneer>
100046c0:	bd10      	pop	{r4, pc}
100046c2:	46c0      	nop			; (mov r8, r8)
100046c4:	20000be0 	.word	0x20000be0

100046c8 <stdio_put_string>:
100046c8:	b5f0      	push	{r4, r5, r6, r7, lr}
100046ca:	46c6      	mov	lr, r8
100046cc:	b500      	push	{lr}
100046ce:	b084      	sub	sp, #16
100046d0:	9001      	str	r0, [sp, #4]
100046d2:	000d      	movs	r5, r1
100046d4:	0016      	movs	r6, r2
100046d6:	001c      	movs	r4, r3
100046d8:	f7ff ffd6 	bl	10004688 <stdout_serialize_begin>
100046dc:	4680      	mov	r8, r0
100046de:	1c6b      	adds	r3, r5, #1
100046e0:	d005      	beq.n	100046ee <stdio_put_string+0x26>
100046e2:	2c00      	cmp	r4, #0
100046e4:	d008      	beq.n	100046f8 <stdio_put_string+0x30>
100046e6:	4f19      	ldr	r7, [pc, #100]	; (1000474c <stdio_put_string+0x84>)
100046e8:	4b19      	ldr	r3, [pc, #100]	; (10004750 <stdio_put_string+0x88>)
100046ea:	681c      	ldr	r4, [r3, #0]
100046ec:	e007      	b.n	100046fe <stdio_put_string+0x36>
100046ee:	9801      	ldr	r0, [sp, #4]
100046f0:	f003 ffe0 	bl	100086b4 <strlen>
100046f4:	0005      	movs	r5, r0
100046f6:	e7f4      	b.n	100046e2 <stdio_put_string+0x1a>
100046f8:	4f16      	ldr	r7, [pc, #88]	; (10004754 <stdio_put_string+0x8c>)
100046fa:	e7f5      	b.n	100046e8 <stdio_put_string+0x20>
100046fc:	68e4      	ldr	r4, [r4, #12]
100046fe:	2c00      	cmp	r4, #0
10004700:	d016      	beq.n	10004730 <stdio_put_string+0x68>
10004702:	6823      	ldr	r3, [r4, #0]
10004704:	2b00      	cmp	r3, #0
10004706:	d0f9      	beq.n	100046fc <stdio_put_string+0x34>
10004708:	4b13      	ldr	r3, [pc, #76]	; (10004758 <stdio_put_string+0x90>)
1000470a:	681b      	ldr	r3, [r3, #0]
1000470c:	2b00      	cmp	r3, #0
1000470e:	d001      	beq.n	10004714 <stdio_put_string+0x4c>
10004710:	42a3      	cmp	r3, r4
10004712:	d1f3      	bne.n	100046fc <stdio_put_string+0x34>
10004714:	002a      	movs	r2, r5
10004716:	9901      	ldr	r1, [sp, #4]
10004718:	0020      	movs	r0, r4
1000471a:	47b8      	blx	r7
1000471c:	2e00      	cmp	r6, #0
1000471e:	d0ed      	beq.n	100046fc <stdio_put_string+0x34>
10004720:	ab02      	add	r3, sp, #8
10004722:	1dd9      	adds	r1, r3, #7
10004724:	230a      	movs	r3, #10
10004726:	700b      	strb	r3, [r1, #0]
10004728:	2201      	movs	r2, #1
1000472a:	0020      	movs	r0, r4
1000472c:	47b8      	blx	r7
1000472e:	e7e5      	b.n	100046fc <stdio_put_string+0x34>
10004730:	4643      	mov	r3, r8
10004732:	2b00      	cmp	r3, #0
10004734:	d106      	bne.n	10004744 <stdio_put_string+0x7c>
10004736:	1e68      	subs	r0, r5, #1
10004738:	4185      	sbcs	r5, r0
1000473a:	b2e8      	uxtb	r0, r5
1000473c:	b004      	add	sp, #16
1000473e:	bc04      	pop	{r2}
10004740:	4690      	mov	r8, r2
10004742:	bdf0      	pop	{r4, r5, r6, r7, pc}
10004744:	f7ff ffb8 	bl	100046b8 <stdout_serialize_end>
10004748:	e7f5      	b.n	10004736 <stdio_put_string+0x6e>
1000474a:	46c0      	nop			; (mov r8, r8)
1000474c:	10004519 	.word	0x10004519
10004750:	2000197c 	.word	0x2000197c
10004754:	10004529 	.word	0x10004529
10004758:	20001bc0 	.word	0x20001bc0

1000475c <__wrap_putchar>:
1000475c:	b510      	push	{r4, lr}
1000475e:	b082      	sub	sp, #8
10004760:	0004      	movs	r4, r0
10004762:	466b      	mov	r3, sp
10004764:	1dd8      	adds	r0, r3, #7
10004766:	7004      	strb	r4, [r0, #0]
10004768:	2300      	movs	r3, #0
1000476a:	2200      	movs	r2, #0
1000476c:	2101      	movs	r1, #1
1000476e:	f7ff ffab 	bl	100046c8 <stdio_put_string>
10004772:	0020      	movs	r0, r4
10004774:	b002      	add	sp, #8
10004776:	bd10      	pop	{r4, pc}

10004778 <_read>:
10004778:	b510      	push	{r4, lr}
1000477a:	000c      	movs	r4, r1
1000477c:	0011      	movs	r1, r2
1000477e:	2800      	cmp	r0, #0
10004780:	d106      	bne.n	10004790 <_read+0x18>
10004782:	4b05      	ldr	r3, [pc, #20]	; (10004798 <_read+0x20>)
10004784:	681a      	ldr	r2, [r3, #0]
10004786:	685b      	ldr	r3, [r3, #4]
10004788:	0020      	movs	r0, r4
1000478a:	f7ff ff3f 	bl	1000460c <stdio_get_until>
1000478e:	bd10      	pop	{r4, pc}
10004790:	2001      	movs	r0, #1
10004792:	4240      	negs	r0, r0
10004794:	e7fb      	b.n	1000478e <_read+0x16>
10004796:	46c0      	nop			; (mov r8, r8)
10004798:	100091c0 	.word	0x100091c0

1000479c <_write>:
1000479c:	b570      	push	{r4, r5, r6, lr}
1000479e:	000d      	movs	r5, r1
100047a0:	0014      	movs	r4, r2
100047a2:	3801      	subs	r0, #1
100047a4:	2801      	cmp	r0, #1
100047a6:	d807      	bhi.n	100047b8 <_write+0x1c>
100047a8:	2300      	movs	r3, #0
100047aa:	2200      	movs	r2, #0
100047ac:	0021      	movs	r1, r4
100047ae:	0028      	movs	r0, r5
100047b0:	f7ff ff8a 	bl	100046c8 <stdio_put_string>
100047b4:	0020      	movs	r0, r4
100047b6:	bd70      	pop	{r4, r5, r6, pc}
100047b8:	2001      	movs	r0, #1
100047ba:	4240      	negs	r0, r0
100047bc:	e7fb      	b.n	100047b6 <_write+0x1a>
	...

100047c0 <stdio_set_driver_enabled>:
100047c0:	4a09      	ldr	r2, [pc, #36]	; (100047e8 <stdio_set_driver_enabled+0x28>)
100047c2:	6813      	ldr	r3, [r2, #0]
100047c4:	2b00      	cmp	r3, #0
100047c6:	d00b      	beq.n	100047e0 <stdio_set_driver_enabled+0x20>
100047c8:	4283      	cmp	r3, r0
100047ca:	d002      	beq.n	100047d2 <stdio_set_driver_enabled+0x12>
100047cc:	330c      	adds	r3, #12
100047ce:	001a      	movs	r2, r3
100047d0:	e7f7      	b.n	100047c2 <stdio_set_driver_enabled+0x2>
100047d2:	2900      	cmp	r1, #0
100047d4:	d107      	bne.n	100047e6 <stdio_set_driver_enabled+0x26>
100047d6:	68c3      	ldr	r3, [r0, #12]
100047d8:	6013      	str	r3, [r2, #0]
100047da:	2300      	movs	r3, #0
100047dc:	60c3      	str	r3, [r0, #12]
100047de:	e002      	b.n	100047e6 <stdio_set_driver_enabled+0x26>
100047e0:	2900      	cmp	r1, #0
100047e2:	d000      	beq.n	100047e6 <stdio_set_driver_enabled+0x26>
100047e4:	6010      	str	r0, [r2, #0]
100047e6:	4770      	bx	lr
100047e8:	2000197c 	.word	0x2000197c

100047ec <stdio_flush>:
100047ec:	b510      	push	{r4, lr}
100047ee:	4b06      	ldr	r3, [pc, #24]	; (10004808 <stdio_flush+0x1c>)
100047f0:	681c      	ldr	r4, [r3, #0]
100047f2:	e000      	b.n	100047f6 <stdio_flush+0xa>
100047f4:	68e4      	ldr	r4, [r4, #12]
100047f6:	2c00      	cmp	r4, #0
100047f8:	d004      	beq.n	10004804 <stdio_flush+0x18>
100047fa:	6863      	ldr	r3, [r4, #4]
100047fc:	2b00      	cmp	r3, #0
100047fe:	d0f9      	beq.n	100047f4 <stdio_flush+0x8>
10004800:	4798      	blx	r3
10004802:	e7f7      	b.n	100047f4 <stdio_flush+0x8>
10004804:	bd10      	pop	{r4, pc}
10004806:	46c0      	nop			; (mov r8, r8)
10004808:	2000197c 	.word	0x2000197c

1000480c <__wrap_puts>:
1000480c:	b570      	push	{r4, r5, r6, lr}
1000480e:	0005      	movs	r5, r0
10004810:	f003 ff50 	bl	100086b4 <strlen>
10004814:	0004      	movs	r4, r0
10004816:	2300      	movs	r3, #0
10004818:	2201      	movs	r2, #1
1000481a:	0001      	movs	r1, r0
1000481c:	0028      	movs	r0, r5
1000481e:	f7ff ff53 	bl	100046c8 <stdio_put_string>
10004822:	f7ff ffe3 	bl	100047ec <stdio_flush>
10004826:	0020      	movs	r0, r4
10004828:	bd70      	pop	{r4, r5, r6, pc}
	...

1000482c <__wrap_vprintf>:
1000482c:	b570      	push	{r4, r5, r6, lr}
1000482e:	b0a2      	sub	sp, #136	; 0x88
10004830:	0004      	movs	r4, r0
10004832:	000e      	movs	r6, r1
10004834:	f7ff ff28 	bl	10004688 <stdout_serialize_begin>
10004838:	0005      	movs	r5, r0
1000483a:	2284      	movs	r2, #132	; 0x84
1000483c:	2100      	movs	r1, #0
1000483e:	a801      	add	r0, sp, #4
10004840:	f7ff fe5e 	bl	10004500 <__wrap_memset>
10004844:	0033      	movs	r3, r6
10004846:	0022      	movs	r2, r4
10004848:	a901      	add	r1, sp, #4
1000484a:	4808      	ldr	r0, [pc, #32]	; (1000486c <__wrap_vprintf+0x40>)
1000484c:	f7fe feee 	bl	1000362c <vfctprintf>
10004850:	0004      	movs	r4, r0
10004852:	a801      	add	r0, sp, #4
10004854:	f7ff fea8 	bl	100045a8 <stdio_stack_buffer_flush>
10004858:	f7ff ffc8 	bl	100047ec <stdio_flush>
1000485c:	2d00      	cmp	r5, #0
1000485e:	d102      	bne.n	10004866 <__wrap_vprintf+0x3a>
10004860:	0020      	movs	r0, r4
10004862:	b022      	add	sp, #136	; 0x88
10004864:	bd70      	pop	{r4, r5, r6, pc}
10004866:	f7ff ff27 	bl	100046b8 <stdout_serialize_end>
1000486a:	e7f9      	b.n	10004860 <__wrap_vprintf+0x34>
1000486c:	100045ed 	.word	0x100045ed

10004870 <__wrap_printf>:
10004870:	b40f      	push	{r0, r1, r2, r3}
10004872:	b500      	push	{lr}
10004874:	b083      	sub	sp, #12
10004876:	a904      	add	r1, sp, #16
10004878:	c901      	ldmia	r1!, {r0}
1000487a:	9101      	str	r1, [sp, #4]
1000487c:	f7ff ffd6 	bl	1000482c <__wrap_vprintf>
10004880:	b003      	add	sp, #12
10004882:	bc08      	pop	{r3}
10004884:	b004      	add	sp, #16
10004886:	4718      	bx	r3

10004888 <stdio_uart_out_chars>:
10004888:	b5f0      	push	{r4, r5, r6, r7, lr}
1000488a:	b083      	sub	sp, #12
1000488c:	2500      	movs	r5, #0
1000488e:	e01a      	b.n	100048c6 <stdio_uart_out_chars+0x3e>
10004890:	466b      	mov	r3, sp
10004892:	3307      	adds	r3, #7
10004894:	240d      	movs	r4, #13
10004896:	701c      	strb	r4, [r3, #0]
10004898:	2400      	movs	r4, #0
1000489a:	e003      	b.n	100048a4 <stdio_uart_out_chars+0x1c>
1000489c:	781f      	ldrb	r7, [r3, #0]
1000489e:	6017      	str	r7, [r2, #0]
100048a0:	3401      	adds	r4, #1
100048a2:	3301      	adds	r3, #1
100048a4:	2c00      	cmp	r4, #0
100048a6:	d11c      	bne.n	100048e2 <stdio_uart_out_chars+0x5a>
100048a8:	6997      	ldr	r7, [r2, #24]
100048aa:	06bf      	lsls	r7, r7, #26
100048ac:	d4fc      	bmi.n	100048a8 <stdio_uart_out_chars+0x20>
100048ae:	e7f5      	b.n	1000489c <stdio_uart_out_chars+0x14>
100048b0:	781e      	ldrb	r6, [r3, #0]
100048b2:	6016      	str	r6, [r2, #0]
100048b4:	3401      	adds	r4, #1
100048b6:	3301      	adds	r3, #1
100048b8:	2c00      	cmp	r4, #0
100048ba:	d103      	bne.n	100048c4 <stdio_uart_out_chars+0x3c>
100048bc:	6996      	ldr	r6, [r2, #24]
100048be:	06b6      	lsls	r6, r6, #26
100048c0:	d4fc      	bmi.n	100048bc <stdio_uart_out_chars+0x34>
100048c2:	e7f5      	b.n	100048b0 <stdio_uart_out_chars+0x28>
100048c4:	3501      	adds	r5, #1
100048c6:	428d      	cmp	r5, r1
100048c8:	da10      	bge.n	100048ec <stdio_uart_out_chars+0x64>
100048ca:	4b09      	ldr	r3, [pc, #36]	; (100048f0 <stdio_uart_out_chars+0x68>)
100048cc:	681a      	ldr	r2, [r3, #0]
100048ce:	5d46      	ldrb	r6, [r0, r5]
100048d0:	4b08      	ldr	r3, [pc, #32]	; (100048f4 <stdio_uart_out_chars+0x6c>)
100048d2:	18d3      	adds	r3, r2, r3
100048d4:	425c      	negs	r4, r3
100048d6:	4163      	adcs	r3, r4
100048d8:	005b      	lsls	r3, r3, #1
100048da:	4c07      	ldr	r4, [pc, #28]	; (100048f8 <stdio_uart_out_chars+0x70>)
100048dc:	5f1b      	ldrsh	r3, [r3, r4]
100048de:	42b3      	cmp	r3, r6
100048e0:	d0d6      	beq.n	10004890 <stdio_uart_out_chars+0x8>
100048e2:	466b      	mov	r3, sp
100048e4:	3307      	adds	r3, #7
100048e6:	701e      	strb	r6, [r3, #0]
100048e8:	2400      	movs	r4, #0
100048ea:	e7e5      	b.n	100048b8 <stdio_uart_out_chars+0x30>
100048ec:	b003      	add	sp, #12
100048ee:	bdf0      	pop	{r4, r5, r6, r7, pc}
100048f0:	20001cb4 	.word	0x20001cb4
100048f4:	bffc8000 	.word	0xbffc8000
100048f8:	20001cc0 	.word	0x20001cc0

100048fc <stdio_uart_in_chars>:
100048fc:	b5f0      	push	{r4, r5, r6, r7, lr}
100048fe:	b083      	sub	sp, #12
10004900:	0007      	movs	r7, r0
10004902:	2000      	movs	r0, #0
10004904:	e00e      	b.n	10004924 <stdio_uart_in_chars+0x28>
10004906:	6813      	ldr	r3, [r2, #0]
10004908:	702b      	strb	r3, [r5, #0]
1000490a:	3401      	adds	r4, #1
1000490c:	3501      	adds	r5, #1
1000490e:	2c00      	cmp	r4, #0
10004910:	d103      	bne.n	1000491a <stdio_uart_in_chars+0x1e>
10004912:	6993      	ldr	r3, [r2, #24]
10004914:	06db      	lsls	r3, r3, #27
10004916:	d4fc      	bmi.n	10004912 <stdio_uart_in_chars+0x16>
10004918:	e7f5      	b.n	10004906 <stdio_uart_in_chars+0xa>
1000491a:	466b      	mov	r3, sp
1000491c:	3307      	adds	r3, #7
1000491e:	781b      	ldrb	r3, [r3, #0]
10004920:	7003      	strb	r3, [r0, #0]
10004922:	0030      	movs	r0, r6
10004924:	4288      	cmp	r0, r1
10004926:	da0a      	bge.n	1000493e <stdio_uart_in_chars+0x42>
10004928:	4a08      	ldr	r2, [pc, #32]	; (1000494c <stdio_uart_in_chars+0x50>)
1000492a:	6812      	ldr	r2, [r2, #0]
1000492c:	6995      	ldr	r5, [r2, #24]
1000492e:	2410      	movs	r4, #16
10004930:	402c      	ands	r4, r5
10004932:	d104      	bne.n	1000493e <stdio_uart_in_chars+0x42>
10004934:	1c46      	adds	r6, r0, #1
10004936:	1838      	adds	r0, r7, r0
10004938:	466b      	mov	r3, sp
1000493a:	1ddd      	adds	r5, r3, #7
1000493c:	e7e7      	b.n	1000490e <stdio_uart_in_chars+0x12>
1000493e:	2800      	cmp	r0, #0
10004940:	d001      	beq.n	10004946 <stdio_uart_in_chars+0x4a>
10004942:	b003      	add	sp, #12
10004944:	bdf0      	pop	{r4, r5, r6, r7, pc}
10004946:	3803      	subs	r0, #3
10004948:	e7fb      	b.n	10004942 <stdio_uart_in_chars+0x46>
1000494a:	46c0      	nop			; (mov r8, r8)
1000494c:	20001cb4 	.word	0x20001cb4

10004950 <stdio_uart_init_full>:
10004950:	b570      	push	{r4, r5, r6, lr}
10004952:	0015      	movs	r5, r2
10004954:	001c      	movs	r4, r3
10004956:	4b0b      	ldr	r3, [pc, #44]	; (10004984 <stdio_uart_init_full+0x34>)
10004958:	6018      	str	r0, [r3, #0]
1000495a:	f7fd fb2b 	bl	10001fb4 <uart_init>
1000495e:	2d00      	cmp	r5, #0
10004960:	da06      	bge.n	10004970 <stdio_uart_init_full+0x20>
10004962:	2c00      	cmp	r4, #0
10004964:	da09      	bge.n	1000497a <stdio_uart_init_full+0x2a>
10004966:	2101      	movs	r1, #1
10004968:	4807      	ldr	r0, [pc, #28]	; (10004988 <stdio_uart_init_full+0x38>)
1000496a:	f7ff ff29 	bl	100047c0 <stdio_set_driver_enabled>
1000496e:	bd70      	pop	{r4, r5, r6, pc}
10004970:	2102      	movs	r1, #2
10004972:	0028      	movs	r0, r5
10004974:	f7fb feec 	bl	10000750 <gpio_set_function>
10004978:	e7f3      	b.n	10004962 <stdio_uart_init_full+0x12>
1000497a:	2102      	movs	r1, #2
1000497c:	0020      	movs	r0, r4
1000497e:	f7fb fee7 	bl	10000750 <gpio_set_function>
10004982:	e7f0      	b.n	10004966 <stdio_uart_init_full+0x16>
10004984:	20001cb4 	.word	0x20001cb4
10004988:	20000360 	.word	0x20000360

1000498c <get_dev_ep>:
1000498c:	b570      	push	{r4, r5, r6, lr}
1000498e:	0006      	movs	r6, r0
10004990:	064b      	lsls	r3, r1, #25
10004992:	d017      	beq.n	100049c4 <get_dev_ep+0x38>
10004994:	2301      	movs	r3, #1
10004996:	e000      	b.n	1000499a <get_dev_ep+0xe>
10004998:	3301      	adds	r3, #1
1000499a:	2b0f      	cmp	r3, #15
1000499c:	d810      	bhi.n	100049c0 <get_dev_ep+0x34>
1000499e:	00da      	lsls	r2, r3, #3
100049a0:	18d4      	adds	r4, r2, r3
100049a2:	00a0      	lsls	r0, r4, #2
100049a4:	4c08      	ldr	r4, [pc, #32]	; (100049c8 <get_dev_ep+0x3c>)
100049a6:	1900      	adds	r0, r0, r4
100049a8:	18d2      	adds	r2, r2, r3
100049aa:	0095      	lsls	r5, r2, #2
100049ac:	5d2a      	ldrb	r2, [r5, r4]
100049ae:	2a00      	cmp	r2, #0
100049b0:	d0f2      	beq.n	10004998 <get_dev_ep+0xc>
100049b2:	7fc2      	ldrb	r2, [r0, #31]
100049b4:	42b2      	cmp	r2, r6
100049b6:	d1ef      	bne.n	10004998 <get_dev_ep+0xc>
100049b8:	7882      	ldrb	r2, [r0, #2]
100049ba:	428a      	cmp	r2, r1
100049bc:	d1ec      	bne.n	10004998 <get_dev_ep+0xc>
100049be:	e000      	b.n	100049c2 <get_dev_ep+0x36>
100049c0:	2000      	movs	r0, #0
100049c2:	bd70      	pop	{r4, r5, r6, pc}
100049c4:	4800      	ldr	r0, [pc, #0]	; (100049c8 <get_dev_ep+0x3c>)
100049c6:	e7fc      	b.n	100049c2 <get_dev_ep+0x36>
100049c8:	20001980 	.word	0x20001980

100049cc <_next_free_interrupt_ep>:
100049cc:	b510      	push	{r4, lr}
100049ce:	2301      	movs	r3, #1
100049d0:	2000      	movs	r0, #0
100049d2:	2b0f      	cmp	r3, #15
100049d4:	d80f      	bhi.n	100049f6 <_next_free_interrupt_ep+0x2a>
100049d6:	00da      	lsls	r2, r3, #3
100049d8:	18d1      	adds	r1, r2, r3
100049da:	0088      	lsls	r0, r1, #2
100049dc:	4906      	ldr	r1, [pc, #24]	; (100049f8 <_next_free_interrupt_ep+0x2c>)
100049de:	1840      	adds	r0, r0, r1
100049e0:	18d2      	adds	r2, r2, r3
100049e2:	0094      	lsls	r4, r2, #2
100049e4:	5c62      	ldrb	r2, [r4, r1]
100049e6:	2a00      	cmp	r2, #0
100049e8:	d001      	beq.n	100049ee <_next_free_interrupt_ep+0x22>
100049ea:	3301      	adds	r3, #1
100049ec:	e7f1      	b.n	100049d2 <_next_free_interrupt_ep+0x6>
100049ee:	1e59      	subs	r1, r3, #1
100049f0:	0003      	movs	r3, r0
100049f2:	3320      	adds	r3, #32
100049f4:	7019      	strb	r1, [r3, #0]
100049f6:	bd10      	pop	{r4, pc}
100049f8:	20001980 	.word	0x20001980

100049fc <_hw_endpoint_allocate>:
100049fc:	b510      	push	{r4, lr}
100049fe:	2803      	cmp	r0, #3
10004a00:	d007      	beq.n	10004a12 <_hw_endpoint_allocate+0x16>
10004a02:	4812      	ldr	r0, [pc, #72]	; (10004a4c <_hw_endpoint_allocate+0x50>)
10004a04:	4b12      	ldr	r3, [pc, #72]	; (10004a50 <_hw_endpoint_allocate+0x54>)
10004a06:	6083      	str	r3, [r0, #8]
10004a08:	4b12      	ldr	r3, [pc, #72]	; (10004a54 <_hw_endpoint_allocate+0x58>)
10004a0a:	6043      	str	r3, [r0, #4]
10004a0c:	4b12      	ldr	r3, [pc, #72]	; (10004a58 <_hw_endpoint_allocate+0x5c>)
10004a0e:	60c3      	str	r3, [r0, #12]
10004a10:	bd10      	pop	{r4, pc}
10004a12:	f7ff ffdb 	bl	100049cc <_next_free_interrupt_ep>
10004a16:	2800      	cmp	r0, #0
10004a18:	d010      	beq.n	10004a3c <_hw_endpoint_allocate+0x40>
10004a1a:	2320      	movs	r3, #32
10004a1c:	5cc3      	ldrb	r3, [r0, r3]
10004a1e:	00da      	lsls	r2, r3, #3
10004a20:	490e      	ldr	r1, [pc, #56]	; (10004a5c <_hw_endpoint_allocate+0x60>)
10004a22:	1851      	adds	r1, r2, r1
10004a24:	6081      	str	r1, [r0, #8]
10004a26:	490e      	ldr	r1, [pc, #56]	; (10004a60 <_hw_endpoint_allocate+0x64>)
10004a28:	468c      	mov	ip, r1
10004a2a:	4462      	add	r2, ip
10004a2c:	6042      	str	r2, [r0, #4]
10004a2e:	3302      	adds	r3, #2
10004a30:	019b      	lsls	r3, r3, #6
10004a32:	4a09      	ldr	r2, [pc, #36]	; (10004a58 <_hw_endpoint_allocate+0x5c>)
10004a34:	4694      	mov	ip, r2
10004a36:	4463      	add	r3, ip
10004a38:	60c3      	str	r3, [r0, #12]
10004a3a:	e7e9      	b.n	10004a10 <_hw_endpoint_allocate+0x14>
10004a3c:	210c      	movs	r1, #12
10004a3e:	4b09      	ldr	r3, [pc, #36]	; (10004a64 <_hw_endpoint_allocate+0x68>)
10004a40:	4a09      	ldr	r2, [pc, #36]	; (10004a68 <_hw_endpoint_allocate+0x6c>)
10004a42:	31ff      	adds	r1, #255	; 0xff
10004a44:	4809      	ldr	r0, [pc, #36]	; (10004a6c <_hw_endpoint_allocate+0x70>)
10004a46:	f7fd fb17 	bl	10002078 <__assert_func>
10004a4a:	46c0      	nop			; (mov r8, r8)
10004a4c:	20001980 	.word	0x20001980
10004a50:	50100080 	.word	0x50100080
10004a54:	50100100 	.word	0x50100100
10004a58:	50100180 	.word	0x50100180
10004a5c:	50100088 	.word	0x50100088
10004a60:	50100008 	.word	0x50100008
10004a64:	10009d5c 	.word	0x10009d5c
10004a68:	10009cb8 	.word	0x10009cb8
10004a6c:	10009d60 	.word	0x10009d60

10004a70 <hw_xfer_complete>:
10004a70:	b5f0      	push	{r4, r5, r6, r7, lr}
10004a72:	b083      	sub	sp, #12
10004a74:	000e      	movs	r6, r1
10004a76:	7fc4      	ldrb	r4, [r0, #31]
10004a78:	7885      	ldrb	r5, [r0, #2]
10004a7a:	8a87      	ldrh	r7, [r0, #20]
10004a7c:	f000 fb76 	bl	1000516c <hw_endpoint_reset_transfer>
10004a80:	2301      	movs	r3, #1
10004a82:	9300      	str	r3, [sp, #0]
10004a84:	0033      	movs	r3, r6
10004a86:	003a      	movs	r2, r7
10004a88:	0029      	movs	r1, r5
10004a8a:	0020      	movs	r0, r4
10004a8c:	f001 f9d6 	bl	10005e3c <hcd_event_xfer_complete>
10004a90:	b003      	add	sp, #12
10004a92:	bdf0      	pop	{r4, r5, r6, r7, pc}

10004a94 <_handle_buff_status_bit>:
10004a94:	b510      	push	{r4, lr}
10004a96:	000c      	movs	r4, r1
10004a98:	4b06      	ldr	r3, [pc, #24]	; (10004ab4 <_handle_buff_status_bit+0x20>)
10004a9a:	6598      	str	r0, [r3, #88]	; 0x58
10004a9c:	0008      	movs	r0, r1
10004a9e:	f000 fbef 	bl	10005280 <hw_endpoint_xfer_continue>
10004aa2:	2800      	cmp	r0, #0
10004aa4:	d100      	bne.n	10004aa8 <_handle_buff_status_bit+0x14>
10004aa6:	bd10      	pop	{r4, pc}
10004aa8:	2100      	movs	r1, #0
10004aaa:	0020      	movs	r0, r4
10004aac:	f7ff ffe0 	bl	10004a70 <hw_xfer_complete>
10004ab0:	e7f9      	b.n	10004aa6 <_handle_buff_status_bit+0x12>
10004ab2:	46c0      	nop			; (mov r8, r8)
10004ab4:	50113000 	.word	0x50113000

10004ab8 <hw_handle_buff_status>:
10004ab8:	b570      	push	{r4, r5, r6, lr}
10004aba:	4b14      	ldr	r3, [pc, #80]	; (10004b0c <hw_handle_buff_status+0x54>)
10004abc:	6d9d      	ldr	r5, [r3, #88]	; 0x58
10004abe:	07eb      	lsls	r3, r5, #31
10004ac0:	d401      	bmi.n	10004ac6 <hw_handle_buff_status+0xe>
10004ac2:	2401      	movs	r4, #1
10004ac4:	e011      	b.n	10004aea <hw_handle_buff_status+0x32>
10004ac6:	2301      	movs	r3, #1
10004ac8:	439d      	bics	r5, r3
10004aca:	4911      	ldr	r1, [pc, #68]	; (10004b10 <hw_handle_buff_status+0x58>)
10004acc:	684b      	ldr	r3, [r1, #4]
10004ace:	681b      	ldr	r3, [r3, #0]
10004ad0:	2001      	movs	r0, #1
10004ad2:	f7ff ffdf 	bl	10004a94 <_handle_buff_status_bit>
10004ad6:	e7f4      	b.n	10004ac2 <hw_handle_buff_status+0xa>
10004ad8:	4385      	bics	r5, r0
10004ada:	00e3      	lsls	r3, r4, #3
10004adc:	191b      	adds	r3, r3, r4
10004ade:	0099      	lsls	r1, r3, #2
10004ae0:	4b0b      	ldr	r3, [pc, #44]	; (10004b10 <hw_handle_buff_status+0x58>)
10004ae2:	18c9      	adds	r1, r1, r3
10004ae4:	f7ff ffd6 	bl	10004a94 <_handle_buff_status_bit>
10004ae8:	3401      	adds	r4, #1
10004aea:	2c0f      	cmp	r4, #15
10004aec:	d807      	bhi.n	10004afe <hw_handle_buff_status+0x46>
10004aee:	2d00      	cmp	r5, #0
10004af0:	d005      	beq.n	10004afe <hw_handle_buff_status+0x46>
10004af2:	0063      	lsls	r3, r4, #1
10004af4:	2001      	movs	r0, #1
10004af6:	4098      	lsls	r0, r3
10004af8:	4228      	tst	r0, r5
10004afa:	d0f5      	beq.n	10004ae8 <hw_handle_buff_status+0x30>
10004afc:	e7ec      	b.n	10004ad8 <hw_handle_buff_status+0x20>
10004afe:	2d00      	cmp	r5, #0
10004b00:	d100      	bne.n	10004b04 <hw_handle_buff_status+0x4c>
10004b02:	bd70      	pop	{r4, r5, r6, pc}
10004b04:	0029      	movs	r1, r5
10004b06:	4803      	ldr	r0, [pc, #12]	; (10004b14 <hw_handle_buff_status+0x5c>)
10004b08:	f7fd fb50 	bl	100021ac <panic>
10004b0c:	50110000 	.word	0x50110000
10004b10:	20001980 	.word	0x20001980
10004b14:	10009e8c 	.word	0x10009e8c

10004b18 <hw_trans_complete>:
10004b18:	b510      	push	{r4, lr}
10004b1a:	4b0a      	ldr	r3, [pc, #40]	; (10004b44 <hw_trans_complete+0x2c>)
10004b1c:	7c1b      	ldrb	r3, [r3, #16]
10004b1e:	2b00      	cmp	r3, #0
10004b20:	d004      	beq.n	10004b2c <hw_trans_complete+0x14>
10004b22:	4b09      	ldr	r3, [pc, #36]	; (10004b48 <hw_trans_complete+0x30>)
10004b24:	6cdb      	ldr	r3, [r3, #76]	; 0x4c
10004b26:	079b      	lsls	r3, r3, #30
10004b28:	d406      	bmi.n	10004b38 <hw_trans_complete+0x20>
10004b2a:	bd10      	pop	{r4, pc}
10004b2c:	4b07      	ldr	r3, [pc, #28]	; (10004b4c <hw_trans_complete+0x34>)
10004b2e:	4a08      	ldr	r2, [pc, #32]	; (10004b50 <hw_trans_complete+0x38>)
10004b30:	21a4      	movs	r1, #164	; 0xa4
10004b32:	4808      	ldr	r0, [pc, #32]	; (10004b54 <hw_trans_complete+0x3c>)
10004b34:	f7fd faa0 	bl	10002078 <__assert_func>
10004b38:	2100      	movs	r1, #0
10004b3a:	4802      	ldr	r0, [pc, #8]	; (10004b44 <hw_trans_complete+0x2c>)
10004b3c:	f7ff ff98 	bl	10004a70 <hw_xfer_complete>
10004b40:	e7f3      	b.n	10004b2a <hw_trans_complete+0x12>
10004b42:	46c0      	nop			; (mov r8, r8)
10004b44:	20001980 	.word	0x20001980
10004b48:	50110000 	.word	0x50110000
10004b4c:	10009ea4 	.word	0x10009ea4
10004b50:	10009ca4 	.word	0x10009ca4
10004b54:	10009d60 	.word	0x10009d60

10004b58 <hcd_rp2040_irq>:
10004b58:	b570      	push	{r4, r5, r6, lr}
10004b5a:	4a28      	ldr	r2, [pc, #160]	; (10004bfc <hcd_rp2040_irq+0xa4>)
10004b5c:	2398      	movs	r3, #152	; 0x98
10004b5e:	58d4      	ldr	r4, [r2, r3]
10004b60:	2501      	movs	r5, #1
10004b62:	4025      	ands	r5, r4
10004b64:	d00b      	beq.n	10004b7e <hcd_rp2040_irq+0x26>
10004b66:	6d13      	ldr	r3, [r2, #80]	; 0x50
10004b68:	0a1b      	lsrs	r3, r3, #8
10004b6a:	079b      	lsls	r3, r3, #30
10004b6c:	d01a      	beq.n	10004ba4 <hcd_rp2040_irq+0x4c>
10004b6e:	2101      	movs	r1, #1
10004b70:	2000      	movs	r0, #0
10004b72:	f001 f976 	bl	10005e62 <hcd_event_device_attach>
10004b76:	4b22      	ldr	r3, [pc, #136]	; (10004c00 <hcd_rp2040_irq+0xa8>)
10004b78:	22c0      	movs	r2, #192	; 0xc0
10004b7a:	0092      	lsls	r2, r2, #2
10004b7c:	651a      	str	r2, [r3, #80]	; 0x50
10004b7e:	06e3      	lsls	r3, r4, #27
10004b80:	d415      	bmi.n	10004bae <hcd_rp2040_irq+0x56>
10004b82:	0723      	lsls	r3, r4, #28
10004b84:	d418      	bmi.n	10004bb8 <hcd_rp2040_irq+0x60>
10004b86:	0563      	lsls	r3, r4, #21
10004b88:	d41f      	bmi.n	10004bca <hcd_rp2040_irq+0x72>
10004b8a:	0663      	lsls	r3, r4, #25
10004b8c:	d505      	bpl.n	10004b9a <hcd_rp2040_irq+0x42>
10004b8e:	2340      	movs	r3, #64	; 0x40
10004b90:	431d      	orrs	r5, r3
10004b92:	4b1b      	ldr	r3, [pc, #108]	; (10004c00 <hcd_rp2040_irq+0xa8>)
10004b94:	2280      	movs	r2, #128	; 0x80
10004b96:	0512      	lsls	r2, r2, #20
10004b98:	651a      	str	r2, [r3, #80]	; 0x50
10004b9a:	06a3      	lsls	r3, r4, #26
10004b9c:	d421      	bmi.n	10004be2 <hcd_rp2040_irq+0x8a>
10004b9e:	42a5      	cmp	r5, r4
10004ba0:	d126      	bne.n	10004bf0 <hcd_rp2040_irq+0x98>
10004ba2:	bd70      	pop	{r4, r5, r6, pc}
10004ba4:	2101      	movs	r1, #1
10004ba6:	2000      	movs	r0, #0
10004ba8:	f001 f96c 	bl	10005e84 <hcd_event_device_remove>
10004bac:	e7e3      	b.n	10004b76 <hcd_rp2040_irq+0x1e>
10004bae:	2310      	movs	r3, #16
10004bb0:	431d      	orrs	r5, r3
10004bb2:	f7ff ff81 	bl	10004ab8 <hw_handle_buff_status>
10004bb6:	e7e4      	b.n	10004b82 <hcd_rp2040_irq+0x2a>
10004bb8:	2308      	movs	r3, #8
10004bba:	431d      	orrs	r5, r3
10004bbc:	4b10      	ldr	r3, [pc, #64]	; (10004c00 <hcd_rp2040_irq+0xa8>)
10004bbe:	2280      	movs	r2, #128	; 0x80
10004bc0:	02d2      	lsls	r2, r2, #11
10004bc2:	651a      	str	r2, [r3, #80]	; 0x50
10004bc4:	f7ff ffa8 	bl	10004b18 <hw_trans_complete>
10004bc8:	e7dd      	b.n	10004b86 <hcd_rp2040_irq+0x2e>
10004bca:	2380      	movs	r3, #128	; 0x80
10004bcc:	00db      	lsls	r3, r3, #3
10004bce:	431d      	orrs	r5, r3
10004bd0:	4b0b      	ldr	r3, [pc, #44]	; (10004c00 <hcd_rp2040_irq+0xa8>)
10004bd2:	2280      	movs	r2, #128	; 0x80
10004bd4:	0592      	lsls	r2, r2, #22
10004bd6:	651a      	str	r2, [r3, #80]	; 0x50
10004bd8:	2102      	movs	r1, #2
10004bda:	480a      	ldr	r0, [pc, #40]	; (10004c04 <hcd_rp2040_irq+0xac>)
10004bdc:	f7ff ff48 	bl	10004a70 <hw_xfer_complete>
10004be0:	e7d3      	b.n	10004b8a <hcd_rp2040_irq+0x32>
10004be2:	4b07      	ldr	r3, [pc, #28]	; (10004c00 <hcd_rp2040_irq+0xa8>)
10004be4:	2280      	movs	r2, #128	; 0x80
10004be6:	0612      	lsls	r2, r2, #24
10004be8:	651a      	str	r2, [r3, #80]	; 0x50
10004bea:	4807      	ldr	r0, [pc, #28]	; (10004c08 <hcd_rp2040_irq+0xb0>)
10004bec:	f7fd fade 	bl	100021ac <panic>
10004bf0:	0029      	movs	r1, r5
10004bf2:	4061      	eors	r1, r4
10004bf4:	4805      	ldr	r0, [pc, #20]	; (10004c0c <hcd_rp2040_irq+0xb4>)
10004bf6:	f7fd fad9 	bl	100021ac <panic>
10004bfa:	46c0      	nop			; (mov r8, r8)
10004bfc:	50110000 	.word	0x50110000
10004c00:	50113000 	.word	0x50113000
10004c04:	20001980 	.word	0x20001980
10004c08:	10009e54 	.word	0x10009e54
10004c0c:	10009e68 	.word	0x10009e68

10004c10 <hcd_init>:
10004c10:	b510      	push	{r4, lr}
10004c12:	2800      	cmp	r0, #0
10004c14:	d117      	bne.n	10004c46 <hcd_init+0x36>
10004c16:	f000 fa83 	bl	10005120 <rp2040_usb_init>
10004c1a:	4c0e      	ldr	r4, [pc, #56]	; (10004c54 <hcd_init+0x44>)
10004c1c:	230c      	movs	r3, #12
10004c1e:	67a3      	str	r3, [r4, #120]	; 0x78
10004c20:	490d      	ldr	r1, [pc, #52]	; (10004c58 <hcd_init+0x48>)
10004c22:	2005      	movs	r0, #5
10004c24:	f7fb fecc 	bl	100009c0 <irq_set_exclusive_handler>
10004c28:	2290      	movs	r2, #144	; 0x90
10004c2a:	0092      	lsls	r2, r2, #2
10004c2c:	2100      	movs	r1, #0
10004c2e:	480b      	ldr	r0, [pc, #44]	; (10004c5c <hcd_init+0x4c>)
10004c30:	f7ff fc66 	bl	10004500 <__wrap_memset>
10004c34:	2303      	movs	r3, #3
10004c36:	6423      	str	r3, [r4, #64]	; 0x40
10004c38:	4b09      	ldr	r3, [pc, #36]	; (10004c60 <hcd_init+0x50>)
10004c3a:	64e3      	str	r3, [r4, #76]	; 0x4c
10004c3c:	2390      	movs	r3, #144	; 0x90
10004c3e:	4a09      	ldr	r2, [pc, #36]	; (10004c64 <hcd_init+0x54>)
10004c40:	50e2      	str	r2, [r4, r3]
10004c42:	2001      	movs	r0, #1
10004c44:	bd10      	pop	{r4, pc}
10004c46:	21b2      	movs	r1, #178	; 0xb2
10004c48:	4b07      	ldr	r3, [pc, #28]	; (10004c68 <hcd_init+0x58>)
10004c4a:	4a08      	ldr	r2, [pc, #32]	; (10004c6c <hcd_init+0x5c>)
10004c4c:	0049      	lsls	r1, r1, #1
10004c4e:	4808      	ldr	r0, [pc, #32]	; (10004c70 <hcd_init+0x60>)
10004c50:	f7fd fa12 	bl	10002078 <__assert_func>
10004c54:	50110000 	.word	0x50110000
10004c58:	10004b59 	.word	0x10004b59
10004c5c:	20001980 	.word	0x20001980
10004c60:	20008600 	.word	0x20008600
10004c64:	0000047b 	.word	0x0000047b
10004c68:	10009e38 	.word	0x10009e38
10004c6c:	10009ce4 	.word	0x10009ce4
10004c70:	10009d60 	.word	0x10009d60

10004c74 <hcd_port_reset>:
10004c74:	b510      	push	{r4, lr}
10004c76:	2800      	cmp	r0, #0
10004c78:	d100      	bne.n	10004c7c <hcd_port_reset+0x8>
10004c7a:	bd10      	pop	{r4, pc}
10004c7c:	21c1      	movs	r1, #193	; 0xc1
10004c7e:	4b03      	ldr	r3, [pc, #12]	; (10004c8c <hcd_port_reset+0x18>)
10004c80:	4a03      	ldr	r2, [pc, #12]	; (10004c90 <hcd_port_reset+0x1c>)
10004c82:	0049      	lsls	r1, r1, #1
10004c84:	4803      	ldr	r0, [pc, #12]	; (10004c94 <hcd_port_reset+0x20>)
10004c86:	f7fd f9f7 	bl	10002078 <__assert_func>
10004c8a:	46c0      	nop			; (mov r8, r8)
10004c8c:	10009e38 	.word	0x10009e38
10004c90:	10009cf0 	.word	0x10009cf0
10004c94:	10009d60 	.word	0x10009d60

10004c98 <hcd_port_connect_status>:
10004c98:	b510      	push	{r4, lr}
10004c9a:	2800      	cmp	r0, #0
10004c9c:	d108      	bne.n	10004cb0 <hcd_port_connect_status+0x18>
10004c9e:	4b08      	ldr	r3, [pc, #32]	; (10004cc0 <hcd_port_connect_status+0x28>)
10004ca0:	6d18      	ldr	r0, [r3, #80]	; 0x50
10004ca2:	23c0      	movs	r3, #192	; 0xc0
10004ca4:	009b      	lsls	r3, r3, #2
10004ca6:	4018      	ands	r0, r3
10004ca8:	1e43      	subs	r3, r0, #1
10004caa:	4198      	sbcs	r0, r3
10004cac:	b2c0      	uxtb	r0, r0
10004cae:	bd10      	pop	{r4, pc}
10004cb0:	218a      	movs	r1, #138	; 0x8a
10004cb2:	4b04      	ldr	r3, [pc, #16]	; (10004cc4 <hcd_port_connect_status+0x2c>)
10004cb4:	4a04      	ldr	r2, [pc, #16]	; (10004cc8 <hcd_port_connect_status+0x30>)
10004cb6:	31ff      	adds	r1, #255	; 0xff
10004cb8:	4804      	ldr	r0, [pc, #16]	; (10004ccc <hcd_port_connect_status+0x34>)
10004cba:	f7fd f9dd 	bl	10002078 <__assert_func>
10004cbe:	46c0      	nop			; (mov r8, r8)
10004cc0:	50110000 	.word	0x50110000
10004cc4:	10009e38 	.word	0x10009e38
10004cc8:	10009d00 	.word	0x10009d00
10004ccc:	10009d60 	.word	0x10009d60

10004cd0 <hcd_port_speed_get>:
10004cd0:	b510      	push	{r4, lr}
10004cd2:	2800      	cmp	r0, #0
10004cd4:	d109      	bne.n	10004cea <hcd_port_speed_get+0x1a>
10004cd6:	4b0b      	ldr	r3, [pc, #44]	; (10004d04 <hcd_port_speed_get+0x34>)
10004cd8:	6d1a      	ldr	r2, [r3, #80]	; 0x50
10004cda:	0a12      	lsrs	r2, r2, #8
10004cdc:	2303      	movs	r3, #3
10004cde:	4013      	ands	r3, r2
10004ce0:	2b01      	cmp	r3, #1
10004ce2:	d00c      	beq.n	10004cfe <hcd_port_speed_get+0x2e>
10004ce4:	2b02      	cmp	r3, #2
10004ce6:	d107      	bne.n	10004cf8 <hcd_port_speed_get+0x28>
10004ce8:	bd10      	pop	{r4, pc}
10004cea:	2190      	movs	r1, #144	; 0x90
10004cec:	4b06      	ldr	r3, [pc, #24]	; (10004d08 <hcd_port_speed_get+0x38>)
10004cee:	4a07      	ldr	r2, [pc, #28]	; (10004d0c <hcd_port_speed_get+0x3c>)
10004cf0:	31ff      	adds	r1, #255	; 0xff
10004cf2:	4807      	ldr	r0, [pc, #28]	; (10004d10 <hcd_port_speed_get+0x40>)
10004cf4:	f7fd f9c0 	bl	10002078 <__assert_func>
10004cf8:	4806      	ldr	r0, [pc, #24]	; (10004d14 <hcd_port_speed_get+0x44>)
10004cfa:	f7fd fa57 	bl	100021ac <panic>
10004cfe:	0018      	movs	r0, r3
10004d00:	e7f2      	b.n	10004ce8 <hcd_port_speed_get+0x18>
10004d02:	46c0      	nop			; (mov r8, r8)
10004d04:	50110000 	.word	0x50110000
10004d08:	10009e38 	.word	0x10009e38
10004d0c:	10009d18 	.word	0x10009d18
10004d10:	10009d60 	.word	0x10009d60
10004d14:	10009e44 	.word	0x10009e44

10004d18 <need_pre>:
10004d18:	b570      	push	{r4, r5, r6, lr}
10004d1a:	0005      	movs	r5, r0
10004d1c:	2000      	movs	r0, #0
10004d1e:	f7ff ffd7 	bl	10004cd0 <hcd_port_speed_get>
10004d22:	0004      	movs	r4, r0
10004d24:	0028      	movs	r0, r5
10004d26:	f000 fdaf 	bl	10005888 <tuh_speed_get>
10004d2a:	1a20      	subs	r0, r4, r0
10004d2c:	1e44      	subs	r4, r0, #1
10004d2e:	41a0      	sbcs	r0, r4
10004d30:	b2c0      	uxtb	r0, r0
10004d32:	bd70      	pop	{r4, r5, r6, pc}

10004d34 <_hw_endpoint_init>:
10004d34:	b5f8      	push	{r3, r4, r5, r6, r7, lr}
10004d36:	46ce      	mov	lr, r9
10004d38:	4647      	mov	r7, r8
10004d3a:	b580      	push	{r7, lr}
10004d3c:	0004      	movs	r4, r0
10004d3e:	4698      	mov	r8, r3
10004d40:	a808      	add	r0, sp, #32
10004d42:	7805      	ldrb	r5, [r0, #0]
10004d44:	a809      	add	r0, sp, #36	; 0x24
10004d46:	7807      	ldrb	r7, [r0, #0]
10004d48:	6860      	ldr	r0, [r4, #4]
10004d4a:	2800      	cmp	r0, #0
10004d4c:	d048      	beq.n	10004de0 <_hw_endpoint_init+0xac>
10004d4e:	68a3      	ldr	r3, [r4, #8]
10004d50:	2b00      	cmp	r3, #0
10004d52:	d04c      	beq.n	10004dee <_hw_endpoint_init+0xba>
10004d54:	68e3      	ldr	r3, [r4, #12]
10004d56:	2b00      	cmp	r3, #0
10004d58:	d050      	beq.n	10004dfc <_hw_endpoint_init+0xc8>
10004d5a:	267f      	movs	r6, #127	; 0x7f
10004d5c:	4016      	ands	r6, r2
10004d5e:	46b1      	mov	r9, r6
10004d60:	09d6      	lsrs	r6, r2, #7
10004d62:	46b4      	mov	ip, r6
10004d64:	70a2      	strb	r2, [r4, #2]
10004d66:	77e1      	strb	r1, [r4, #31]
10004d68:	7066      	strb	r6, [r4, #1]
10004d6a:	464a      	mov	r2, r9
10004d6c:	2a00      	cmp	r2, #0
10004d6e:	d14c      	bne.n	10004e0a <_hw_endpoint_init+0xd6>
10004d70:	3201      	adds	r2, #1
10004d72:	70e2      	strb	r2, [r4, #3]
10004d74:	4642      	mov	r2, r8
10004d76:	83a2      	strh	r2, [r4, #28]
10004d78:	77a5      	strb	r5, [r4, #30]
10004d7a:	4a2c      	ldr	r2, [pc, #176]	; (10004e2c <_hw_endpoint_init+0xf8>)
10004d7c:	405a      	eors	r2, r3
10004d7e:	233f      	movs	r3, #63	; 0x3f
10004d80:	4013      	ands	r3, r2
10004d82:	d144      	bne.n	10004e0e <_hw_endpoint_init+0xda>
10004d84:	06ad      	lsls	r5, r5, #26
10004d86:	4315      	orrs	r5, r2
10004d88:	22a0      	movs	r2, #160	; 0xa0
10004d8a:	0612      	lsls	r2, r2, #24
10004d8c:	4315      	orrs	r5, r2
10004d8e:	2f00      	cmp	r7, #0
10004d90:	d001      	beq.n	10004d96 <_hw_endpoint_init+0x62>
10004d92:	1e7b      	subs	r3, r7, #1
10004d94:	041b      	lsls	r3, r3, #16
10004d96:	432b      	orrs	r3, r5
10004d98:	6003      	str	r3, [r0, #0]
10004d9a:	2301      	movs	r3, #1
10004d9c:	7023      	strb	r3, [r4, #0]
10004d9e:	2f00      	cmp	r7, #0
10004da0:	d01a      	beq.n	10004dd8 <_hw_endpoint_init+0xa4>
10004da2:	464b      	mov	r3, r9
10004da4:	041e      	lsls	r6, r3, #16
10004da6:	430e      	orrs	r6, r1
10004da8:	4663      	mov	r3, ip
10004daa:	2b01      	cmp	r3, #1
10004dac:	d136      	bne.n	10004e1c <_hw_endpoint_init+0xe8>
10004dae:	0008      	movs	r0, r1
10004db0:	f7ff ffb2 	bl	10004d18 <need_pre>
10004db4:	2800      	cmp	r0, #0
10004db6:	d002      	beq.n	10004dbe <_hw_endpoint_init+0x8a>
10004db8:	2380      	movs	r3, #128	; 0x80
10004dba:	04db      	lsls	r3, r3, #19
10004dbc:	431e      	orrs	r6, r3
10004dbe:	2220      	movs	r2, #32
10004dc0:	5ca3      	ldrb	r3, [r4, r2]
10004dc2:	009b      	lsls	r3, r3, #2
10004dc4:	491a      	ldr	r1, [pc, #104]	; (10004e30 <_hw_endpoint_init+0xfc>)
10004dc6:	468c      	mov	ip, r1
10004dc8:	4463      	add	r3, ip
10004dca:	605e      	str	r6, [r3, #4]
10004dcc:	5ca2      	ldrb	r2, [r4, r2]
10004dce:	3201      	adds	r2, #1
10004dd0:	2301      	movs	r3, #1
10004dd2:	4093      	lsls	r3, r2
10004dd4:	4a17      	ldr	r2, [pc, #92]	; (10004e34 <_hw_endpoint_init+0x100>)
10004dd6:	6553      	str	r3, [r2, #84]	; 0x54
10004dd8:	bc0c      	pop	{r2, r3}
10004dda:	4690      	mov	r8, r2
10004ddc:	4699      	mov	r9, r3
10004dde:	bdf8      	pop	{r3, r4, r5, r6, r7, pc}
10004de0:	2191      	movs	r1, #145	; 0x91
10004de2:	4b15      	ldr	r3, [pc, #84]	; (10004e38 <_hw_endpoint_init+0x104>)
10004de4:	4a15      	ldr	r2, [pc, #84]	; (10004e3c <_hw_endpoint_init+0x108>)
10004de6:	0049      	lsls	r1, r1, #1
10004de8:	4815      	ldr	r0, [pc, #84]	; (10004e40 <_hw_endpoint_init+0x10c>)
10004dea:	f7fd f945 	bl	10002078 <__assert_func>
10004dee:	2124      	movs	r1, #36	; 0x24
10004df0:	4b14      	ldr	r3, [pc, #80]	; (10004e44 <_hw_endpoint_init+0x110>)
10004df2:	4a12      	ldr	r2, [pc, #72]	; (10004e3c <_hw_endpoint_init+0x108>)
10004df4:	31ff      	adds	r1, #255	; 0xff
10004df6:	4812      	ldr	r0, [pc, #72]	; (10004e40 <_hw_endpoint_init+0x10c>)
10004df8:	f7fd f93e 	bl	10002078 <__assert_func>
10004dfc:	2192      	movs	r1, #146	; 0x92
10004dfe:	4b12      	ldr	r3, [pc, #72]	; (10004e48 <_hw_endpoint_init+0x114>)
10004e00:	4a0e      	ldr	r2, [pc, #56]	; (10004e3c <_hw_endpoint_init+0x108>)
10004e02:	0049      	lsls	r1, r1, #1
10004e04:	480e      	ldr	r0, [pc, #56]	; (10004e40 <_hw_endpoint_init+0x10c>)
10004e06:	f7fd f937 	bl	10002078 <__assert_func>
10004e0a:	2200      	movs	r2, #0
10004e0c:	e7b1      	b.n	10004d72 <_hw_endpoint_init+0x3e>
10004e0e:	219c      	movs	r1, #156	; 0x9c
10004e10:	4b0e      	ldr	r3, [pc, #56]	; (10004e4c <_hw_endpoint_init+0x118>)
10004e12:	4a0a      	ldr	r2, [pc, #40]	; (10004e3c <_hw_endpoint_init+0x108>)
10004e14:	0049      	lsls	r1, r1, #1
10004e16:	480a      	ldr	r0, [pc, #40]	; (10004e40 <_hw_endpoint_init+0x10c>)
10004e18:	f7fd f92e 	bl	10002078 <__assert_func>
10004e1c:	21a7      	movs	r1, #167	; 0xa7
10004e1e:	4b0c      	ldr	r3, [pc, #48]	; (10004e50 <_hw_endpoint_init+0x11c>)
10004e20:	4a06      	ldr	r2, [pc, #24]	; (10004e3c <_hw_endpoint_init+0x108>)
10004e22:	0049      	lsls	r1, r1, #1
10004e24:	4806      	ldr	r0, [pc, #24]	; (10004e40 <_hw_endpoint_init+0x10c>)
10004e26:	f7fd f927 	bl	10002078 <__assert_func>
10004e2a:	46c0      	nop			; (mov r8, r8)
10004e2c:	50100000 	.word	0x50100000
10004e30:	50110000 	.word	0x50110000
10004e34:	50112000 	.word	0x50112000
10004e38:	10009dc0 	.word	0x10009dc0
10004e3c:	10009cd0 	.word	0x10009cd0
10004e40:	10009d60 	.word	0x10009d60
10004e44:	10009dd8 	.word	0x10009dd8
10004e48:	10009dec 	.word	0x10009dec
10004e4c:	10009dfc 	.word	0x10009dfc
10004e50:	10009e18 	.word	0x10009e18

10004e54 <hcd_device_close>:
10004e54:	4770      	bx	lr
	...

10004e58 <hcd_int_enable>:
10004e58:	b510      	push	{r4, lr}
10004e5a:	2800      	cmp	r0, #0
10004e5c:	d104      	bne.n	10004e68 <hcd_int_enable+0x10>
10004e5e:	2101      	movs	r1, #1
10004e60:	2005      	movs	r0, #5
10004e62:	f7fb fd9d 	bl	100009a0 <irq_set_enabled>
10004e66:	bd10      	pop	{r4, pc}
10004e68:	21d7      	movs	r1, #215	; 0xd7
10004e6a:	4b03      	ldr	r3, [pc, #12]	; (10004e78 <hcd_int_enable+0x20>)
10004e6c:	4a03      	ldr	r2, [pc, #12]	; (10004e7c <hcd_int_enable+0x24>)
10004e6e:	0049      	lsls	r1, r1, #1
10004e70:	4803      	ldr	r0, [pc, #12]	; (10004e80 <hcd_int_enable+0x28>)
10004e72:	f7fd f901 	bl	10002078 <__assert_func>
10004e76:	46c0      	nop			; (mov r8, r8)
10004e78:	10009e38 	.word	0x10009e38
10004e7c:	10009d2c 	.word	0x10009d2c
10004e80:	10009d60 	.word	0x10009d60

10004e84 <hcd_edpt_open>:
10004e84:	b530      	push	{r4, r5, lr}
10004e86:	b083      	sub	sp, #12
10004e88:	000c      	movs	r4, r1
10004e8a:	0015      	movs	r5, r2
10004e8c:	78d0      	ldrb	r0, [r2, #3]
10004e8e:	0780      	lsls	r0, r0, #30
10004e90:	0f80      	lsrs	r0, r0, #30
10004e92:	f7ff fdb3 	bl	100049fc <_hw_endpoint_allocate>
10004e96:	792a      	ldrb	r2, [r5, #4]
10004e98:	7969      	ldrb	r1, [r5, #5]
10004e9a:	2307      	movs	r3, #7
10004e9c:	400b      	ands	r3, r1
10004e9e:	021b      	lsls	r3, r3, #8
10004ea0:	4313      	orrs	r3, r2
10004ea2:	78e9      	ldrb	r1, [r5, #3]
10004ea4:	0789      	lsls	r1, r1, #30
10004ea6:	0f89      	lsrs	r1, r1, #30
10004ea8:	78aa      	ldrb	r2, [r5, #2]
10004eaa:	79ad      	ldrb	r5, [r5, #6]
10004eac:	9501      	str	r5, [sp, #4]
10004eae:	9100      	str	r1, [sp, #0]
10004eb0:	0021      	movs	r1, r4
10004eb2:	f7ff ff3f 	bl	10004d34 <_hw_endpoint_init>
10004eb6:	2001      	movs	r0, #1
10004eb8:	b003      	add	sp, #12
10004eba:	bd30      	pop	{r4, r5, pc}

10004ebc <hcd_edpt_xfer>:
10004ebc:	b5f0      	push	{r4, r5, r6, r7, lr}
10004ebe:	46ce      	mov	lr, r9
10004ec0:	b500      	push	{lr}
10004ec2:	b084      	sub	sp, #16
10004ec4:	0008      	movs	r0, r1
10004ec6:	9102      	str	r1, [sp, #8]
10004ec8:	0015      	movs	r5, r2
10004eca:	9303      	str	r3, [sp, #12]
10004ecc:	ab0a      	add	r3, sp, #40	; 0x28
10004ece:	881f      	ldrh	r7, [r3, #0]
10004ed0:	267f      	movs	r6, #127	; 0x7f
10004ed2:	4016      	ands	r6, r2
10004ed4:	09d3      	lsrs	r3, r2, #7
10004ed6:	4699      	mov	r9, r3
10004ed8:	0011      	movs	r1, r2
10004eda:	f7ff fd57 	bl	1000498c <get_dev_ep>
10004ede:	1e04      	subs	r4, r0, #0
10004ee0:	d01a      	beq.n	10004f18 <hcd_edpt_xfer+0x5c>
10004ee2:	7883      	ldrb	r3, [r0, #2]
10004ee4:	42ab      	cmp	r3, r5
10004ee6:	d00a      	beq.n	10004efe <hcd_edpt_xfer+0x42>
10004ee8:	2e00      	cmp	r6, #0
10004eea:	d11c      	bne.n	10004f26 <hcd_edpt_xfer+0x6a>
10004eec:	8b83      	ldrh	r3, [r0, #28]
10004eee:	2200      	movs	r2, #0
10004ef0:	9201      	str	r2, [sp, #4]
10004ef2:	7f82      	ldrb	r2, [r0, #30]
10004ef4:	9200      	str	r2, [sp, #0]
10004ef6:	002a      	movs	r2, r5
10004ef8:	9902      	ldr	r1, [sp, #8]
10004efa:	f7ff ff1b 	bl	10004d34 <_hw_endpoint_init>
10004efe:	4b1b      	ldr	r3, [pc, #108]	; (10004f6c <hcd_edpt_xfer+0xb0>)
10004f00:	429c      	cmp	r4, r3
10004f02:	d017      	beq.n	10004f34 <hcd_edpt_xfer+0x78>
10004f04:	003a      	movs	r2, r7
10004f06:	9903      	ldr	r1, [sp, #12]
10004f08:	0020      	movs	r0, r4
10004f0a:	f000 f995 	bl	10005238 <hw_endpoint_xfer_start>
10004f0e:	2001      	movs	r0, #1
10004f10:	b004      	add	sp, #16
10004f12:	bc04      	pop	{r2}
10004f14:	4691      	mov	r9, r2
10004f16:	bdf0      	pop	{r4, r5, r6, r7, pc}
10004f18:	21dc      	movs	r1, #220	; 0xdc
10004f1a:	4b15      	ldr	r3, [pc, #84]	; (10004f70 <hcd_edpt_xfer+0xb4>)
10004f1c:	4a15      	ldr	r2, [pc, #84]	; (10004f74 <hcd_edpt_xfer+0xb8>)
10004f1e:	31ff      	adds	r1, #255	; 0xff
10004f20:	4815      	ldr	r0, [pc, #84]	; (10004f78 <hcd_edpt_xfer+0xbc>)
10004f22:	f7fd f8a9 	bl	10002078 <__assert_func>
10004f26:	21f0      	movs	r1, #240	; 0xf0
10004f28:	4b14      	ldr	r3, [pc, #80]	; (10004f7c <hcd_edpt_xfer+0xc0>)
10004f2a:	4a12      	ldr	r2, [pc, #72]	; (10004f74 <hcd_edpt_xfer+0xb8>)
10004f2c:	0049      	lsls	r1, r1, #1
10004f2e:	4812      	ldr	r0, [pc, #72]	; (10004f78 <hcd_edpt_xfer+0xbc>)
10004f30:	f7fd f8a2 	bl	10002078 <__assert_func>
10004f34:	003a      	movs	r2, r7
10004f36:	9903      	ldr	r1, [sp, #12]
10004f38:	0020      	movs	r0, r4
10004f3a:	f000 f97d 	bl	10005238 <hw_endpoint_xfer_start>
10004f3e:	0433      	lsls	r3, r6, #16
10004f40:	9a02      	ldr	r2, [sp, #8]
10004f42:	4313      	orrs	r3, r2
10004f44:	4a0e      	ldr	r2, [pc, #56]	; (10004f80 <hcd_edpt_xfer+0xc4>)
10004f46:	6013      	str	r3, [r2, #0]
10004f48:	464b      	mov	r3, r9
10004f4a:	2b00      	cmp	r3, #0
10004f4c:	d00a      	beq.n	10004f64 <hcd_edpt_xfer+0xa8>
10004f4e:	4c0d      	ldr	r4, [pc, #52]	; (10004f84 <hcd_edpt_xfer+0xc8>)
10004f50:	9802      	ldr	r0, [sp, #8]
10004f52:	f7ff fee1 	bl	10004d18 <need_pre>
10004f56:	2800      	cmp	r0, #0
10004f58:	d006      	beq.n	10004f68 <hcd_edpt_xfer+0xac>
10004f5a:	2340      	movs	r3, #64	; 0x40
10004f5c:	4323      	orrs	r3, r4
10004f5e:	4a08      	ldr	r2, [pc, #32]	; (10004f80 <hcd_edpt_xfer+0xc4>)
10004f60:	64d3      	str	r3, [r2, #76]	; 0x4c
10004f62:	e7d4      	b.n	10004f0e <hcd_edpt_xfer+0x52>
10004f64:	4c08      	ldr	r4, [pc, #32]	; (10004f88 <hcd_edpt_xfer+0xcc>)
10004f66:	e7f3      	b.n	10004f50 <hcd_edpt_xfer+0x94>
10004f68:	2300      	movs	r3, #0
10004f6a:	e7f7      	b.n	10004f5c <hcd_edpt_xfer+0xa0>
10004f6c:	20001980 	.word	0x20001980
10004f70:	10009d5c 	.word	0x10009d5c
10004f74:	10009d3c 	.word	0x10009d3c
10004f78:	10009d60 	.word	0x10009d60
10004f7c:	10009e2c 	.word	0x10009e2c
10004f80:	50110000 	.word	0x50110000
10004f84:	20008609 	.word	0x20008609
10004f88:	20008605 	.word	0x20008605

10004f8c <hcd_setup_send>:
10004f8c:	b530      	push	{r4, r5, lr}
10004f8e:	b083      	sub	sp, #12
10004f90:	000d      	movs	r5, r1
10004f92:	0011      	movs	r1, r2
10004f94:	2208      	movs	r2, #8
10004f96:	4815      	ldr	r0, [pc, #84]	; (10004fec <hcd_setup_send+0x60>)
10004f98:	f7ff fab8 	bl	1000450c <__wrap___aeabi_memcpy>
10004f9c:	2000      	movs	r0, #0
10004f9e:	f7ff fd2d 	bl	100049fc <_hw_endpoint_allocate>
10004fa2:	0004      	movs	r4, r0
10004fa4:	8b83      	ldrh	r3, [r0, #28]
10004fa6:	2200      	movs	r2, #0
10004fa8:	9201      	str	r2, [sp, #4]
10004faa:	9200      	str	r2, [sp, #0]
10004fac:	0029      	movs	r1, r5
10004fae:	f7ff fec1 	bl	10004d34 <_hw_endpoint_init>
10004fb2:	7823      	ldrb	r3, [r4, #0]
10004fb4:	2b00      	cmp	r3, #0
10004fb6:	d010      	beq.n	10004fda <hcd_setup_send+0x4e>
10004fb8:	2308      	movs	r3, #8
10004fba:	8263      	strh	r3, [r4, #18]
10004fbc:	3b07      	subs	r3, #7
10004fbe:	7423      	strb	r3, [r4, #16]
10004fc0:	4b0b      	ldr	r3, [pc, #44]	; (10004ff0 <hcd_setup_send+0x64>)
10004fc2:	601d      	str	r5, [r3, #0]
10004fc4:	0028      	movs	r0, r5
10004fc6:	f7ff fea7 	bl	10004d18 <need_pre>
10004fca:	2800      	cmp	r0, #0
10004fcc:	d00b      	beq.n	10004fe6 <hcd_setup_send+0x5a>
10004fce:	4a09      	ldr	r2, [pc, #36]	; (10004ff4 <hcd_setup_send+0x68>)
10004fd0:	4b07      	ldr	r3, [pc, #28]	; (10004ff0 <hcd_setup_send+0x64>)
10004fd2:	64da      	str	r2, [r3, #76]	; 0x4c
10004fd4:	2001      	movs	r0, #1
10004fd6:	b003      	add	sp, #12
10004fd8:	bd30      	pop	{r4, r5, pc}
10004fda:	4b07      	ldr	r3, [pc, #28]	; (10004ff8 <hcd_setup_send+0x6c>)
10004fdc:	4a07      	ldr	r2, [pc, #28]	; (10004ffc <hcd_setup_send+0x70>)
10004fde:	4908      	ldr	r1, [pc, #32]	; (10005000 <hcd_setup_send+0x74>)
10004fe0:	4808      	ldr	r0, [pc, #32]	; (10005004 <hcd_setup_send+0x78>)
10004fe2:	f7fd f849 	bl	10002078 <__assert_func>
10004fe6:	4a08      	ldr	r2, [pc, #32]	; (10005008 <hcd_setup_send+0x7c>)
10004fe8:	e7f2      	b.n	10004fd0 <hcd_setup_send+0x44>
10004fea:	46c0      	nop			; (mov r8, r8)
10004fec:	50100000 	.word	0x50100000
10004ff0:	50110000 	.word	0x50110000
10004ff4:	20008643 	.word	0x20008643
10004ff8:	10009e7c 	.word	0x10009e7c
10004ffc:	10009d4c 	.word	0x10009d4c
10005000:	0000020a 	.word	0x0000020a
10005004:	10009d60 	.word	0x10009d60
10005008:	20008603 	.word	0x20008603

1000500c <prepare_ep_buffer>:
1000500c:	b5f8      	push	{r3, r4, r5, r6, r7, lr}
1000500e:	0004      	movs	r4, r0
10005010:	000f      	movs	r7, r1
10005012:	8a43      	ldrh	r3, [r0, #18]
10005014:	8b82      	ldrh	r2, [r0, #28]
10005016:	1c1e      	adds	r6, r3, #0
10005018:	4293      	cmp	r3, r2
1000501a:	d900      	bls.n	1000501e <prepare_ep_buffer+0x12>
1000501c:	1c16      	adds	r6, r2, #0
1000501e:	b2b6      	uxth	r6, r6
10005020:	1b9b      	subs	r3, r3, r6
10005022:	8263      	strh	r3, [r4, #18]
10005024:	2580      	movs	r5, #128	; 0x80
10005026:	00ed      	lsls	r5, r5, #3
10005028:	4335      	orrs	r5, r6
1000502a:	78e3      	ldrb	r3, [r4, #3]
1000502c:	2b00      	cmp	r3, #0
1000502e:	d013      	beq.n	10005058 <prepare_ep_buffer+0x4c>
10005030:	2280      	movs	r2, #128	; 0x80
10005032:	0192      	lsls	r2, r2, #6
10005034:	4315      	orrs	r5, r2
10005036:	2201      	movs	r2, #1
10005038:	4053      	eors	r3, r2
1000503a:	70e3      	strb	r3, [r4, #3]
1000503c:	7863      	ldrb	r3, [r4, #1]
1000503e:	2b00      	cmp	r3, #0
10005040:	d00c      	beq.n	1000505c <prepare_ep_buffer+0x50>
10005042:	8a63      	ldrh	r3, [r4, #18]
10005044:	2b00      	cmp	r3, #0
10005046:	d102      	bne.n	1000504e <prepare_ep_buffer+0x42>
10005048:	2380      	movs	r3, #128	; 0x80
1000504a:	01db      	lsls	r3, r3, #7
1000504c:	431d      	orrs	r5, r3
1000504e:	2f00      	cmp	r7, #0
10005050:	d000      	beq.n	10005054 <prepare_ep_buffer+0x48>
10005052:	042d      	lsls	r5, r5, #16
10005054:	0028      	movs	r0, r5
10005056:	bdf8      	pop	{r3, r4, r5, r6, r7, pc}
10005058:	2200      	movs	r2, #0
1000505a:	e7eb      	b.n	10005034 <prepare_ep_buffer+0x28>
1000505c:	01b8      	lsls	r0, r7, #6
1000505e:	68e3      	ldr	r3, [r4, #12]
10005060:	469c      	mov	ip, r3
10005062:	4460      	add	r0, ip
10005064:	0032      	movs	r2, r6
10005066:	69a1      	ldr	r1, [r4, #24]
10005068:	f7ff fa50 	bl	1000450c <__wrap___aeabi_memcpy>
1000506c:	69a3      	ldr	r3, [r4, #24]
1000506e:	469c      	mov	ip, r3
10005070:	4466      	add	r6, ip
10005072:	61a6      	str	r6, [r4, #24]
10005074:	2380      	movs	r3, #128	; 0x80
10005076:	021b      	lsls	r3, r3, #8
10005078:	431d      	orrs	r5, r3
1000507a:	e7e2      	b.n	10005042 <prepare_ep_buffer+0x36>

1000507c <sync_ep_buffer>:
1000507c:	b570      	push	{r4, r5, r6, lr}
1000507e:	0004      	movs	r4, r0
10005080:	6883      	ldr	r3, [r0, #8]
10005082:	681b      	ldr	r3, [r3, #0]
10005084:	2900      	cmp	r1, #0
10005086:	d000      	beq.n	1000508a <sync_ep_buffer+0xe>
10005088:	0c1b      	lsrs	r3, r3, #16
1000508a:	059d      	lsls	r5, r3, #22
1000508c:	0dad      	lsrs	r5, r5, #22
1000508e:	7862      	ldrb	r2, [r4, #1]
10005090:	2a00      	cmp	r2, #0
10005092:	d111      	bne.n	100050b8 <sync_ep_buffer+0x3c>
10005094:	041b      	lsls	r3, r3, #16
10005096:	d409      	bmi.n	100050ac <sync_ep_buffer+0x30>
10005098:	8aa3      	ldrh	r3, [r4, #20]
1000509a:	195b      	adds	r3, r3, r5
1000509c:	82a3      	strh	r3, [r4, #20]
1000509e:	8ba3      	ldrh	r3, [r4, #28]
100050a0:	42ab      	cmp	r3, r5
100050a2:	d901      	bls.n	100050a8 <sync_ep_buffer+0x2c>
100050a4:	2300      	movs	r3, #0
100050a6:	8263      	strh	r3, [r4, #18]
100050a8:	0028      	movs	r0, r5
100050aa:	bd70      	pop	{r4, r5, r6, pc}
100050ac:	4b0e      	ldr	r3, [pc, #56]	; (100050e8 <sync_ep_buffer+0x6c>)
100050ae:	4a0f      	ldr	r2, [pc, #60]	; (100050ec <sync_ep_buffer+0x70>)
100050b0:	21d7      	movs	r1, #215	; 0xd7
100050b2:	480f      	ldr	r0, [pc, #60]	; (100050f0 <sync_ep_buffer+0x74>)
100050b4:	f7fc ffe0 	bl	10002078 <__assert_func>
100050b8:	041b      	lsls	r3, r3, #16
100050ba:	d50e      	bpl.n	100050da <sync_ep_buffer+0x5e>
100050bc:	0189      	lsls	r1, r1, #6
100050be:	68e3      	ldr	r3, [r4, #12]
100050c0:	469c      	mov	ip, r3
100050c2:	4461      	add	r1, ip
100050c4:	002a      	movs	r2, r5
100050c6:	69a0      	ldr	r0, [r4, #24]
100050c8:	f7ff fa20 	bl	1000450c <__wrap___aeabi_memcpy>
100050cc:	8aa3      	ldrh	r3, [r4, #20]
100050ce:	195b      	adds	r3, r3, r5
100050d0:	82a3      	strh	r3, [r4, #20]
100050d2:	69a3      	ldr	r3, [r4, #24]
100050d4:	195b      	adds	r3, r3, r5
100050d6:	61a3      	str	r3, [r4, #24]
100050d8:	e7e1      	b.n	1000509e <sync_ep_buffer+0x22>
100050da:	4b06      	ldr	r3, [pc, #24]	; (100050f4 <sync_ep_buffer+0x78>)
100050dc:	4a03      	ldr	r2, [pc, #12]	; (100050ec <sync_ep_buffer+0x70>)
100050de:	21de      	movs	r1, #222	; 0xde
100050e0:	4803      	ldr	r0, [pc, #12]	; (100050f0 <sync_ep_buffer+0x74>)
100050e2:	f7fc ffc9 	bl	10002078 <__assert_func>
100050e6:	46c0      	nop			; (mov r8, r8)
100050e8:	10009f4c 	.word	0x10009f4c
100050ec:	10009eb0 	.word	0x10009eb0
100050f0:	10009f6c 	.word	0x10009f6c
100050f4:	10009fcc 	.word	0x10009fcc

100050f8 <_hw_endpoint_xfer_sync>:
100050f8:	b510      	push	{r4, lr}
100050fa:	0004      	movs	r4, r0
100050fc:	6883      	ldr	r3, [r0, #8]
100050fe:	681b      	ldr	r3, [r3, #0]
10005100:	2100      	movs	r1, #0
10005102:	f7ff ffbb 	bl	1000507c <sync_ep_buffer>
10005106:	6863      	ldr	r3, [r4, #4]
10005108:	681b      	ldr	r3, [r3, #0]
1000510a:	005b      	lsls	r3, r3, #1
1000510c:	d502      	bpl.n	10005114 <_hw_endpoint_xfer_sync+0x1c>
1000510e:	8ba3      	ldrh	r3, [r4, #28]
10005110:	4283      	cmp	r3, r0
10005112:	d000      	beq.n	10005116 <_hw_endpoint_xfer_sync+0x1e>
10005114:	bd10      	pop	{r4, pc}
10005116:	2101      	movs	r1, #1
10005118:	0020      	movs	r0, r4
1000511a:	f7ff ffaf 	bl	1000507c <sync_ep_buffer>
1000511e:	e7f9      	b.n	10005114 <_hw_endpoint_xfer_sync+0x1c>

10005120 <rp2040_usb_init>:
10005120:	b510      	push	{r4, lr}
10005122:	2380      	movs	r3, #128	; 0x80
10005124:	045b      	lsls	r3, r3, #17
10005126:	4a0c      	ldr	r2, [pc, #48]	; (10005158 <rp2040_usb_init+0x38>)
10005128:	6013      	str	r3, [r2, #0]
1000512a:	4a0c      	ldr	r2, [pc, #48]	; (1000515c <rp2040_usb_init+0x3c>)
1000512c:	6013      	str	r3, [r2, #0]
1000512e:	4b0c      	ldr	r3, [pc, #48]	; (10005160 <rp2040_usb_init+0x40>)
10005130:	689a      	ldr	r2, [r3, #8]
10005132:	2380      	movs	r3, #128	; 0x80
10005134:	045b      	lsls	r3, r3, #17
10005136:	4393      	bics	r3, r2
10005138:	d1f9      	bne.n	1000512e <rp2040_usb_init+0xe>
1000513a:	4c0a      	ldr	r4, [pc, #40]	; (10005164 <rp2040_usb_init+0x44>)
1000513c:	229c      	movs	r2, #156	; 0x9c
1000513e:	2100      	movs	r1, #0
10005140:	0020      	movs	r0, r4
10005142:	f7ff f9dd 	bl	10004500 <__wrap_memset>
10005146:	2280      	movs	r2, #128	; 0x80
10005148:	0152      	lsls	r2, r2, #5
1000514a:	2100      	movs	r1, #0
1000514c:	4806      	ldr	r0, [pc, #24]	; (10005168 <rp2040_usb_init+0x48>)
1000514e:	f7ff f9d7 	bl	10004500 <__wrap_memset>
10005152:	2309      	movs	r3, #9
10005154:	6763      	str	r3, [r4, #116]	; 0x74
10005156:	bd10      	pop	{r4, pc}
10005158:	4000e000 	.word	0x4000e000
1000515c:	4000f000 	.word	0x4000f000
10005160:	4000c000 	.word	0x4000c000
10005164:	50110000 	.word	0x50110000
10005168:	50100000 	.word	0x50100000

1000516c <hw_endpoint_reset_transfer>:
1000516c:	2300      	movs	r3, #0
1000516e:	7403      	strb	r3, [r0, #16]
10005170:	8243      	strh	r3, [r0, #18]
10005172:	8283      	strh	r3, [r0, #20]
10005174:	6183      	str	r3, [r0, #24]
10005176:	4770      	bx	lr

10005178 <_hw_endpoint_buffer_control_update32>:
10005178:	b510      	push	{r4, lr}
1000517a:	2900      	cmp	r1, #0
1000517c:	d002      	beq.n	10005184 <_hw_endpoint_buffer_control_update32+0xc>
1000517e:	6883      	ldr	r3, [r0, #8]
10005180:	681b      	ldr	r3, [r3, #0]
10005182:	4019      	ands	r1, r3
10005184:	2a00      	cmp	r2, #0
10005186:	d009      	beq.n	1000519c <_hw_endpoint_buffer_control_update32+0x24>
10005188:	4311      	orrs	r1, r2
1000518a:	0553      	lsls	r3, r2, #21
1000518c:	d506      	bpl.n	1000519c <_hw_endpoint_buffer_control_update32+0x24>
1000518e:	6882      	ldr	r2, [r0, #8]
10005190:	6813      	ldr	r3, [r2, #0]
10005192:	055b      	lsls	r3, r3, #21
10005194:	d405      	bmi.n	100051a2 <_hw_endpoint_buffer_control_update32+0x2a>
10005196:	4b08      	ldr	r3, [pc, #32]	; (100051b8 <_hw_endpoint_buffer_control_update32+0x40>)
10005198:	400b      	ands	r3, r1
1000519a:	6013      	str	r3, [r2, #0]
1000519c:	6883      	ldr	r3, [r0, #8]
1000519e:	6019      	str	r1, [r3, #0]
100051a0:	bd10      	pop	{r4, pc}
100051a2:	7883      	ldrb	r3, [r0, #2]
100051a4:	217f      	movs	r1, #127	; 0x7f
100051a6:	4019      	ands	r1, r3
100051a8:	09db      	lsrs	r3, r3, #7
100051aa:	009b      	lsls	r3, r3, #2
100051ac:	4a03      	ldr	r2, [pc, #12]	; (100051bc <_hw_endpoint_buffer_control_update32+0x44>)
100051ae:	589a      	ldr	r2, [r3, r2]
100051b0:	4803      	ldr	r0, [pc, #12]	; (100051c0 <_hw_endpoint_buffer_control_update32+0x48>)
100051b2:	f7fc fffb 	bl	100021ac <panic>
100051b6:	46c0      	nop			; (mov r8, r8)
100051b8:	fffffbff 	.word	0xfffffbff
100051bc:	20000374 	.word	0x20000374
100051c0:	10009ec0 	.word	0x10009ec0

100051c4 <_hw_endpoint_start_next_buffer>:
100051c4:	b570      	push	{r4, r5, r6, lr}
100051c6:	0004      	movs	r4, r0
100051c8:	6843      	ldr	r3, [r0, #4]
100051ca:	681e      	ldr	r6, [r3, #0]
100051cc:	2100      	movs	r1, #0
100051ce:	f7ff ff1d 	bl	1000500c <prepare_ep_buffer>
100051d2:	2580      	movs	r5, #128	; 0x80
100051d4:	016d      	lsls	r5, r5, #5
100051d6:	4305      	orrs	r5, r0
100051d8:	4b14      	ldr	r3, [pc, #80]	; (1000522c <_hw_endpoint_start_next_buffer+0x68>)
100051da:	6c1b      	ldr	r3, [r3, #64]	; 0x40
100051dc:	079b      	lsls	r3, r3, #30
100051de:	d404      	bmi.n	100051ea <_hw_endpoint_start_next_buffer+0x26>
100051e0:	78a3      	ldrb	r3, [r4, #2]
100051e2:	09db      	lsrs	r3, r3, #7
100051e4:	d114      	bne.n	10005210 <_hw_endpoint_start_next_buffer+0x4c>
100051e6:	3301      	adds	r3, #1
100051e8:	e000      	b.n	100051ec <_hw_endpoint_start_next_buffer+0x28>
100051ea:	2300      	movs	r3, #0
100051ec:	8a62      	ldrh	r2, [r4, #18]
100051ee:	2a00      	cmp	r2, #0
100051f0:	d001      	beq.n	100051f6 <_hw_endpoint_start_next_buffer+0x32>
100051f2:	2b00      	cmp	r3, #0
100051f4:	d00e      	beq.n	10005214 <_hw_endpoint_start_next_buffer+0x50>
100051f6:	4b0e      	ldr	r3, [pc, #56]	; (10005230 <_hw_endpoint_start_next_buffer+0x6c>)
100051f8:	401e      	ands	r6, r3
100051fa:	2380      	movs	r3, #128	; 0x80
100051fc:	059b      	lsls	r3, r3, #22
100051fe:	4333      	orrs	r3, r6
10005200:	6862      	ldr	r2, [r4, #4]
10005202:	6013      	str	r3, [r2, #0]
10005204:	002a      	movs	r2, r5
10005206:	2100      	movs	r1, #0
10005208:	0020      	movs	r0, r4
1000520a:	f7ff ffb5 	bl	10005178 <_hw_endpoint_buffer_control_update32>
1000520e:	bd70      	pop	{r4, r5, r6, pc}
10005210:	2300      	movs	r3, #0
10005212:	e7eb      	b.n	100051ec <_hw_endpoint_start_next_buffer+0x28>
10005214:	2101      	movs	r1, #1
10005216:	0020      	movs	r0, r4
10005218:	f7ff fef8 	bl	1000500c <prepare_ep_buffer>
1000521c:	4305      	orrs	r5, r0
1000521e:	4b05      	ldr	r3, [pc, #20]	; (10005234 <_hw_endpoint_start_next_buffer+0x70>)
10005220:	401e      	ands	r6, r3
10005222:	23a0      	movs	r3, #160	; 0xa0
10005224:	05db      	lsls	r3, r3, #23
10005226:	4333      	orrs	r3, r6
10005228:	e7ea      	b.n	10005200 <_hw_endpoint_start_next_buffer+0x3c>
1000522a:	46c0      	nop			; (mov r8, r8)
1000522c:	50110000 	.word	0x50110000
10005230:	afffffff 	.word	0xafffffff
10005234:	dfffffff 	.word	0xdfffffff

10005238 <hw_endpoint_xfer_start>:
10005238:	b570      	push	{r4, r5, r6, lr}
1000523a:	0004      	movs	r4, r0
1000523c:	000d      	movs	r5, r1
1000523e:	0016      	movs	r6, r2
10005240:	7c03      	ldrb	r3, [r0, #16]
10005242:	2b00      	cmp	r3, #0
10005244:	d109      	bne.n	1000525a <hw_endpoint_xfer_start+0x22>
10005246:	8266      	strh	r6, [r4, #18]
10005248:	2300      	movs	r3, #0
1000524a:	82a3      	strh	r3, [r4, #20]
1000524c:	3301      	adds	r3, #1
1000524e:	7423      	strb	r3, [r4, #16]
10005250:	61a5      	str	r5, [r4, #24]
10005252:	0020      	movs	r0, r4
10005254:	f7ff ffb6 	bl	100051c4 <_hw_endpoint_start_next_buffer>
10005258:	bd70      	pop	{r4, r5, r6, pc}
1000525a:	7883      	ldrb	r3, [r0, #2]
1000525c:	217f      	movs	r1, #127	; 0x7f
1000525e:	4019      	ands	r1, r3
10005260:	09db      	lsrs	r3, r3, #7
10005262:	009b      	lsls	r3, r3, #2
10005264:	4a04      	ldr	r2, [pc, #16]	; (10005278 <hw_endpoint_xfer_start+0x40>)
10005266:	589a      	ldr	r2, [r3, r2]
10005268:	4804      	ldr	r0, [pc, #16]	; (1000527c <hw_endpoint_xfer_start+0x44>)
1000526a:	f7ff fb01 	bl	10004870 <__wrap_printf>
1000526e:	0020      	movs	r0, r4
10005270:	f7ff ff7c 	bl	1000516c <hw_endpoint_reset_transfer>
10005274:	e7e7      	b.n	10005246 <hw_endpoint_xfer_start+0xe>
10005276:	46c0      	nop			; (mov r8, r8)
10005278:	20000374 	.word	0x20000374
1000527c:	10009f0c 	.word	0x10009f0c

10005280 <hw_endpoint_xfer_continue>:
10005280:	b570      	push	{r4, r5, r6, lr}
10005282:	0004      	movs	r4, r0
10005284:	7c05      	ldrb	r5, [r0, #16]
10005286:	2d00      	cmp	r5, #0
10005288:	d006      	beq.n	10005298 <hw_endpoint_xfer_continue+0x18>
1000528a:	f7ff ff35 	bl	100050f8 <_hw_endpoint_xfer_sync>
1000528e:	8a63      	ldrh	r3, [r4, #18]
10005290:	2b00      	cmp	r3, #0
10005292:	d108      	bne.n	100052a6 <hw_endpoint_xfer_continue+0x26>
10005294:	0028      	movs	r0, r5
10005296:	bd70      	pop	{r4, r5, r6, pc}
10005298:	7881      	ldrb	r1, [r0, #2]
1000529a:	237f      	movs	r3, #127	; 0x7f
1000529c:	4019      	ands	r1, r3
1000529e:	4a04      	ldr	r2, [pc, #16]	; (100052b0 <hw_endpoint_xfer_continue+0x30>)
100052a0:	4804      	ldr	r0, [pc, #16]	; (100052b4 <hw_endpoint_xfer_continue+0x34>)
100052a2:	f7fc ff83 	bl	100021ac <panic>
100052a6:	0020      	movs	r0, r4
100052a8:	f7ff ff8c 	bl	100051c4 <_hw_endpoint_start_next_buffer>
100052ac:	2500      	movs	r5, #0
100052ae:	e7f1      	b.n	10005294 <hw_endpoint_xfer_continue+0x14>
100052b0:	20000374 	.word	0x20000374
100052b4:	10009ee0 	.word	0x10009ee0

100052b8 <get_new_address>:
100052b8:	b530      	push	{r4, r5, lr}
100052ba:	2800      	cmp	r0, #0
100052bc:	d014      	beq.n	100052e8 <get_new_address+0x30>
100052be:	2505      	movs	r5, #5
100052c0:	2800      	cmp	r0, #0
100052c2:	d013      	beq.n	100052ec <get_new_address+0x34>
100052c4:	2401      	movs	r4, #1
100052c6:	2300      	movs	r3, #0
100052c8:	42a3      	cmp	r3, r4
100052ca:	d211      	bcs.n	100052f0 <get_new_address+0x38>
100052cc:	1958      	adds	r0, r3, r5
100052ce:	b2c0      	uxtb	r0, r0
100052d0:	1e42      	subs	r2, r0, #1
100052d2:	0091      	lsls	r1, r2, #2
100052d4:	1889      	adds	r1, r1, r2
100052d6:	010a      	lsls	r2, r1, #4
100052d8:	4906      	ldr	r1, [pc, #24]	; (100052f4 <get_new_address+0x3c>)
100052da:	1852      	adds	r2, r2, r1
100052dc:	7b52      	ldrb	r2, [r2, #13]
100052de:	2a00      	cmp	r2, #0
100052e0:	d007      	beq.n	100052f2 <get_new_address+0x3a>
100052e2:	3301      	adds	r3, #1
100052e4:	b2db      	uxtb	r3, r3
100052e6:	e7ef      	b.n	100052c8 <get_new_address+0x10>
100052e8:	2501      	movs	r5, #1
100052ea:	e7e9      	b.n	100052c0 <get_new_address+0x8>
100052ec:	2404      	movs	r4, #4
100052ee:	e7ea      	b.n	100052c6 <get_new_address+0xe>
100052f0:	20ff      	movs	r0, #255	; 0xff
100052f2:	bd30      	pop	{r4, r5, pc}
100052f4:	20001f84 	.word	0x20001f84

100052f8 <enum_hub_get_status0_complete>:
100052f8:	b500      	push	{lr}
100052fa:	b083      	sub	sp, #12
100052fc:	2a00      	cmp	r2, #0
100052fe:	d10c      	bne.n	1000531a <enum_hub_get_status0_complete+0x22>
10005300:	4b14      	ldr	r3, [pc, #80]	; (10005354 <enum_hub_get_status0_complete+0x5c>)
10005302:	681b      	ldr	r3, [r3, #0]
10005304:	9301      	str	r3, [sp, #4]
10005306:	07db      	lsls	r3, r3, #31
10005308:	d50e      	bpl.n	10005328 <enum_hub_get_status0_complete+0x30>
1000530a:	ab01      	add	r3, sp, #4
1000530c:	785b      	ldrb	r3, [r3, #1]
1000530e:	075a      	lsls	r2, r3, #29
10005310:	d40d      	bmi.n	1000532e <enum_hub_get_status0_complete+0x36>
10005312:	085b      	lsrs	r3, r3, #1
10005314:	2201      	movs	r2, #1
10005316:	4013      	ands	r3, r2
10005318:	e00a      	b.n	10005330 <enum_hub_get_status0_complete+0x38>
1000531a:	4a0f      	ldr	r2, [pc, #60]	; (10005358 <enum_hub_get_status0_complete+0x60>)
1000531c:	490f      	ldr	r1, [pc, #60]	; (1000535c <enum_hub_get_status0_complete+0x64>)
1000531e:	4810      	ldr	r0, [pc, #64]	; (10005360 <enum_hub_get_status0_complete+0x68>)
10005320:	f7ff faa6 	bl	10004870 <__wrap_printf>
10005324:	2000      	movs	r0, #0
10005326:	e00a      	b.n	1000533e <enum_hub_get_status0_complete+0x46>
10005328:	f001 f944 	bl	100065b4 <hub_status_pipe_queue>
1000532c:	e007      	b.n	1000533e <enum_hub_get_status0_complete+0x46>
1000532e:	2302      	movs	r3, #2
10005330:	4a0c      	ldr	r2, [pc, #48]	; (10005364 <enum_hub_get_status0_complete+0x6c>)
10005332:	70d3      	strb	r3, [r2, #3]
10005334:	ab01      	add	r3, sp, #4
10005336:	789b      	ldrb	r3, [r3, #2]
10005338:	06db      	lsls	r3, r3, #27
1000533a:	d402      	bmi.n	10005342 <enum_hub_get_status0_complete+0x4a>
1000533c:	2001      	movs	r0, #1
1000533e:	b003      	add	sp, #12
10005340:	bd00      	pop	{pc}
10005342:	7891      	ldrb	r1, [r2, #2]
10005344:	7850      	ldrb	r0, [r2, #1]
10005346:	4b08      	ldr	r3, [pc, #32]	; (10005368 <enum_hub_get_status0_complete+0x70>)
10005348:	2214      	movs	r2, #20
1000534a:	f000 ffb5 	bl	100062b8 <hub_port_clear_feature>
1000534e:	2001      	movs	r0, #1
10005350:	e7f5      	b.n	1000533e <enum_hub_get_status0_complete+0x46>
10005352:	46c0      	nop			; (mov r8, r8)
10005354:	200017e4 	.word	0x200017e4
10005358:	0000028a 	.word	0x0000028a
1000535c:	1000a0a0 	.word	0x1000a0a0
10005360:	1000a208 	.word	0x1000a208
10005364:	20000d64 	.word	0x20000d64
10005368:	10005cf1 	.word	0x10005cf1

1000536c <enum_hub_get_status1_complete>:
1000536c:	b510      	push	{r4, lr}
1000536e:	b082      	sub	sp, #8
10005370:	2a00      	cmp	r2, #0
10005372:	d107      	bne.n	10005384 <enum_hub_get_status1_complete+0x18>
10005374:	4b0e      	ldr	r3, [pc, #56]	; (100053b0 <enum_hub_get_status1_complete+0x44>)
10005376:	789b      	ldrb	r3, [r3, #2]
10005378:	06db      	lsls	r3, r3, #27
1000537a:	d40a      	bmi.n	10005392 <enum_hub_get_status1_complete+0x26>
1000537c:	2401      	movs	r4, #1
1000537e:	0020      	movs	r0, r4
10005380:	b002      	add	sp, #8
10005382:	bd10      	pop	{r4, pc}
10005384:	4a0b      	ldr	r2, [pc, #44]	; (100053b4 <enum_hub_get_status1_complete+0x48>)
10005386:	490c      	ldr	r1, [pc, #48]	; (100053b8 <enum_hub_get_status1_complete+0x4c>)
10005388:	480c      	ldr	r0, [pc, #48]	; (100053bc <enum_hub_get_status1_complete+0x50>)
1000538a:	f7ff fa71 	bl	10004870 <__wrap_printf>
1000538e:	2400      	movs	r4, #0
10005390:	e7f5      	b.n	1000537e <enum_hub_get_status1_complete+0x12>
10005392:	4b0b      	ldr	r3, [pc, #44]	; (100053c0 <enum_hub_get_status1_complete+0x54>)
10005394:	7899      	ldrb	r1, [r3, #2]
10005396:	7858      	ldrb	r0, [r3, #1]
10005398:	4b0a      	ldr	r3, [pc, #40]	; (100053c4 <enum_hub_get_status1_complete+0x58>)
1000539a:	2214      	movs	r2, #20
1000539c:	f000 ff8c 	bl	100062b8 <hub_port_clear_feature>
100053a0:	1e04      	subs	r4, r0, #0
100053a2:	d1ec      	bne.n	1000537e <enum_hub_get_status1_complete+0x12>
100053a4:	4a08      	ldr	r2, [pc, #32]	; (100053c8 <enum_hub_get_status1_complete+0x5c>)
100053a6:	4904      	ldr	r1, [pc, #16]	; (100053b8 <enum_hub_get_status1_complete+0x4c>)
100053a8:	4804      	ldr	r0, [pc, #16]	; (100053bc <enum_hub_get_status1_complete+0x50>)
100053aa:	f7ff fa61 	bl	10004870 <__wrap_printf>
100053ae:	e7e6      	b.n	1000537e <enum_hub_get_status1_complete+0x12>
100053b0:	200017e4 	.word	0x200017e4
100053b4:	00000279 	.word	0x00000279
100053b8:	1000a080 	.word	0x1000a080
100053bc:	1000a208 	.word	0x1000a208
100053c0:	20000d64 	.word	0x20000d64
100053c4:	10005499 	.word	0x10005499
100053c8:	00000281 	.word	0x00000281

100053cc <enum_request_set_addr>:
100053cc:	b510      	push	{r4, lr}
100053ce:	b082      	sub	sp, #8
100053d0:	4b29      	ldr	r3, [pc, #164]	; (10005478 <enum_request_set_addr+0xac>)
100053d2:	7918      	ldrb	r0, [r3, #4]
100053d4:	3809      	subs	r0, #9
100053d6:	4243      	negs	r3, r0
100053d8:	4158      	adcs	r0, r3
100053da:	b2c0      	uxtb	r0, r0
100053dc:	f7ff ff6c 	bl	100052b8 <get_new_address>
100053e0:	0004      	movs	r4, r0
100053e2:	28ff      	cmp	r0, #255	; 0xff
100053e4:	d032      	beq.n	1000544c <enum_request_set_addr+0x80>
100053e6:	2800      	cmp	r0, #0
100053e8:	d037      	beq.n	1000545a <enum_request_set_addr+0x8e>
100053ea:	1e42      	subs	r2, r0, #1
100053ec:	0093      	lsls	r3, r2, #2
100053ee:	189b      	adds	r3, r3, r2
100053f0:	011b      	lsls	r3, r3, #4
100053f2:	4a22      	ldr	r2, [pc, #136]	; (1000547c <enum_request_set_addr+0xb0>)
100053f4:	189b      	adds	r3, r3, r2
100053f6:	4a22      	ldr	r2, [pc, #136]	; (10005480 <enum_request_set_addr+0xb4>)
100053f8:	7811      	ldrb	r1, [r2, #0]
100053fa:	7019      	strb	r1, [r3, #0]
100053fc:	7851      	ldrb	r1, [r2, #1]
100053fe:	7059      	strb	r1, [r3, #1]
10005400:	7891      	ldrb	r1, [r2, #2]
10005402:	7099      	strb	r1, [r3, #2]
10005404:	78d2      	ldrb	r2, [r2, #3]
10005406:	70da      	strb	r2, [r3, #3]
10005408:	7b1a      	ldrb	r2, [r3, #12]
1000540a:	2101      	movs	r1, #1
1000540c:	430a      	orrs	r2, r1
1000540e:	731a      	strb	r2, [r3, #12]
10005410:	4a19      	ldr	r2, [pc, #100]	; (10005478 <enum_request_set_addr+0xac>)
10005412:	79d2      	ldrb	r2, [r2, #7]
10005414:	721a      	strb	r2, [r3, #8]
10005416:	466b      	mov	r3, sp
10005418:	781b      	ldrb	r3, [r3, #0]
1000541a:	221f      	movs	r2, #31
1000541c:	4393      	bics	r3, r2
1000541e:	3241      	adds	r2, #65	; 0x41
10005420:	4393      	bics	r3, r2
10005422:	321f      	adds	r2, #31
10005424:	4013      	ands	r3, r2
10005426:	466a      	mov	r2, sp
10005428:	7013      	strb	r3, [r2, #0]
1000542a:	2305      	movs	r3, #5
1000542c:	7053      	strb	r3, [r2, #1]
1000542e:	8054      	strh	r4, [r2, #2]
10005430:	2300      	movs	r3, #0
10005432:	8093      	strh	r3, [r2, #4]
10005434:	80d3      	strh	r3, [r2, #6]
10005436:	4b13      	ldr	r3, [pc, #76]	; (10005484 <enum_request_set_addr+0xb8>)
10005438:	2200      	movs	r2, #0
1000543a:	4669      	mov	r1, sp
1000543c:	2000      	movs	r0, #0
1000543e:	f000 fea3 	bl	10006188 <tuh_control_xfer>
10005442:	1e04      	subs	r4, r0, #0
10005444:	d010      	beq.n	10005468 <enum_request_set_addr+0x9c>
10005446:	0020      	movs	r0, r4
10005448:	b002      	add	sp, #8
1000544a:	bd10      	pop	{r4, pc}
1000544c:	4a0e      	ldr	r2, [pc, #56]	; (10005488 <enum_request_set_addr+0xbc>)
1000544e:	490f      	ldr	r1, [pc, #60]	; (1000548c <enum_request_set_addr+0xc0>)
10005450:	480f      	ldr	r0, [pc, #60]	; (10005490 <enum_request_set_addr+0xc4>)
10005452:	f7ff fa0d 	bl	10004870 <__wrap_printf>
10005456:	2400      	movs	r4, #0
10005458:	e7f5      	b.n	10005446 <enum_request_set_addr+0x7a>
1000545a:	22dc      	movs	r2, #220	; 0xdc
1000545c:	490d      	ldr	r1, [pc, #52]	; (10005494 <enum_request_set_addr+0xc8>)
1000545e:	480c      	ldr	r0, [pc, #48]	; (10005490 <enum_request_set_addr+0xc4>)
10005460:	f7ff fa06 	bl	10004870 <__wrap_printf>
10005464:	2300      	movs	r3, #0
10005466:	e7c6      	b.n	100053f6 <enum_request_set_addr+0x2a>
10005468:	22cb      	movs	r2, #203	; 0xcb
1000546a:	0092      	lsls	r2, r2, #2
1000546c:	4907      	ldr	r1, [pc, #28]	; (1000548c <enum_request_set_addr+0xc0>)
1000546e:	4808      	ldr	r0, [pc, #32]	; (10005490 <enum_request_set_addr+0xc4>)
10005470:	f7ff f9fe 	bl	10004870 <__wrap_printf>
10005474:	e7e7      	b.n	10005446 <enum_request_set_addr+0x7a>
10005476:	46c0      	nop			; (mov r8, r8)
10005478:	200017e4 	.word	0x200017e4
1000547c:	20001f84 	.word	0x20001f84
10005480:	20000d64 	.word	0x20000d64
10005484:	10005d19 	.word	0x10005d19
10005488:	00000311 	.word	0x00000311
1000548c:	1000a114 	.word	0x1000a114
10005490:	1000a208 	.word	0x1000a208
10005494:	1000a01c 	.word	0x1000a01c

10005498 <enum_hub_clear_reset1_complete>:
10005498:	b510      	push	{r4, lr}
1000549a:	2a00      	cmp	r2, #0
1000549c:	d107      	bne.n	100054ae <enum_hub_clear_reset1_complete+0x16>
1000549e:	f7ff ff95 	bl	100053cc <enum_request_set_addr>
100054a2:	4b07      	ldr	r3, [pc, #28]	; (100054c0 <enum_hub_clear_reset1_complete+0x28>)
100054a4:	7858      	ldrb	r0, [r3, #1]
100054a6:	f001 f885 	bl	100065b4 <hub_status_pipe_queue>
100054aa:	2001      	movs	r0, #1
100054ac:	bd10      	pop	{r4, pc}
100054ae:	229b      	movs	r2, #155	; 0x9b
100054b0:	0092      	lsls	r2, r2, #2
100054b2:	4904      	ldr	r1, [pc, #16]	; (100054c4 <enum_hub_clear_reset1_complete+0x2c>)
100054b4:	4804      	ldr	r0, [pc, #16]	; (100054c8 <enum_hub_clear_reset1_complete+0x30>)
100054b6:	f7ff f9db 	bl	10004870 <__wrap_printf>
100054ba:	2000      	movs	r0, #0
100054bc:	e7f6      	b.n	100054ac <enum_hub_clear_reset1_complete+0x14>
100054be:	46c0      	nop			; (mov r8, r8)
100054c0:	20000d64 	.word	0x20000d64
100054c4:	1000a060 	.word	0x1000a060
100054c8:	1000a208 	.word	0x1000a208

100054cc <enum_get_device_desc_complete>:
100054cc:	b570      	push	{r4, r5, r6, lr}
100054ce:	b082      	sub	sp, #8
100054d0:	0004      	movs	r4, r0
100054d2:	2a00      	cmp	r2, #0
100054d4:	d120      	bne.n	10005518 <enum_get_device_desc_complete+0x4c>
100054d6:	2800      	cmp	r0, #0
100054d8:	d025      	beq.n	10005526 <enum_get_device_desc_complete+0x5a>
100054da:	1e43      	subs	r3, r0, #1
100054dc:	009a      	lsls	r2, r3, #2
100054de:	18d2      	adds	r2, r2, r3
100054e0:	0113      	lsls	r3, r2, #4
100054e2:	4a17      	ldr	r2, [pc, #92]	; (10005540 <enum_get_device_desc_complete+0x74>)
100054e4:	189b      	adds	r3, r3, r2
100054e6:	4a17      	ldr	r2, [pc, #92]	; (10005544 <enum_get_device_desc_complete+0x78>)
100054e8:	8911      	ldrh	r1, [r2, #8]
100054ea:	8099      	strh	r1, [r3, #4]
100054ec:	8951      	ldrh	r1, [r2, #10]
100054ee:	80d9      	strh	r1, [r3, #6]
100054f0:	7b91      	ldrb	r1, [r2, #14]
100054f2:	7259      	strb	r1, [r3, #9]
100054f4:	7bd1      	ldrb	r1, [r2, #15]
100054f6:	7299      	strb	r1, [r3, #10]
100054f8:	7c11      	ldrb	r1, [r2, #16]
100054fa:	72d9      	strb	r1, [r3, #11]
100054fc:	4669      	mov	r1, sp
100054fe:	4b12      	ldr	r3, [pc, #72]	; (10005548 <enum_get_device_desc_complete+0x7c>)
10005500:	0008      	movs	r0, r1
10005502:	cb60      	ldmia	r3!, {r5, r6}
10005504:	c060      	stmia	r0!, {r5, r6}
10005506:	4b11      	ldr	r3, [pc, #68]	; (1000554c <enum_get_device_desc_complete+0x80>)
10005508:	0020      	movs	r0, r4
1000550a:	f000 fe3d 	bl	10006188 <tuh_control_xfer>
1000550e:	1e04      	subs	r4, r0, #0
10005510:	d010      	beq.n	10005534 <enum_get_device_desc_complete+0x68>
10005512:	0020      	movs	r0, r4
10005514:	b002      	add	sp, #8
10005516:	bd70      	pop	{r4, r5, r6, pc}
10005518:	4a0d      	ldr	r2, [pc, #52]	; (10005550 <enum_get_device_desc_complete+0x84>)
1000551a:	490e      	ldr	r1, [pc, #56]	; (10005554 <enum_get_device_desc_complete+0x88>)
1000551c:	480e      	ldr	r0, [pc, #56]	; (10005558 <enum_get_device_desc_complete+0x8c>)
1000551e:	f7ff f9a7 	bl	10004870 <__wrap_printf>
10005522:	2400      	movs	r4, #0
10005524:	e7f5      	b.n	10005512 <enum_get_device_desc_complete+0x46>
10005526:	22dc      	movs	r2, #220	; 0xdc
10005528:	490c      	ldr	r1, [pc, #48]	; (1000555c <enum_get_device_desc_complete+0x90>)
1000552a:	480b      	ldr	r0, [pc, #44]	; (10005558 <enum_get_device_desc_complete+0x8c>)
1000552c:	f7ff f9a0 	bl	10004870 <__wrap_printf>
10005530:	2300      	movs	r3, #0
10005532:	e7d8      	b.n	100054e6 <enum_get_device_desc_complete+0x1a>
10005534:	4a0a      	ldr	r2, [pc, #40]	; (10005560 <enum_get_device_desc_complete+0x94>)
10005536:	4907      	ldr	r1, [pc, #28]	; (10005554 <enum_get_device_desc_complete+0x88>)
10005538:	4807      	ldr	r0, [pc, #28]	; (10005558 <enum_get_device_desc_complete+0x8c>)
1000553a:	f7ff f999 	bl	10004870 <__wrap_printf>
1000553e:	e7e8      	b.n	10005512 <enum_get_device_desc_complete+0x46>
10005540:	20001f84 	.word	0x20001f84
10005544:	200017e4 	.word	0x200017e4
10005548:	10009fec 	.word	0x10009fec
1000554c:	10005565 	.word	0x10005565
10005550:	0000035a 	.word	0x0000035a
10005554:	1000a148 	.word	0x1000a148
10005558:	1000a208 	.word	0x1000a208
1000555c:	1000a01c 	.word	0x1000a01c
10005560:	00000376 	.word	0x00000376

10005564 <enum_get_9byte_config_desc_complete>:
10005564:	b510      	push	{r4, lr}
10005566:	b082      	sub	sp, #8
10005568:	2a00      	cmp	r2, #0
1000556a:	d120      	bne.n	100055ae <enum_get_9byte_config_desc_complete+0x4a>
1000556c:	4b1a      	ldr	r3, [pc, #104]	; (100055d8 <enum_get_9byte_config_desc_complete+0x74>)
1000556e:	885a      	ldrh	r2, [r3, #2]
10005570:	2380      	movs	r3, #128	; 0x80
10005572:	005b      	lsls	r3, r3, #1
10005574:	429a      	cmp	r2, r3
10005576:	d821      	bhi.n	100055bc <enum_get_9byte_config_desc_complete+0x58>
10005578:	466b      	mov	r3, sp
1000557a:	781b      	ldrb	r3, [r3, #0]
1000557c:	211f      	movs	r1, #31
1000557e:	438b      	bics	r3, r1
10005580:	3141      	adds	r1, #65	; 0x41
10005582:	438b      	bics	r3, r1
10005584:	39e0      	subs	r1, #224	; 0xe0
10005586:	430b      	orrs	r3, r1
10005588:	4669      	mov	r1, sp
1000558a:	700b      	strb	r3, [r1, #0]
1000558c:	2306      	movs	r3, #6
1000558e:	704b      	strb	r3, [r1, #1]
10005590:	33fb      	adds	r3, #251	; 0xfb
10005592:	33ff      	adds	r3, #255	; 0xff
10005594:	804b      	strh	r3, [r1, #2]
10005596:	2300      	movs	r3, #0
10005598:	808b      	strh	r3, [r1, #4]
1000559a:	80ca      	strh	r2, [r1, #6]
1000559c:	4b0f      	ldr	r3, [pc, #60]	; (100055dc <enum_get_9byte_config_desc_complete+0x78>)
1000559e:	4a0e      	ldr	r2, [pc, #56]	; (100055d8 <enum_get_9byte_config_desc_complete+0x74>)
100055a0:	f000 fdf2 	bl	10006188 <tuh_control_xfer>
100055a4:	1e04      	subs	r4, r0, #0
100055a6:	d010      	beq.n	100055ca <enum_get_9byte_config_desc_complete+0x66>
100055a8:	0020      	movs	r0, r4
100055aa:	b002      	add	sp, #8
100055ac:	bd10      	pop	{r4, pc}
100055ae:	4a0c      	ldr	r2, [pc, #48]	; (100055e0 <enum_get_9byte_config_desc_complete+0x7c>)
100055b0:	490c      	ldr	r1, [pc, #48]	; (100055e4 <enum_get_9byte_config_desc_complete+0x80>)
100055b2:	480d      	ldr	r0, [pc, #52]	; (100055e8 <enum_get_9byte_config_desc_complete+0x84>)
100055b4:	f7ff f95c 	bl	10004870 <__wrap_printf>
100055b8:	2400      	movs	r4, #0
100055ba:	e7f5      	b.n	100055a8 <enum_get_9byte_config_desc_complete+0x44>
100055bc:	4a0b      	ldr	r2, [pc, #44]	; (100055ec <enum_get_9byte_config_desc_complete+0x88>)
100055be:	4909      	ldr	r1, [pc, #36]	; (100055e4 <enum_get_9byte_config_desc_complete+0x80>)
100055c0:	4809      	ldr	r0, [pc, #36]	; (100055e8 <enum_get_9byte_config_desc_complete+0x84>)
100055c2:	f7ff f955 	bl	10004870 <__wrap_printf>
100055c6:	2400      	movs	r4, #0
100055c8:	e7ee      	b.n	100055a8 <enum_get_9byte_config_desc_complete+0x44>
100055ca:	4a09      	ldr	r2, [pc, #36]	; (100055f0 <enum_get_9byte_config_desc_complete+0x8c>)
100055cc:	4905      	ldr	r1, [pc, #20]	; (100055e4 <enum_get_9byte_config_desc_complete+0x80>)
100055ce:	4806      	ldr	r0, [pc, #24]	; (100055e8 <enum_get_9byte_config_desc_complete+0x84>)
100055d0:	f7ff f94e 	bl	10004870 <__wrap_printf>
100055d4:	e7e8      	b.n	100055a8 <enum_get_9byte_config_desc_complete+0x44>
100055d6:	46c0      	nop			; (mov r8, r8)
100055d8:	200017e4 	.word	0x200017e4
100055dc:	1000580d 	.word	0x1000580d
100055e0:	0000037e 	.word	0x0000037e
100055e4:	1000a168 	.word	0x1000a168
100055e8:	1000a208 	.word	0x1000a208
100055ec:	00000387 	.word	0x00000387
100055f0:	0000039a 	.word	0x0000039a

100055f4 <process_device_unplugged>:
100055f4:	b5f0      	push	{r4, r5, r6, r7, lr}
100055f6:	46d6      	mov	lr, sl
100055f8:	464f      	mov	r7, r9
100055fa:	4646      	mov	r6, r8
100055fc:	b5c0      	push	{r6, r7, lr}
100055fe:	0006      	movs	r6, r0
10005600:	000f      	movs	r7, r1
10005602:	4690      	mov	r8, r2
10005604:	2400      	movs	r4, #0
10005606:	2c04      	cmp	r4, #4
10005608:	d85d      	bhi.n	100056c6 <process_device_unplugged+0xd2>
1000560a:	0025      	movs	r5, r4
1000560c:	3401      	adds	r4, #1
1000560e:	b2e4      	uxtb	r4, r4
10005610:	00ab      	lsls	r3, r5, #2
10005612:	195b      	adds	r3, r3, r5
10005614:	011a      	lsls	r2, r3, #4
10005616:	4b2e      	ldr	r3, [pc, #184]	; (100056d0 <process_device_unplugged+0xdc>)
10005618:	5cd3      	ldrb	r3, [r2, r3]
1000561a:	42b3      	cmp	r3, r6
1000561c:	d1f3      	bne.n	10005606 <process_device_unplugged+0x12>
1000561e:	2f00      	cmp	r7, #0
10005620:	d004      	beq.n	1000562c <process_device_unplugged+0x38>
10005622:	4b2b      	ldr	r3, [pc, #172]	; (100056d0 <process_device_unplugged+0xdc>)
10005624:	189b      	adds	r3, r3, r2
10005626:	785b      	ldrb	r3, [r3, #1]
10005628:	42bb      	cmp	r3, r7
1000562a:	d1ec      	bne.n	10005606 <process_device_unplugged+0x12>
1000562c:	4643      	mov	r3, r8
1000562e:	2b00      	cmp	r3, #0
10005630:	d007      	beq.n	10005642 <process_device_unplugged+0x4e>
10005632:	00ab      	lsls	r3, r5, #2
10005634:	195b      	adds	r3, r3, r5
10005636:	011a      	lsls	r2, r3, #4
10005638:	4b25      	ldr	r3, [pc, #148]	; (100056d0 <process_device_unplugged+0xdc>)
1000563a:	189b      	adds	r3, r3, r2
1000563c:	789b      	ldrb	r3, [r3, #2]
1000563e:	4543      	cmp	r3, r8
10005640:	d1e1      	bne.n	10005606 <process_device_unplugged+0x12>
10005642:	00ab      	lsls	r3, r5, #2
10005644:	195b      	adds	r3, r3, r5
10005646:	011a      	lsls	r2, r3, #4
10005648:	4b21      	ldr	r3, [pc, #132]	; (100056d0 <process_device_unplugged+0xdc>)
1000564a:	189b      	adds	r3, r3, r2
1000564c:	7b5b      	ldrb	r3, [r3, #13]
1000564e:	2b00      	cmp	r3, #0
10005650:	d0d9      	beq.n	10005606 <process_device_unplugged+0x12>
10005652:	4b20      	ldr	r3, [pc, #128]	; (100056d4 <process_device_unplugged+0xe0>)
10005654:	2b00      	cmp	r3, #0
10005656:	d002      	beq.n	1000565e <process_device_unplugged+0x6a>
10005658:	0020      	movs	r0, r4
1000565a:	f7fa ffbd 	bl	100005d8 <tuh_umount_cb>
1000565e:	2300      	movs	r3, #0
10005660:	4699      	mov	r9, r3
10005662:	e00c      	b.n	1000567e <process_device_unplugged+0x8a>
10005664:	464b      	mov	r3, r9
10005666:	009b      	lsls	r3, r3, #2
10005668:	444b      	add	r3, r9
1000566a:	009a      	lsls	r2, r3, #2
1000566c:	4b1a      	ldr	r3, [pc, #104]	; (100056d8 <process_device_unplugged+0xe4>)
1000566e:	189b      	adds	r3, r3, r2
10005670:	691b      	ldr	r3, [r3, #16]
10005672:	0020      	movs	r0, r4
10005674:	4798      	blx	r3
10005676:	464b      	mov	r3, r9
10005678:	3301      	adds	r3, #1
1000567a:	b2db      	uxtb	r3, r3
1000567c:	4699      	mov	r9, r3
1000567e:	464b      	mov	r3, r9
10005680:	2b03      	cmp	r3, #3
10005682:	d9ef      	bls.n	10005664 <process_device_unplugged+0x70>
10005684:	00ab      	lsls	r3, r5, #2
10005686:	4699      	mov	r9, r3
10005688:	195a      	adds	r2, r3, r5
1000568a:	0110      	lsls	r0, r2, #4
1000568c:	3008      	adds	r0, #8
1000568e:	4b10      	ldr	r3, [pc, #64]	; (100056d0 <process_device_unplugged+0xdc>)
10005690:	469a      	mov	sl, r3
10005692:	4450      	add	r0, sl
10005694:	3006      	adds	r0, #6
10005696:	2210      	movs	r2, #16
10005698:	21ff      	movs	r1, #255	; 0xff
1000569a:	f7fe ff31 	bl	10004500 <__wrap_memset>
1000569e:	464b      	mov	r3, r9
100056a0:	195a      	adds	r2, r3, r5
100056a2:	0110      	lsls	r0, r2, #4
100056a4:	3018      	adds	r0, #24
100056a6:	4450      	add	r0, sl
100056a8:	3006      	adds	r0, #6
100056aa:	2212      	movs	r2, #18
100056ac:	21ff      	movs	r1, #255	; 0xff
100056ae:	f7fe ff27 	bl	10004500 <__wrap_memset>
100056b2:	0021      	movs	r1, r4
100056b4:	0030      	movs	r0, r6
100056b6:	f7ff fbcd 	bl	10004e54 <hcd_device_close>
100056ba:	444d      	add	r5, r9
100056bc:	012b      	lsls	r3, r5, #4
100056be:	4453      	add	r3, sl
100056c0:	2200      	movs	r2, #0
100056c2:	735a      	strb	r2, [r3, #13]
100056c4:	e79f      	b.n	10005606 <process_device_unplugged+0x12>
100056c6:	bc1c      	pop	{r2, r3, r4}
100056c8:	4690      	mov	r8, r2
100056ca:	4699      	mov	r9, r3
100056cc:	46a2      	mov	sl, r4
100056ce:	bdf0      	pop	{r4, r5, r6, r7, pc}
100056d0:	20001f84 	.word	0x20001f84
100056d4:	100005d9 	.word	0x100005d9
100056d8:	1000a220 	.word	0x1000a220

100056dc <parse_configuration_descriptor>:
100056dc:	b5f0      	push	{r4, r5, r6, r7, lr}
100056de:	46d6      	mov	lr, sl
100056e0:	4647      	mov	r7, r8
100056e2:	b580      	push	{r7, lr}
100056e4:	b085      	sub	sp, #20
100056e6:	9002      	str	r0, [sp, #8]
100056e8:	000d      	movs	r5, r1
100056ea:	2800      	cmp	r0, #0
100056ec:	d00f      	beq.n	1000570e <parse_configuration_descriptor+0x32>
100056ee:	9b02      	ldr	r3, [sp, #8]
100056f0:	1e5a      	subs	r2, r3, #1
100056f2:	0093      	lsls	r3, r2, #2
100056f4:	189b      	adds	r3, r3, r2
100056f6:	011a      	lsls	r2, r3, #4
100056f8:	4f3e      	ldr	r7, [pc, #248]	; (100057f4 <parse_configuration_descriptor+0x118>)
100056fa:	19d7      	adds	r7, r2, r7
100056fc:	78aa      	ldrb	r2, [r5, #2]
100056fe:	78eb      	ldrb	r3, [r5, #3]
10005700:	021b      	lsls	r3, r3, #8
10005702:	4313      	orrs	r3, r2
10005704:	469a      	mov	sl, r3
10005706:	44aa      	add	sl, r5
10005708:	782b      	ldrb	r3, [r5, #0]
1000570a:	18ed      	adds	r5, r5, r3
1000570c:	e03f      	b.n	1000578e <parse_configuration_descriptor+0xb2>
1000570e:	22dc      	movs	r2, #220	; 0xdc
10005710:	4939      	ldr	r1, [pc, #228]	; (100057f8 <parse_configuration_descriptor+0x11c>)
10005712:	483a      	ldr	r0, [pc, #232]	; (100057fc <parse_configuration_descriptor+0x120>)
10005714:	f7ff f8ac 	bl	10004870 <__wrap_printf>
10005718:	2700      	movs	r7, #0
1000571a:	e7ef      	b.n	100056fc <parse_configuration_descriptor+0x20>
1000571c:	78ee      	ldrb	r6, [r5, #3]
1000571e:	782b      	ldrb	r3, [r5, #0]
10005720:	18ed      	adds	r5, r5, r3
10005722:	e03a      	b.n	1000579a <parse_configuration_descriptor+0xbe>
10005724:	22fa      	movs	r2, #250	; 0xfa
10005726:	0092      	lsls	r2, r2, #2
10005728:	4935      	ldr	r1, [pc, #212]	; (10005800 <parse_configuration_descriptor+0x124>)
1000572a:	4834      	ldr	r0, [pc, #208]	; (100057fc <parse_configuration_descriptor+0x120>)
1000572c:	f7ff f8a0 	bl	10004870 <__wrap_printf>
10005730:	2000      	movs	r0, #0
10005732:	e00d      	b.n	10005750 <parse_configuration_descriptor+0x74>
10005734:	22fe      	movs	r2, #254	; 0xfe
10005736:	0092      	lsls	r2, r2, #2
10005738:	4931      	ldr	r1, [pc, #196]	; (10005800 <parse_configuration_descriptor+0x124>)
1000573a:	4830      	ldr	r0, [pc, #192]	; (100057fc <parse_configuration_descriptor+0x120>)
1000573c:	f7ff f898 	bl	10004870 <__wrap_printf>
10005740:	2000      	movs	r0, #0
10005742:	e005      	b.n	10005750 <parse_configuration_descriptor+0x74>
10005744:	4a2f      	ldr	r2, [pc, #188]	; (10005804 <parse_configuration_descriptor+0x128>)
10005746:	492e      	ldr	r1, [pc, #184]	; (10005800 <parse_configuration_descriptor+0x124>)
10005748:	482c      	ldr	r0, [pc, #176]	; (100057fc <parse_configuration_descriptor+0x120>)
1000574a:	f7ff f891 	bl	10004870 <__wrap_printf>
1000574e:	2000      	movs	r0, #0
10005750:	b005      	add	sp, #20
10005752:	bc0c      	pop	{r2, r3}
10005754:	4690      	mov	r8, r2
10005756:	469a      	mov	sl, r3
10005758:	bdf0      	pop	{r4, r5, r6, r7, pc}
1000575a:	4646      	mov	r6, r8
1000575c:	2200      	movs	r2, #0
1000575e:	4296      	cmp	r6, r2
10005760:	d90b      	bls.n	1000577a <parse_configuration_descriptor+0x9e>
10005762:	78ab      	ldrb	r3, [r5, #2]
10005764:	189b      	adds	r3, r3, r2
10005766:	b2db      	uxtb	r3, r3
10005768:	18f9      	adds	r1, r7, r3
1000576a:	7b89      	ldrb	r1, [r1, #14]
1000576c:	29ff      	cmp	r1, #255	; 0xff
1000576e:	d1e9      	bne.n	10005744 <parse_configuration_descriptor+0x68>
10005770:	18fb      	adds	r3, r7, r3
10005772:	739c      	strb	r4, [r3, #14]
10005774:	3201      	adds	r2, #1
10005776:	b2d2      	uxtb	r2, r2
10005778:	e7f1      	b.n	1000575e <parse_configuration_descriptor+0x82>
1000577a:	0023      	movs	r3, r4
1000577c:	9a03      	ldr	r2, [sp, #12]
1000577e:	0029      	movs	r1, r5
10005780:	0038      	movs	r0, r7
10005782:	301e      	adds	r0, #30
10005784:	f001 ffd8 	bl	10007738 <tu_edpt_bind_driver>
10005788:	9b03      	ldr	r3, [sp, #12]
1000578a:	469c      	mov	ip, r3
1000578c:	4465      	add	r5, ip
1000578e:	4555      	cmp	r5, sl
10005790:	d22d      	bcs.n	100057ee <parse_configuration_descriptor+0x112>
10005792:	786b      	ldrb	r3, [r5, #1]
10005794:	2b0b      	cmp	r3, #11
10005796:	d0c1      	beq.n	1000571c <parse_configuration_descriptor+0x40>
10005798:	2601      	movs	r6, #1
1000579a:	786b      	ldrb	r3, [r5, #1]
1000579c:	2b04      	cmp	r3, #4
1000579e:	d1c1      	bne.n	10005724 <parse_configuration_descriptor+0x48>
100057a0:	4653      	mov	r3, sl
100057a2:	1b5a      	subs	r2, r3, r5
100057a4:	b292      	uxth	r2, r2
100057a6:	0031      	movs	r1, r6
100057a8:	0028      	movs	r0, r5
100057aa:	f001 ffda 	bl	10007762 <tu_desc_get_interface_total_len>
100057ae:	9003      	str	r0, [sp, #12]
100057b0:	9001      	str	r0, [sp, #4]
100057b2:	2808      	cmp	r0, #8
100057b4:	d9be      	bls.n	10005734 <parse_configuration_descriptor+0x58>
100057b6:	796b      	ldrb	r3, [r5, #5]
100057b8:	2b09      	cmp	r3, #9
100057ba:	d104      	bne.n	100057c6 <parse_configuration_descriptor+0xea>
100057bc:	787c      	ldrb	r4, [r7, #1]
100057be:	2c00      	cmp	r4, #0
100057c0:	d1e2      	bne.n	10005788 <parse_configuration_descriptor+0xac>
100057c2:	46b0      	mov	r8, r6
100057c4:	e001      	b.n	100057ca <parse_configuration_descriptor+0xee>
100057c6:	2400      	movs	r4, #0
100057c8:	46b0      	mov	r8, r6
100057ca:	2c03      	cmp	r4, #3
100057cc:	d8dc      	bhi.n	10005788 <parse_configuration_descriptor+0xac>
100057ce:	00a3      	lsls	r3, r4, #2
100057d0:	191b      	adds	r3, r3, r4
100057d2:	009a      	lsls	r2, r3, #2
100057d4:	4b0c      	ldr	r3, [pc, #48]	; (10005808 <parse_configuration_descriptor+0x12c>)
100057d6:	189b      	adds	r3, r3, r2
100057d8:	685e      	ldr	r6, [r3, #4]
100057da:	7838      	ldrb	r0, [r7, #0]
100057dc:	9b01      	ldr	r3, [sp, #4]
100057de:	002a      	movs	r2, r5
100057e0:	9902      	ldr	r1, [sp, #8]
100057e2:	47b0      	blx	r6
100057e4:	2800      	cmp	r0, #0
100057e6:	d1b8      	bne.n	1000575a <parse_configuration_descriptor+0x7e>
100057e8:	3401      	adds	r4, #1
100057ea:	b2e4      	uxtb	r4, r4
100057ec:	e7ed      	b.n	100057ca <parse_configuration_descriptor+0xee>
100057ee:	2001      	movs	r0, #1
100057f0:	e7ae      	b.n	10005750 <parse_configuration_descriptor+0x74>
100057f2:	46c0      	nop			; (mov r8, r8)
100057f4:	20001f84 	.word	0x20001f84
100057f8:	1000a01c 	.word	0x1000a01c
100057fc:	1000a208 	.word	0x1000a208
10005800:	1000a1c8 	.word	0x1000a1c8
10005804:	00000413 	.word	0x00000413
10005808:	1000a220 	.word	0x1000a220

1000580c <enum_get_config_desc_complete>:
1000580c:	b530      	push	{r4, r5, lr}
1000580e:	b083      	sub	sp, #12
10005810:	0005      	movs	r5, r0
10005812:	2a00      	cmp	r2, #0
10005814:	d114      	bne.n	10005840 <enum_get_config_desc_complete+0x34>
10005816:	4914      	ldr	r1, [pc, #80]	; (10005868 <enum_get_config_desc_complete+0x5c>)
10005818:	f7ff ff60 	bl	100056dc <parse_configuration_descriptor>
1000581c:	1e04      	subs	r4, r0, #0
1000581e:	d016      	beq.n	1000584e <enum_get_config_desc_complete+0x42>
10005820:	4669      	mov	r1, sp
10005822:	4b12      	ldr	r3, [pc, #72]	; (1000586c <enum_get_config_desc_complete+0x60>)
10005824:	3308      	adds	r3, #8
10005826:	000a      	movs	r2, r1
10005828:	cb11      	ldmia	r3!, {r0, r4}
1000582a:	c211      	stmia	r2!, {r0, r4}
1000582c:	4b10      	ldr	r3, [pc, #64]	; (10005870 <enum_get_config_desc_complete+0x64>)
1000582e:	2200      	movs	r2, #0
10005830:	0028      	movs	r0, r5
10005832:	f000 fca9 	bl	10006188 <tuh_control_xfer>
10005836:	1e04      	subs	r4, r0, #0
10005838:	d00f      	beq.n	1000585a <enum_get_config_desc_complete+0x4e>
1000583a:	0020      	movs	r0, r4
1000583c:	b003      	add	sp, #12
1000583e:	bd30      	pop	{r4, r5, pc}
10005840:	4a0c      	ldr	r2, [pc, #48]	; (10005874 <enum_get_config_desc_complete+0x68>)
10005842:	490d      	ldr	r1, [pc, #52]	; (10005878 <enum_get_config_desc_complete+0x6c>)
10005844:	480d      	ldr	r0, [pc, #52]	; (1000587c <enum_get_config_desc_complete+0x70>)
10005846:	f7ff f813 	bl	10004870 <__wrap_printf>
1000584a:	2400      	movs	r4, #0
1000584c:	e7f5      	b.n	1000583a <enum_get_config_desc_complete+0x2e>
1000584e:	4a0c      	ldr	r2, [pc, #48]	; (10005880 <enum_get_config_desc_complete+0x74>)
10005850:	4909      	ldr	r1, [pc, #36]	; (10005878 <enum_get_config_desc_complete+0x6c>)
10005852:	480a      	ldr	r0, [pc, #40]	; (1000587c <enum_get_config_desc_complete+0x70>)
10005854:	f7ff f80c 	bl	10004870 <__wrap_printf>
10005858:	e7ef      	b.n	1000583a <enum_get_config_desc_complete+0x2e>
1000585a:	4a0a      	ldr	r2, [pc, #40]	; (10005884 <enum_get_config_desc_complete+0x78>)
1000585c:	4906      	ldr	r1, [pc, #24]	; (10005878 <enum_get_config_desc_complete+0x6c>)
1000585e:	4807      	ldr	r0, [pc, #28]	; (1000587c <enum_get_config_desc_complete+0x70>)
10005860:	f7ff f806 	bl	10004870 <__wrap_printf>
10005864:	e7e9      	b.n	1000583a <enum_get_config_desc_complete+0x2e>
10005866:	46c0      	nop			; (mov r8, r8)
10005868:	200017e4 	.word	0x200017e4
1000586c:	10009fec 	.word	0x10009fec
10005870:	10005f21 	.word	0x10005f21
10005874:	000003a2 	.word	0x000003a2
10005878:	1000a18c 	.word	0x1000a18c
1000587c:	1000a208 	.word	0x1000a208
10005880:	000003a6 	.word	0x000003a6
10005884:	000003b7 	.word	0x000003b7

10005888 <tuh_speed_get>:
10005888:	2800      	cmp	r0, #0
1000588a:	d007      	beq.n	1000589c <tuh_speed_get+0x14>
1000588c:	3801      	subs	r0, #1
1000588e:	0083      	lsls	r3, r0, #2
10005890:	1818      	adds	r0, r3, r0
10005892:	0103      	lsls	r3, r0, #4
10005894:	4a03      	ldr	r2, [pc, #12]	; (100058a4 <tuh_speed_get+0x1c>)
10005896:	189b      	adds	r3, r3, r2
10005898:	78d8      	ldrb	r0, [r3, #3]
1000589a:	4770      	bx	lr
1000589c:	4b02      	ldr	r3, [pc, #8]	; (100058a8 <tuh_speed_get+0x20>)
1000589e:	78d8      	ldrb	r0, [r3, #3]
100058a0:	e7fb      	b.n	1000589a <tuh_speed_get+0x12>
100058a2:	46c0      	nop			; (mov r8, r8)
100058a4:	20001f84 	.word	0x20001f84
100058a8:	20000d64 	.word	0x20000d64

100058ac <tuh_inited>:
100058ac:	4b01      	ldr	r3, [pc, #4]	; (100058b4 <tuh_inited+0x8>)
100058ae:	7818      	ldrb	r0, [r3, #0]
100058b0:	4770      	bx	lr
100058b2:	46c0      	nop			; (mov r8, r8)
100058b4:	20001cb8 	.word	0x20001cb8

100058b8 <tuh_init>:
100058b8:	b5f0      	push	{r4, r5, r6, r7, lr}
100058ba:	46c6      	mov	lr, r8
100058bc:	b500      	push	{lr}
100058be:	b082      	sub	sp, #8
100058c0:	9001      	str	r0, [sp, #4]
100058c2:	4b38      	ldr	r3, [pc, #224]	; (100059a4 <tuh_init+0xec>)
100058c4:	781b      	ldrb	r3, [r3, #0]
100058c6:	4698      	mov	r8, r3
100058c8:	2b00      	cmp	r3, #0
100058ca:	d004      	beq.n	100058d6 <tuh_init+0x1e>
100058cc:	4640      	mov	r0, r8
100058ce:	b002      	add	sp, #8
100058d0:	bc04      	pop	{r2}
100058d2:	4690      	mov	r8, r2
100058d4:	bdf0      	pop	{r4, r5, r6, r7, pc}
100058d6:	22c8      	movs	r2, #200	; 0xc8
100058d8:	0052      	lsls	r2, r2, #1
100058da:	2100      	movs	r1, #0
100058dc:	4832      	ldr	r0, [pc, #200]	; (100059a8 <tuh_init+0xf0>)
100058de:	f7fe fe0f 	bl	10004500 <__wrap_memset>
100058e2:	2205      	movs	r2, #5
100058e4:	2100      	movs	r1, #0
100058e6:	4831      	ldr	r0, [pc, #196]	; (100059ac <tuh_init+0xf4>)
100058e8:	f7fe fe0a 	bl	10004500 <__wrap_memset>
100058ec:	4c30      	ldr	r4, [pc, #192]	; (100059b0 <tuh_init+0xf8>)
100058ee:	0020      	movs	r0, r4
100058f0:	301c      	adds	r0, #28
100058f2:	f7fc fb13 	bl	10001f1c <critical_section_init>
100058f6:	0020      	movs	r0, r4
100058f8:	f001 fff2 	bl	100078e0 <tu_fifo_clear>
100058fc:	4b2d      	ldr	r3, [pc, #180]	; (100059b4 <tuh_init+0xfc>)
100058fe:	601c      	str	r4, [r3, #0]
10005900:	2400      	movs	r4, #0
10005902:	2c04      	cmp	r4, #4
10005904:	d82d      	bhi.n	10005962 <tuh_init+0xaa>
10005906:	00a7      	lsls	r7, r4, #2
10005908:	193b      	adds	r3, r7, r4
1000590a:	011d      	lsls	r5, r3, #4
1000590c:	3540      	adds	r5, #64	; 0x40
1000590e:	4e26      	ldr	r6, [pc, #152]	; (100059a8 <tuh_init+0xf0>)
10005910:	19ad      	adds	r5, r5, r6
10005912:	3504      	adds	r5, #4
10005914:	0028      	movs	r0, r5
10005916:	f7fc fadb 	bl	10001ed0 <mutex_init>
1000591a:	193b      	adds	r3, r7, r4
1000591c:	011a      	lsls	r2, r3, #4
1000591e:	18b2      	adds	r2, r6, r2
10005920:	64d5      	str	r5, [r2, #76]	; 0x4c
10005922:	2d00      	cmp	r5, #0
10005924:	d016      	beq.n	10005954 <tuh_init+0x9c>
10005926:	00a6      	lsls	r6, r4, #2
10005928:	1933      	adds	r3, r6, r4
1000592a:	0118      	lsls	r0, r3, #4
1000592c:	3008      	adds	r0, #8
1000592e:	4d1e      	ldr	r5, [pc, #120]	; (100059a8 <tuh_init+0xf0>)
10005930:	1940      	adds	r0, r0, r5
10005932:	3006      	adds	r0, #6
10005934:	2210      	movs	r2, #16
10005936:	21ff      	movs	r1, #255	; 0xff
10005938:	f7fe fde2 	bl	10004500 <__wrap_memset>
1000593c:	1932      	adds	r2, r6, r4
1000593e:	0110      	lsls	r0, r2, #4
10005940:	3018      	adds	r0, #24
10005942:	1940      	adds	r0, r0, r5
10005944:	3006      	adds	r0, #6
10005946:	2212      	movs	r2, #18
10005948:	21ff      	movs	r1, #255	; 0xff
1000594a:	f7fe fdd9 	bl	10004500 <__wrap_memset>
1000594e:	3401      	adds	r4, #1
10005950:	b2e4      	uxtb	r4, r4
10005952:	e7d6      	b.n	10005902 <tuh_init+0x4a>
10005954:	2295      	movs	r2, #149	; 0x95
10005956:	0052      	lsls	r2, r2, #1
10005958:	4917      	ldr	r1, [pc, #92]	; (100059b8 <tuh_init+0x100>)
1000595a:	4818      	ldr	r0, [pc, #96]	; (100059bc <tuh_init+0x104>)
1000595c:	f7fe ff88 	bl	10004870 <__wrap_printf>
10005960:	e7b4      	b.n	100058cc <tuh_init+0x14>
10005962:	2400      	movs	r4, #0
10005964:	e007      	b.n	10005976 <tuh_init+0xbe>
10005966:	00a3      	lsls	r3, r4, #2
10005968:	191b      	adds	r3, r3, r4
1000596a:	009a      	lsls	r2, r3, #2
1000596c:	4b14      	ldr	r3, [pc, #80]	; (100059c0 <tuh_init+0x108>)
1000596e:	58d3      	ldr	r3, [r2, r3]
10005970:	4798      	blx	r3
10005972:	3401      	adds	r4, #1
10005974:	b2e4      	uxtb	r4, r4
10005976:	2c03      	cmp	r4, #3
10005978:	d9f5      	bls.n	10005966 <tuh_init+0xae>
1000597a:	9801      	ldr	r0, [sp, #4]
1000597c:	f7ff f948 	bl	10004c10 <hcd_init>
10005980:	4680      	mov	r8, r0
10005982:	2800      	cmp	r0, #0
10005984:	d006      	beq.n	10005994 <tuh_init+0xdc>
10005986:	9801      	ldr	r0, [sp, #4]
10005988:	f7ff fa66 	bl	10004e58 <hcd_int_enable>
1000598c:	4b05      	ldr	r3, [pc, #20]	; (100059a4 <tuh_init+0xec>)
1000598e:	2201      	movs	r2, #1
10005990:	701a      	strb	r2, [r3, #0]
10005992:	e79b      	b.n	100058cc <tuh_init+0x14>
10005994:	229c      	movs	r2, #156	; 0x9c
10005996:	0052      	lsls	r2, r2, #1
10005998:	4907      	ldr	r1, [pc, #28]	; (100059b8 <tuh_init+0x100>)
1000599a:	4808      	ldr	r0, [pc, #32]	; (100059bc <tuh_init+0x104>)
1000599c:	f7fe ff68 	bl	10004870 <__wrap_printf>
100059a0:	e794      	b.n	100058cc <tuh_init+0x14>
100059a2:	46c0      	nop			; (mov r8, r8)
100059a4:	20001cb8 	.word	0x20001cb8
100059a8:	20001f84 	.word	0x20001f84
100059ac:	20000d64 	.word	0x20000d64
100059b0:	2000037c 	.word	0x2000037c
100059b4:	200018e4 	.word	0x200018e4
100059b8:	1000a028 	.word	0x1000a028
100059bc:	1000a208 	.word	0x1000a208
100059c0:	1000a220 	.word	0x1000a220

100059c4 <usbh_get_rhport>:
100059c4:	2800      	cmp	r0, #0
100059c6:	d102      	bne.n	100059ce <usbh_get_rhport+0xa>
100059c8:	4b04      	ldr	r3, [pc, #16]	; (100059dc <usbh_get_rhport+0x18>)
100059ca:	7818      	ldrb	r0, [r3, #0]
100059cc:	4770      	bx	lr
100059ce:	3801      	subs	r0, #1
100059d0:	0083      	lsls	r3, r0, #2
100059d2:	1818      	adds	r0, r3, r0
100059d4:	0103      	lsls	r3, r0, #4
100059d6:	4a02      	ldr	r2, [pc, #8]	; (100059e0 <usbh_get_rhport+0x1c>)
100059d8:	5cd0      	ldrb	r0, [r2, r3]
100059da:	e7f7      	b.n	100059cc <usbh_get_rhport+0x8>
100059dc:	20000d64 	.word	0x20000d64
100059e0:	20001f84 	.word	0x20001f84

100059e4 <usbh_edpt_control_open>:
100059e4:	b530      	push	{r4, r5, lr}
100059e6:	b083      	sub	sp, #12
100059e8:	0004      	movs	r4, r0
100059ea:	000d      	movs	r5, r1
100059ec:	2205      	movs	r2, #5
100059ee:	2100      	movs	r1, #0
100059f0:	466b      	mov	r3, sp
100059f2:	1c98      	adds	r0, r3, #2
100059f4:	f7fe fd84 	bl	10004500 <__wrap_memset>
100059f8:	2307      	movs	r3, #7
100059fa:	466a      	mov	r2, sp
100059fc:	7013      	strb	r3, [r2, #0]
100059fe:	3b02      	subs	r3, #2
10005a00:	7053      	strb	r3, [r2, #1]
10005a02:	8095      	strh	r5, [r2, #4]
10005a04:	0020      	movs	r0, r4
10005a06:	f7ff ffdd 	bl	100059c4 <usbh_get_rhport>
10005a0a:	466a      	mov	r2, sp
10005a0c:	0021      	movs	r1, r4
10005a0e:	f7ff fa39 	bl	10004e84 <hcd_edpt_open>
10005a12:	b003      	add	sp, #12
10005a14:	bd30      	pop	{r4, r5, pc}
	...

10005a18 <enum_request_addr0_device_desc>:
10005a18:	b510      	push	{r4, lr}
10005a1a:	b082      	sub	sp, #8
10005a1c:	2108      	movs	r1, #8
10005a1e:	2000      	movs	r0, #0
10005a20:	f7ff ffe0 	bl	100059e4 <usbh_edpt_control_open>
10005a24:	1e04      	subs	r4, r0, #0
10005a26:	d00f      	beq.n	10005a48 <enum_request_addr0_device_desc+0x30>
10005a28:	4669      	mov	r1, sp
10005a2a:	4b0d      	ldr	r3, [pc, #52]	; (10005a60 <enum_request_addr0_device_desc+0x48>)
10005a2c:	3310      	adds	r3, #16
10005a2e:	000a      	movs	r2, r1
10005a30:	cb11      	ldmia	r3!, {r0, r4}
10005a32:	c211      	stmia	r2!, {r0, r4}
10005a34:	4b0b      	ldr	r3, [pc, #44]	; (10005a64 <enum_request_addr0_device_desc+0x4c>)
10005a36:	4a0c      	ldr	r2, [pc, #48]	; (10005a68 <enum_request_addr0_device_desc+0x50>)
10005a38:	2000      	movs	r0, #0
10005a3a:	f000 fba5 	bl	10006188 <tuh_control_xfer>
10005a3e:	1e04      	subs	r4, r0, #0
10005a40:	d008      	beq.n	10005a54 <enum_request_addr0_device_desc+0x3c>
10005a42:	0020      	movs	r0, r4
10005a44:	b002      	add	sp, #8
10005a46:	bd10      	pop	{r4, pc}
10005a48:	4a08      	ldr	r2, [pc, #32]	; (10005a6c <enum_request_addr0_device_desc+0x54>)
10005a4a:	4909      	ldr	r1, [pc, #36]	; (10005a70 <enum_request_addr0_device_desc+0x58>)
10005a4c:	4809      	ldr	r0, [pc, #36]	; (10005a74 <enum_request_addr0_device_desc+0x5c>)
10005a4e:	f7fe ff0f 	bl	10004870 <__wrap_printf>
10005a52:	e7f6      	b.n	10005a42 <enum_request_addr0_device_desc+0x2a>
10005a54:	4a08      	ldr	r2, [pc, #32]	; (10005a78 <enum_request_addr0_device_desc+0x60>)
10005a56:	4906      	ldr	r1, [pc, #24]	; (10005a70 <enum_request_addr0_device_desc+0x58>)
10005a58:	4806      	ldr	r0, [pc, #24]	; (10005a74 <enum_request_addr0_device_desc+0x5c>)
10005a5a:	f7fe ff09 	bl	10004870 <__wrap_printf>
10005a5e:	e7f0      	b.n	10005a42 <enum_request_addr0_device_desc+0x2a>
10005a60:	10009fec 	.word	0x10009fec
10005a64:	10005c29 	.word	0x10005c29
10005a68:	200017e4 	.word	0x200017e4
10005a6c:	000002c6 	.word	0x000002c6
10005a70:	1000a0d0 	.word	0x1000a0d0
10005a74:	1000a208 	.word	0x1000a208
10005a78:	000002d7 	.word	0x000002d7

10005a7c <enum_new_device>:
10005a7c:	b570      	push	{r4, r5, r6, lr}
10005a7e:	7802      	ldrb	r2, [r0, #0]
10005a80:	4b18      	ldr	r3, [pc, #96]	; (10005ae4 <enum_new_device+0x68>)
10005a82:	701a      	strb	r2, [r3, #0]
10005a84:	7902      	ldrb	r2, [r0, #4]
10005a86:	705a      	strb	r2, [r3, #1]
10005a88:	7941      	ldrb	r1, [r0, #5]
10005a8a:	7099      	strb	r1, [r3, #2]
10005a8c:	2a00      	cmp	r2, #0
10005a8e:	d113      	bne.n	10005ab8 <enum_new_device+0x3c>
10005a90:	20fa      	movs	r0, #250	; 0xfa
10005a92:	0040      	lsls	r0, r0, #1
10005a94:	f7fb fe50 	bl	10001738 <sleep_ms>
10005a98:	4b12      	ldr	r3, [pc, #72]	; (10005ae4 <enum_new_device+0x68>)
10005a9a:	7818      	ldrb	r0, [r3, #0]
10005a9c:	f7ff f8fc 	bl	10004c98 <hcd_port_connect_status>
10005aa0:	1e04      	subs	r4, r0, #0
10005aa2:	d101      	bne.n	10005aa8 <enum_new_device+0x2c>
10005aa4:	2401      	movs	r4, #1
10005aa6:	e014      	b.n	10005ad2 <enum_new_device+0x56>
10005aa8:	4d0e      	ldr	r5, [pc, #56]	; (10005ae4 <enum_new_device+0x68>)
10005aaa:	7828      	ldrb	r0, [r5, #0]
10005aac:	f7ff f910 	bl	10004cd0 <hcd_port_speed_get>
10005ab0:	70e8      	strb	r0, [r5, #3]
10005ab2:	f7ff ffb1 	bl	10005a18 <enum_request_addr0_device_desc>
10005ab6:	e00c      	b.n	10005ad2 <enum_new_device+0x56>
10005ab8:	20fa      	movs	r0, #250	; 0xfa
10005aba:	0040      	lsls	r0, r0, #1
10005abc:	f7fb fe3c 	bl	10001738 <sleep_ms>
10005ac0:	4b08      	ldr	r3, [pc, #32]	; (10005ae4 <enum_new_device+0x68>)
10005ac2:	7899      	ldrb	r1, [r3, #2]
10005ac4:	7858      	ldrb	r0, [r3, #1]
10005ac6:	4b08      	ldr	r3, [pc, #32]	; (10005ae8 <enum_new_device+0x6c>)
10005ac8:	4a08      	ldr	r2, [pc, #32]	; (10005aec <enum_new_device+0x70>)
10005aca:	f000 fce5 	bl	10006498 <hub_port_get_status>
10005ace:	1e04      	subs	r4, r0, #0
10005ad0:	d001      	beq.n	10005ad6 <enum_new_device+0x5a>
10005ad2:	0020      	movs	r0, r4
10005ad4:	bd70      	pop	{r4, r5, r6, pc}
10005ad6:	4a06      	ldr	r2, [pc, #24]	; (10005af0 <enum_new_device+0x74>)
10005ad8:	4906      	ldr	r1, [pc, #24]	; (10005af4 <enum_new_device+0x78>)
10005ada:	4807      	ldr	r0, [pc, #28]	; (10005af8 <enum_new_device+0x7c>)
10005adc:	f7fe fec8 	bl	10004870 <__wrap_printf>
10005ae0:	e7f7      	b.n	10005ad2 <enum_new_device+0x56>
10005ae2:	46c0      	nop			; (mov r8, r8)
10005ae4:	20000d64 	.word	0x20000d64
10005ae8:	100052f9 	.word	0x100052f9
10005aec:	200017e4 	.word	0x200017e4
10005af0:	000002bb 	.word	0x000002bb
10005af4:	1000a0c0 	.word	0x1000a0c0
10005af8:	1000a208 	.word	0x1000a208

10005afc <tuh_task>:
10005afc:	b570      	push	{r4, r5, r6, lr}
10005afe:	b084      	sub	sp, #16
10005b00:	f001 fdbe 	bl	10007680 <tusb_inited>
10005b04:	2800      	cmp	r0, #0
10005b06:	d104      	bne.n	10005b12 <tuh_task+0x16>
10005b08:	b004      	add	sp, #16
10005b0a:	bd70      	pop	{r4, r5, r6, pc}
10005b0c:	a801      	add	r0, sp, #4
10005b0e:	f7ff ffb5 	bl	10005a7c <enum_new_device>
10005b12:	4b40      	ldr	r3, [pc, #256]	; (10005c14 <tuh_task+0x118>)
10005b14:	681c      	ldr	r4, [r3, #0]
10005b16:	69e2      	ldr	r2, [r4, #28]
10005b18:	f3ef 8310 	mrs	r3, PRIMASK
10005b1c:	b672      	cpsid	i
10005b1e:	6811      	ldr	r1, [r2, #0]
10005b20:	2900      	cmp	r1, #0
10005b22:	d0fc      	beq.n	10005b1e <tuh_task+0x22>
10005b24:	f3bf 8f5f 	dmb	sy
10005b28:	6223      	str	r3, [r4, #32]
10005b2a:	a901      	add	r1, sp, #4
10005b2c:	0020      	movs	r0, r4
10005b2e:	f001 fe80 	bl	10007832 <tu_fifo_read>
10005b32:	69e2      	ldr	r2, [r4, #28]
10005b34:	6a23      	ldr	r3, [r4, #32]
10005b36:	f3bf 8f5f 	dmb	sy
10005b3a:	2100      	movs	r1, #0
10005b3c:	6011      	str	r1, [r2, #0]
10005b3e:	f383 8810 	msr	PRIMASK, r3
10005b42:	2800      	cmp	r0, #0
10005b44:	d0e0      	beq.n	10005b08 <tuh_task+0xc>
10005b46:	ab01      	add	r3, sp, #4
10005b48:	785b      	ldrb	r3, [r3, #1]
10005b4a:	2b01      	cmp	r3, #1
10005b4c:	d00b      	beq.n	10005b66 <tuh_task+0x6a>
10005b4e:	2b00      	cmp	r3, #0
10005b50:	d0dc      	beq.n	10005b0c <tuh_task+0x10>
10005b52:	2b02      	cmp	r3, #2
10005b54:	d013      	beq.n	10005b7e <tuh_task+0x82>
10005b56:	2b03      	cmp	r3, #3
10005b58:	d1db      	bne.n	10005b12 <tuh_task+0x16>
10005b5a:	9b02      	ldr	r3, [sp, #8]
10005b5c:	2b00      	cmp	r3, #0
10005b5e:	d0d8      	beq.n	10005b12 <tuh_task+0x16>
10005b60:	9803      	ldr	r0, [sp, #12]
10005b62:	4798      	blx	r3
10005b64:	e7d5      	b.n	10005b12 <tuh_task+0x16>
10005b66:	ac01      	add	r4, sp, #4
10005b68:	7962      	ldrb	r2, [r4, #5]
10005b6a:	7921      	ldrb	r1, [r4, #4]
10005b6c:	7820      	ldrb	r0, [r4, #0]
10005b6e:	f7ff fd41 	bl	100055f4 <process_device_unplugged>
10005b72:	7920      	ldrb	r0, [r4, #4]
10005b74:	2800      	cmp	r0, #0
10005b76:	d0cc      	beq.n	10005b12 <tuh_task+0x16>
10005b78:	f000 fd1c 	bl	100065b4 <hub_status_pipe_queue>
10005b7c:	e7c9      	b.n	10005b12 <tuh_task+0x16>
10005b7e:	aa01      	add	r2, sp, #4
10005b80:	7911      	ldrb	r1, [r2, #4]
10005b82:	237f      	movs	r3, #127	; 0x7f
10005b84:	400b      	ands	r3, r1
10005b86:	09cc      	lsrs	r4, r1, #7
10005b88:	7890      	ldrb	r0, [r2, #2]
10005b8a:	2800      	cmp	r0, #0
10005b8c:	d10e      	bne.n	10005bac <tuh_task+0xb0>
10005b8e:	2b00      	cmp	r3, #0
10005b90:	d105      	bne.n	10005b9e <tuh_task+0xa2>
10005b92:	ab01      	add	r3, sp, #4
10005b94:	795a      	ldrb	r2, [r3, #5]
10005b96:	9b03      	ldr	r3, [sp, #12]
10005b98:	f000 fb20 	bl	100061dc <usbh_control_xfer_cb>
10005b9c:	e7b9      	b.n	10005b12 <tuh_task+0x16>
10005b9e:	22bf      	movs	r2, #191	; 0xbf
10005ba0:	0052      	lsls	r2, r2, #1
10005ba2:	491d      	ldr	r1, [pc, #116]	; (10005c18 <tuh_task+0x11c>)
10005ba4:	481d      	ldr	r0, [pc, #116]	; (10005c1c <tuh_task+0x120>)
10005ba6:	f7fe fe63 	bl	10004870 <__wrap_printf>
10005baa:	e7ad      	b.n	10005b08 <tuh_task+0xc>
10005bac:	3801      	subs	r0, #1
10005bae:	0082      	lsls	r2, r0, #2
10005bb0:	1810      	adds	r0, r2, r0
10005bb2:	0102      	lsls	r2, r0, #4
10005bb4:	4d1a      	ldr	r5, [pc, #104]	; (10005c20 <tuh_task+0x124>)
10005bb6:	1955      	adds	r5, r2, r5
10005bb8:	005a      	lsls	r2, r3, #1
10005bba:	18aa      	adds	r2, r5, r2
10005bbc:	1912      	adds	r2, r2, r4
10005bbe:	3230      	adds	r2, #48	; 0x30
10005bc0:	7810      	ldrb	r0, [r2, #0]
10005bc2:	2601      	movs	r6, #1
10005bc4:	43b0      	bics	r0, r6
10005bc6:	7010      	strb	r0, [r2, #0]
10005bc8:	7810      	ldrb	r0, [r2, #0]
10005bca:	3603      	adds	r6, #3
10005bcc:	43b0      	bics	r0, r6
10005bce:	7010      	strb	r0, [r2, #0]
10005bd0:	2b00      	cmp	r3, #0
10005bd2:	d011      	beq.n	10005bf8 <tuh_task+0xfc>
10005bd4:	005b      	lsls	r3, r3, #1
10005bd6:	18eb      	adds	r3, r5, r3
10005bd8:	191b      	adds	r3, r3, r4
10005bda:	7f9a      	ldrb	r2, [r3, #30]
10005bdc:	2a03      	cmp	r2, #3
10005bde:	d812      	bhi.n	10005c06 <tuh_task+0x10a>
10005be0:	0093      	lsls	r3, r2, #2
10005be2:	189b      	adds	r3, r3, r2
10005be4:	009a      	lsls	r2, r3, #2
10005be6:	4b0f      	ldr	r3, [pc, #60]	; (10005c24 <tuh_task+0x128>)
10005be8:	189b      	adds	r3, r3, r2
10005bea:	68dc      	ldr	r4, [r3, #12]
10005bec:	a801      	add	r0, sp, #4
10005bee:	7942      	ldrb	r2, [r0, #5]
10005bf0:	9b03      	ldr	r3, [sp, #12]
10005bf2:	7880      	ldrb	r0, [r0, #2]
10005bf4:	47a0      	blx	r4
10005bf6:	e78c      	b.n	10005b12 <tuh_task+0x16>
10005bf8:	a801      	add	r0, sp, #4
10005bfa:	7942      	ldrb	r2, [r0, #5]
10005bfc:	9b03      	ldr	r3, [sp, #12]
10005bfe:	7880      	ldrb	r0, [r0, #2]
10005c00:	f000 faec 	bl	100061dc <usbh_control_xfer_cb>
10005c04:	e785      	b.n	10005b12 <tuh_task+0x16>
10005c06:	228e      	movs	r2, #142	; 0x8e
10005c08:	32ff      	adds	r2, #255	; 0xff
10005c0a:	4903      	ldr	r1, [pc, #12]	; (10005c18 <tuh_task+0x11c>)
10005c0c:	4803      	ldr	r0, [pc, #12]	; (10005c1c <tuh_task+0x120>)
10005c0e:	f7fe fe2f 	bl	10004870 <__wrap_printf>
10005c12:	e779      	b.n	10005b08 <tuh_task+0xc>
10005c14:	200018e4 	.word	0x200018e4
10005c18:	1000a034 	.word	0x1000a034
10005c1c:	1000a208 	.word	0x1000a208
10005c20:	20001f84 	.word	0x20001f84
10005c24:	1000a220 	.word	0x1000a220

10005c28 <enum_get_addr0_device_desc_complete>:
10005c28:	b510      	push	{r4, lr}
10005c2a:	2800      	cmp	r0, #0
10005c2c:	d114      	bne.n	10005c58 <enum_get_addr0_device_desc_complete+0x30>
10005c2e:	2a00      	cmp	r2, #0
10005c30:	d11a      	bne.n	10005c68 <enum_get_addr0_device_desc_complete+0x40>
10005c32:	4b27      	ldr	r3, [pc, #156]	; (10005cd0 <enum_get_addr0_device_desc_complete+0xa8>)
10005c34:	785b      	ldrb	r3, [r3, #1]
10005c36:	2b01      	cmp	r3, #1
10005c38:	d120      	bne.n	10005c7c <enum_get_addr0_device_desc_complete+0x54>
10005c3a:	4b26      	ldr	r3, [pc, #152]	; (10005cd4 <enum_get_addr0_device_desc_complete+0xac>)
10005c3c:	7858      	ldrb	r0, [r3, #1]
10005c3e:	2800      	cmp	r0, #0
10005c40:	d123      	bne.n	10005c8a <enum_get_addr0_device_desc_complete+0x62>
10005c42:	7818      	ldrb	r0, [r3, #0]
10005c44:	f7ff f816 	bl	10004c74 <hcd_port_reset>
10005c48:	20fa      	movs	r0, #250	; 0xfa
10005c4a:	0040      	lsls	r0, r0, #1
10005c4c:	f7fb fd74 	bl	10001738 <sleep_ms>
10005c50:	f7ff fbbc 	bl	100053cc <enum_request_set_addr>
10005c54:	2401      	movs	r4, #1
10005c56:	e00c      	b.n	10005c72 <enum_get_addr0_device_desc_complete+0x4a>
10005c58:	22b8      	movs	r2, #184	; 0xb8
10005c5a:	0092      	lsls	r2, r2, #2
10005c5c:	491e      	ldr	r1, [pc, #120]	; (10005cd8 <enum_get_addr0_device_desc_complete+0xb0>)
10005c5e:	481f      	ldr	r0, [pc, #124]	; (10005cdc <enum_get_addr0_device_desc_complete+0xb4>)
10005c60:	f7fe fe06 	bl	10004870 <__wrap_printf>
10005c64:	2400      	movs	r4, #0
10005c66:	e004      	b.n	10005c72 <enum_get_addr0_device_desc_complete+0x4a>
10005c68:	4b1a      	ldr	r3, [pc, #104]	; (10005cd4 <enum_get_addr0_device_desc_complete+0xac>)
10005c6a:	7858      	ldrb	r0, [r3, #1]
10005c6c:	2800      	cmp	r0, #0
10005c6e:	d102      	bne.n	10005c76 <enum_get_addr0_device_desc_complete+0x4e>
10005c70:	2400      	movs	r4, #0
10005c72:	0020      	movs	r0, r4
10005c74:	bd10      	pop	{r4, pc}
10005c76:	f000 fc9d 	bl	100065b4 <hub_status_pipe_queue>
10005c7a:	e7f9      	b.n	10005c70 <enum_get_addr0_device_desc_complete+0x48>
10005c7c:	4a18      	ldr	r2, [pc, #96]	; (10005ce0 <enum_get_addr0_device_desc_complete+0xb8>)
10005c7e:	4916      	ldr	r1, [pc, #88]	; (10005cd8 <enum_get_addr0_device_desc_complete+0xb0>)
10005c80:	4816      	ldr	r0, [pc, #88]	; (10005cdc <enum_get_addr0_device_desc_complete+0xb4>)
10005c82:	f7fe fdf5 	bl	10004870 <__wrap_printf>
10005c86:	2400      	movs	r4, #0
10005c88:	e7f3      	b.n	10005c72 <enum_get_addr0_device_desc_complete+0x4a>
10005c8a:	4b12      	ldr	r3, [pc, #72]	; (10005cd4 <enum_get_addr0_device_desc_complete+0xac>)
10005c8c:	7899      	ldrb	r1, [r3, #2]
10005c8e:	2200      	movs	r2, #0
10005c90:	f000 fbc4 	bl	1000641c <hub_port_reset>
10005c94:	1e04      	subs	r4, r0, #0
10005c96:	d014      	beq.n	10005cc2 <enum_get_addr0_device_desc_complete+0x9a>
10005c98:	20fa      	movs	r0, #250	; 0xfa
10005c9a:	0040      	lsls	r0, r0, #1
10005c9c:	f7fb fd4c 	bl	10001738 <sleep_ms>
10005ca0:	f7ff ff2c 	bl	10005afc <tuh_task>
10005ca4:	4b0b      	ldr	r3, [pc, #44]	; (10005cd4 <enum_get_addr0_device_desc_complete+0xac>)
10005ca6:	7899      	ldrb	r1, [r3, #2]
10005ca8:	7858      	ldrb	r0, [r3, #1]
10005caa:	4b0e      	ldr	r3, [pc, #56]	; (10005ce4 <enum_get_addr0_device_desc_complete+0xbc>)
10005cac:	4a08      	ldr	r2, [pc, #32]	; (10005cd0 <enum_get_addr0_device_desc_complete+0xa8>)
10005cae:	f000 fbf3 	bl	10006498 <hub_port_get_status>
10005cb2:	1e04      	subs	r4, r0, #0
10005cb4:	d1dd      	bne.n	10005c72 <enum_get_addr0_device_desc_complete+0x4a>
10005cb6:	4a0c      	ldr	r2, [pc, #48]	; (10005ce8 <enum_get_addr0_device_desc_complete+0xc0>)
10005cb8:	4907      	ldr	r1, [pc, #28]	; (10005cd8 <enum_get_addr0_device_desc_complete+0xb0>)
10005cba:	4808      	ldr	r0, [pc, #32]	; (10005cdc <enum_get_addr0_device_desc_complete+0xb4>)
10005cbc:	f7fe fdd8 	bl	10004870 <__wrap_printf>
10005cc0:	e7d7      	b.n	10005c72 <enum_get_addr0_device_desc_complete+0x4a>
10005cc2:	4a0a      	ldr	r2, [pc, #40]	; (10005cec <enum_get_addr0_device_desc_complete+0xc4>)
10005cc4:	4904      	ldr	r1, [pc, #16]	; (10005cd8 <enum_get_addr0_device_desc_complete+0xb0>)
10005cc6:	4805      	ldr	r0, [pc, #20]	; (10005cdc <enum_get_addr0_device_desc_complete+0xb4>)
10005cc8:	f7fe fdd2 	bl	10004870 <__wrap_printf>
10005ccc:	e7d1      	b.n	10005c72 <enum_get_addr0_device_desc_complete+0x4a>
10005cce:	46c0      	nop			; (mov r8, r8)
10005cd0:	200017e4 	.word	0x200017e4
10005cd4:	20000d64 	.word	0x20000d64
10005cd8:	1000a0f0 	.word	0x1000a0f0
10005cdc:	1000a208 	.word	0x1000a208
10005ce0:	000002ed 	.word	0x000002ed
10005ce4:	1000536d 	.word	0x1000536d
10005ce8:	00000303 	.word	0x00000303
10005cec:	000002fe 	.word	0x000002fe

10005cf0 <enum_hub_clear_reset0_complete>:
10005cf0:	b510      	push	{r4, lr}
10005cf2:	2a00      	cmp	r2, #0
10005cf4:	d103      	bne.n	10005cfe <enum_hub_clear_reset0_complete+0xe>
10005cf6:	f7ff fe8f 	bl	10005a18 <enum_request_addr0_device_desc>
10005cfa:	2001      	movs	r0, #1
10005cfc:	bd10      	pop	{r4, pc}
10005cfe:	2299      	movs	r2, #153	; 0x99
10005d00:	0092      	lsls	r2, r2, #2
10005d02:	4903      	ldr	r1, [pc, #12]	; (10005d10 <enum_hub_clear_reset0_complete+0x20>)
10005d04:	4803      	ldr	r0, [pc, #12]	; (10005d14 <enum_hub_clear_reset0_complete+0x24>)
10005d06:	f7fe fdb3 	bl	10004870 <__wrap_printf>
10005d0a:	2000      	movs	r0, #0
10005d0c:	e7f6      	b.n	10005cfc <enum_hub_clear_reset0_complete+0xc>
10005d0e:	46c0      	nop			; (mov r8, r8)
10005d10:	1000a040 	.word	0x1000a040
10005d14:	1000a208 	.word	0x1000a208

10005d18 <enum_set_address_complete>:
10005d18:	b530      	push	{r4, r5, lr}
10005d1a:	b083      	sub	sp, #12
10005d1c:	2800      	cmp	r0, #0
10005d1e:	d129      	bne.n	10005d74 <enum_set_address_complete+0x5c>
10005d20:	2a00      	cmp	r2, #0
10005d22:	d12f      	bne.n	10005d84 <enum_set_address_complete+0x6c>
10005d24:	788d      	ldrb	r5, [r1, #2]
10005d26:	2d00      	cmp	r5, #0
10005d28:	d033      	beq.n	10005d92 <enum_set_address_complete+0x7a>
10005d2a:	1e6a      	subs	r2, r5, #1
10005d2c:	0093      	lsls	r3, r2, #2
10005d2e:	189b      	adds	r3, r3, r2
10005d30:	011c      	lsls	r4, r3, #4
10005d32:	4b22      	ldr	r3, [pc, #136]	; (10005dbc <enum_set_address_complete+0xa4>)
10005d34:	18e4      	adds	r4, r4, r3
10005d36:	7b23      	ldrb	r3, [r4, #12]
10005d38:	2202      	movs	r2, #2
10005d3a:	4313      	orrs	r3, r2
10005d3c:	7323      	strb	r3, [r4, #12]
10005d3e:	4b20      	ldr	r3, [pc, #128]	; (10005dc0 <enum_set_address_complete+0xa8>)
10005d40:	7818      	ldrb	r0, [r3, #0]
10005d42:	2100      	movs	r1, #0
10005d44:	f7ff f886 	bl	10004e54 <hcd_device_close>
10005d48:	7a21      	ldrb	r1, [r4, #8]
10005d4a:	0028      	movs	r0, r5
10005d4c:	f7ff fe4a 	bl	100059e4 <usbh_edpt_control_open>
10005d50:	1e04      	subs	r4, r0, #0
10005d52:	d025      	beq.n	10005da0 <enum_set_address_complete+0x88>
10005d54:	4669      	mov	r1, sp
10005d56:	4b1b      	ldr	r3, [pc, #108]	; (10005dc4 <enum_set_address_complete+0xac>)
10005d58:	3318      	adds	r3, #24
10005d5a:	000a      	movs	r2, r1
10005d5c:	cb11      	ldmia	r3!, {r0, r4}
10005d5e:	c211      	stmia	r2!, {r0, r4}
10005d60:	4b19      	ldr	r3, [pc, #100]	; (10005dc8 <enum_set_address_complete+0xb0>)
10005d62:	4a1a      	ldr	r2, [pc, #104]	; (10005dcc <enum_set_address_complete+0xb4>)
10005d64:	0028      	movs	r0, r5
10005d66:	f000 fa0f 	bl	10006188 <tuh_control_xfer>
10005d6a:	1e04      	subs	r4, r0, #0
10005d6c:	d01f      	beq.n	10005dae <enum_set_address_complete+0x96>
10005d6e:	0020      	movs	r0, r4
10005d70:	b003      	add	sp, #12
10005d72:	bd30      	pop	{r4, r5, pc}
10005d74:	22cd      	movs	r2, #205	; 0xcd
10005d76:	0092      	lsls	r2, r2, #2
10005d78:	4915      	ldr	r1, [pc, #84]	; (10005dd0 <enum_set_address_complete+0xb8>)
10005d7a:	4816      	ldr	r0, [pc, #88]	; (10005dd4 <enum_set_address_complete+0xbc>)
10005d7c:	f7fe fd78 	bl	10004870 <__wrap_printf>
10005d80:	2400      	movs	r4, #0
10005d82:	e7f4      	b.n	10005d6e <enum_set_address_complete+0x56>
10005d84:	4a14      	ldr	r2, [pc, #80]	; (10005dd8 <enum_set_address_complete+0xc0>)
10005d86:	4912      	ldr	r1, [pc, #72]	; (10005dd0 <enum_set_address_complete+0xb8>)
10005d88:	4812      	ldr	r0, [pc, #72]	; (10005dd4 <enum_set_address_complete+0xbc>)
10005d8a:	f7fe fd71 	bl	10004870 <__wrap_printf>
10005d8e:	2400      	movs	r4, #0
10005d90:	e7ed      	b.n	10005d6e <enum_set_address_complete+0x56>
10005d92:	22dc      	movs	r2, #220	; 0xdc
10005d94:	4911      	ldr	r1, [pc, #68]	; (10005ddc <enum_set_address_complete+0xc4>)
10005d96:	480f      	ldr	r0, [pc, #60]	; (10005dd4 <enum_set_address_complete+0xbc>)
10005d98:	f7fe fd6a 	bl	10004870 <__wrap_printf>
10005d9c:	2400      	movs	r4, #0
10005d9e:	e7ca      	b.n	10005d36 <enum_set_address_complete+0x1e>
10005da0:	22d0      	movs	r2, #208	; 0xd0
10005da2:	0092      	lsls	r2, r2, #2
10005da4:	490a      	ldr	r1, [pc, #40]	; (10005dd0 <enum_set_address_complete+0xb8>)
10005da6:	480b      	ldr	r0, [pc, #44]	; (10005dd4 <enum_set_address_complete+0xbc>)
10005da8:	f7fe fd62 	bl	10004870 <__wrap_printf>
10005dac:	e7df      	b.n	10005d6e <enum_set_address_complete+0x56>
10005dae:	4a0c      	ldr	r2, [pc, #48]	; (10005de0 <enum_set_address_complete+0xc8>)
10005db0:	4907      	ldr	r1, [pc, #28]	; (10005dd0 <enum_set_address_complete+0xb8>)
10005db2:	4808      	ldr	r0, [pc, #32]	; (10005dd4 <enum_set_address_complete+0xbc>)
10005db4:	f7fe fd5c 	bl	10004870 <__wrap_printf>
10005db8:	e7d9      	b.n	10005d6e <enum_set_address_complete+0x56>
10005dba:	46c0      	nop			; (mov r8, r8)
10005dbc:	20001f84 	.word	0x20001f84
10005dc0:	20000d64 	.word	0x20000d64
10005dc4:	10009fec 	.word	0x10009fec
10005dc8:	100054cd 	.word	0x100054cd
10005dcc:	200017e4 	.word	0x200017e4
10005dd0:	1000a12c 	.word	0x1000a12c
10005dd4:	1000a208 	.word	0x1000a208
10005dd8:	00000335 	.word	0x00000335
10005ddc:	1000a01c 	.word	0x1000a01c
10005de0:	00000352 	.word	0x00000352

10005de4 <usbh_get_enum_buf>:
10005de4:	4800      	ldr	r0, [pc, #0]	; (10005de8 <usbh_get_enum_buf+0x4>)
10005de6:	4770      	bx	lr
10005de8:	200017e4 	.word	0x200017e4

10005dec <hcd_event_handler>:
10005dec:	b510      	push	{r4, lr}
10005dee:	0001      	movs	r1, r0
10005df0:	4b0f      	ldr	r3, [pc, #60]	; (10005e30 <hcd_event_handler+0x44>)
10005df2:	681c      	ldr	r4, [r3, #0]
10005df4:	69e2      	ldr	r2, [r4, #28]
10005df6:	f3ef 8310 	mrs	r3, PRIMASK
10005dfa:	b672      	cpsid	i
10005dfc:	6810      	ldr	r0, [r2, #0]
10005dfe:	2800      	cmp	r0, #0
10005e00:	d0fc      	beq.n	10005dfc <hcd_event_handler+0x10>
10005e02:	f3bf 8f5f 	dmb	sy
10005e06:	6223      	str	r3, [r4, #32]
10005e08:	0020      	movs	r0, r4
10005e0a:	f001 fd33 	bl	10007874 <tu_fifo_write>
10005e0e:	69e2      	ldr	r2, [r4, #28]
10005e10:	6a23      	ldr	r3, [r4, #32]
10005e12:	f3bf 8f5f 	dmb	sy
10005e16:	2100      	movs	r1, #0
10005e18:	6011      	str	r1, [r2, #0]
10005e1a:	f383 8810 	msr	PRIMASK, r3
10005e1e:	2800      	cmp	r0, #0
10005e20:	d000      	beq.n	10005e24 <hcd_event_handler+0x38>
10005e22:	bd10      	pop	{r4, pc}
10005e24:	22a8      	movs	r2, #168	; 0xa8
10005e26:	4903      	ldr	r1, [pc, #12]	; (10005e34 <hcd_event_handler+0x48>)
10005e28:	4803      	ldr	r0, [pc, #12]	; (10005e38 <hcd_event_handler+0x4c>)
10005e2a:	f7fe fd21 	bl	10004870 <__wrap_printf>
10005e2e:	e7f8      	b.n	10005e22 <hcd_event_handler+0x36>
10005e30:	200018e4 	.word	0x200018e4
10005e34:	1000a00c 	.word	0x1000a00c
10005e38:	1000a208 	.word	0x1000a208

10005e3c <hcd_event_xfer_complete>:
10005e3c:	b570      	push	{r4, r5, r6, lr}
10005e3e:	b084      	sub	sp, #16
10005e40:	000d      	movs	r5, r1
10005e42:	a908      	add	r1, sp, #32
10005e44:	7809      	ldrb	r1, [r1, #0]
10005e46:	ac01      	add	r4, sp, #4
10005e48:	2600      	movs	r6, #0
10005e4a:	7026      	strb	r6, [r4, #0]
10005e4c:	3602      	adds	r6, #2
10005e4e:	7066      	strb	r6, [r4, #1]
10005e50:	70a0      	strb	r0, [r4, #2]
10005e52:	7125      	strb	r5, [r4, #4]
10005e54:	7163      	strb	r3, [r4, #5]
10005e56:	9203      	str	r2, [sp, #12]
10005e58:	0020      	movs	r0, r4
10005e5a:	f7ff ffc7 	bl	10005dec <hcd_event_handler>
10005e5e:	b004      	add	sp, #16
10005e60:	bd70      	pop	{r4, r5, r6, pc}

10005e62 <hcd_event_device_attach>:
10005e62:	b570      	push	{r4, r5, r6, lr}
10005e64:	b084      	sub	sp, #16
10005e66:	0006      	movs	r6, r0
10005e68:	000d      	movs	r5, r1
10005e6a:	ac01      	add	r4, sp, #4
10005e6c:	220c      	movs	r2, #12
10005e6e:	2100      	movs	r1, #0
10005e70:	0020      	movs	r0, r4
10005e72:	f7fe fb45 	bl	10004500 <__wrap_memset>
10005e76:	7026      	strb	r6, [r4, #0]
10005e78:	0029      	movs	r1, r5
10005e7a:	0020      	movs	r0, r4
10005e7c:	f7ff ffb6 	bl	10005dec <hcd_event_handler>
10005e80:	b004      	add	sp, #16
10005e82:	bd70      	pop	{r4, r5, r6, pc}

10005e84 <hcd_event_device_remove>:
10005e84:	b570      	push	{r4, r5, r6, lr}
10005e86:	b084      	sub	sp, #16
10005e88:	0006      	movs	r6, r0
10005e8a:	000d      	movs	r5, r1
10005e8c:	ac01      	add	r4, sp, #4
10005e8e:	220a      	movs	r2, #10
10005e90:	2100      	movs	r1, #0
10005e92:	466b      	mov	r3, sp
10005e94:	1d98      	adds	r0, r3, #6
10005e96:	f7fe fb33 	bl	10004500 <__wrap_memset>
10005e9a:	7026      	strb	r6, [r4, #0]
10005e9c:	2301      	movs	r3, #1
10005e9e:	7063      	strb	r3, [r4, #1]
10005ea0:	0029      	movs	r1, r5
10005ea2:	0020      	movs	r0, r4
10005ea4:	f7ff ffa2 	bl	10005dec <hcd_event_handler>
10005ea8:	b004      	add	sp, #16
10005eaa:	bd70      	pop	{r4, r5, r6, pc}

10005eac <usbh_driver_set_config_complete>:
10005eac:	b570      	push	{r4, r5, r6, lr}
10005eae:	0005      	movs	r5, r0
10005eb0:	000c      	movs	r4, r1
10005eb2:	2800      	cmp	r0, #0
10005eb4:	d010      	beq.n	10005ed8 <usbh_driver_set_config_complete+0x2c>
10005eb6:	1e42      	subs	r2, r0, #1
10005eb8:	0093      	lsls	r3, r2, #2
10005eba:	189b      	adds	r3, r3, r2
10005ebc:	011a      	lsls	r2, r3, #4
10005ebe:	4b13      	ldr	r3, [pc, #76]	; (10005f0c <usbh_driver_set_config_complete+0x60>)
10005ec0:	18d2      	adds	r2, r2, r3
10005ec2:	3401      	adds	r4, #1
10005ec4:	b2e4      	uxtb	r4, r4
10005ec6:	2c0f      	cmp	r4, #15
10005ec8:	d816      	bhi.n	10005ef8 <usbh_driver_set_config_complete+0x4c>
10005eca:	1913      	adds	r3, r2, r4
10005ecc:	7b9b      	ldrb	r3, [r3, #14]
10005ece:	2bff      	cmp	r3, #255	; 0xff
10005ed0:	d109      	bne.n	10005ee6 <usbh_driver_set_config_complete+0x3a>
10005ed2:	3401      	adds	r4, #1
10005ed4:	b2e4      	uxtb	r4, r4
10005ed6:	e7f6      	b.n	10005ec6 <usbh_driver_set_config_complete+0x1a>
10005ed8:	22dc      	movs	r2, #220	; 0xdc
10005eda:	490d      	ldr	r1, [pc, #52]	; (10005f10 <usbh_driver_set_config_complete+0x64>)
10005edc:	480d      	ldr	r0, [pc, #52]	; (10005f14 <usbh_driver_set_config_complete+0x68>)
10005ede:	f7fe fcc7 	bl	10004870 <__wrap_printf>
10005ee2:	2200      	movs	r2, #0
10005ee4:	e7ed      	b.n	10005ec2 <usbh_driver_set_config_complete+0x16>
10005ee6:	009a      	lsls	r2, r3, #2
10005ee8:	18d3      	adds	r3, r2, r3
10005eea:	009a      	lsls	r2, r3, #2
10005eec:	4b0a      	ldr	r3, [pc, #40]	; (10005f18 <usbh_driver_set_config_complete+0x6c>)
10005eee:	189b      	adds	r3, r3, r2
10005ef0:	689b      	ldr	r3, [r3, #8]
10005ef2:	0021      	movs	r1, r4
10005ef4:	0028      	movs	r0, r5
10005ef6:	4798      	blx	r3
10005ef8:	2c10      	cmp	r4, #16
10005efa:	d000      	beq.n	10005efe <usbh_driver_set_config_complete+0x52>
10005efc:	bd70      	pop	{r4, r5, r6, pc}
10005efe:	4b07      	ldr	r3, [pc, #28]	; (10005f1c <usbh_driver_set_config_complete+0x70>)
10005f00:	2b00      	cmp	r3, #0
10005f02:	d0fb      	beq.n	10005efc <usbh_driver_set_config_complete+0x50>
10005f04:	0028      	movs	r0, r5
10005f06:	f7fa fb55 	bl	100005b4 <tuh_mount_cb>
10005f0a:	e7f7      	b.n	10005efc <usbh_driver_set_config_complete+0x50>
10005f0c:	20001f84 	.word	0x20001f84
10005f10:	1000a01c 	.word	0x1000a01c
10005f14:	1000a208 	.word	0x1000a208
10005f18:	1000a220 	.word	0x1000a220
10005f1c:	100005b5 	.word	0x100005b5

10005f20 <enum_set_config_complete>:
10005f20:	b510      	push	{r4, lr}
10005f22:	0004      	movs	r4, r0
10005f24:	2a00      	cmp	r2, #0
10005f26:	d113      	bne.n	10005f50 <enum_set_config_complete+0x30>
10005f28:	2800      	cmp	r0, #0
10005f2a:	d018      	beq.n	10005f5e <enum_set_config_complete+0x3e>
10005f2c:	1e43      	subs	r3, r0, #1
10005f2e:	009a      	lsls	r2, r3, #2
10005f30:	18d2      	adds	r2, r2, r3
10005f32:	0113      	lsls	r3, r2, #4
10005f34:	4a0d      	ldr	r2, [pc, #52]	; (10005f6c <enum_set_config_complete+0x4c>)
10005f36:	189b      	adds	r3, r3, r2
10005f38:	7b1a      	ldrb	r2, [r3, #12]
10005f3a:	2104      	movs	r1, #4
10005f3c:	430a      	orrs	r2, r1
10005f3e:	731a      	strb	r2, [r3, #12]
10005f40:	2201      	movs	r2, #1
10005f42:	735a      	strb	r2, [r3, #13]
10005f44:	21ff      	movs	r1, #255	; 0xff
10005f46:	0020      	movs	r0, r4
10005f48:	f7ff ffb0 	bl	10005eac <usbh_driver_set_config_complete>
10005f4c:	2001      	movs	r0, #1
10005f4e:	bd10      	pop	{r4, pc}
10005f50:	4a07      	ldr	r2, [pc, #28]	; (10005f70 <enum_set_config_complete+0x50>)
10005f52:	4908      	ldr	r1, [pc, #32]	; (10005f74 <enum_set_config_complete+0x54>)
10005f54:	4808      	ldr	r0, [pc, #32]	; (10005f78 <enum_set_config_complete+0x58>)
10005f56:	f7fe fc8b 	bl	10004870 <__wrap_printf>
10005f5a:	2000      	movs	r0, #0
10005f5c:	e7f7      	b.n	10005f4e <enum_set_config_complete+0x2e>
10005f5e:	22dc      	movs	r2, #220	; 0xdc
10005f60:	4906      	ldr	r1, [pc, #24]	; (10005f7c <enum_set_config_complete+0x5c>)
10005f62:	4805      	ldr	r0, [pc, #20]	; (10005f78 <enum_set_config_complete+0x58>)
10005f64:	f7fe fc84 	bl	10004870 <__wrap_printf>
10005f68:	2300      	movs	r3, #0
10005f6a:	e7e5      	b.n	10005f38 <enum_set_config_complete+0x18>
10005f6c:	20001f84 	.word	0x20001f84
10005f70:	000003bf 	.word	0x000003bf
10005f74:	1000a1ac 	.word	0x1000a1ac
10005f78:	1000a208 	.word	0x1000a208
10005f7c:	1000a01c 	.word	0x1000a01c

10005f80 <usbh_edpt_claim>:
10005f80:	b5f8      	push	{r3, r4, r5, r6, r7, lr}
10005f82:	257f      	movs	r5, #127	; 0x7f
10005f84:	400d      	ands	r5, r1
10005f86:	09cf      	lsrs	r7, r1, #7
10005f88:	2800      	cmp	r0, #0
10005f8a:	d029      	beq.n	10005fe0 <usbh_edpt_claim+0x60>
10005f8c:	3801      	subs	r0, #1
10005f8e:	0083      	lsls	r3, r0, #2
10005f90:	1818      	adds	r0, r3, r0
10005f92:	0106      	lsls	r6, r0, #4
10005f94:	4b1f      	ldr	r3, [pc, #124]	; (10006014 <usbh_edpt_claim+0x94>)
10005f96:	18f6      	adds	r6, r6, r3
10005f98:	006b      	lsls	r3, r5, #1
10005f9a:	18f3      	adds	r3, r6, r3
10005f9c:	19db      	adds	r3, r3, r7
10005f9e:	3330      	adds	r3, #48	; 0x30
10005fa0:	781c      	ldrb	r4, [r3, #0]
10005fa2:	07e4      	lsls	r4, r4, #31
10005fa4:	0fe4      	lsrs	r4, r4, #31
10005fa6:	d131      	bne.n	1000600c <usbh_edpt_claim+0x8c>
10005fa8:	006b      	lsls	r3, r5, #1
10005faa:	18f3      	adds	r3, r6, r3
10005fac:	19db      	adds	r3, r3, r7
10005fae:	3330      	adds	r3, #48	; 0x30
10005fb0:	781b      	ldrb	r3, [r3, #0]
10005fb2:	075b      	lsls	r3, r3, #29
10005fb4:	d42b      	bmi.n	1000600e <usbh_edpt_claim+0x8e>
10005fb6:	2101      	movs	r1, #1
10005fb8:	4249      	negs	r1, r1
10005fba:	6cf0      	ldr	r0, [r6, #76]	; 0x4c
10005fbc:	f002 fc84 	bl	100088c8 <__mutex_enter_timeout_ms_veneer>
10005fc0:	006b      	lsls	r3, r5, #1
10005fc2:	18f3      	adds	r3, r6, r3
10005fc4:	19db      	adds	r3, r3, r7
10005fc6:	3330      	adds	r3, #48	; 0x30
10005fc8:	781b      	ldrb	r3, [r3, #0]
10005fca:	07db      	lsls	r3, r3, #31
10005fcc:	d40f      	bmi.n	10005fee <usbh_edpt_claim+0x6e>
10005fce:	006b      	lsls	r3, r5, #1
10005fd0:	18f3      	adds	r3, r6, r3
10005fd2:	19db      	adds	r3, r3, r7
10005fd4:	3330      	adds	r3, #48	; 0x30
10005fd6:	781b      	ldrb	r3, [r3, #0]
10005fd8:	075b      	lsls	r3, r3, #29
10005fda:	d409      	bmi.n	10005ff0 <usbh_edpt_claim+0x70>
10005fdc:	2401      	movs	r4, #1
10005fde:	e007      	b.n	10005ff0 <usbh_edpt_claim+0x70>
10005fe0:	22dc      	movs	r2, #220	; 0xdc
10005fe2:	490d      	ldr	r1, [pc, #52]	; (10006018 <usbh_edpt_claim+0x98>)
10005fe4:	480d      	ldr	r0, [pc, #52]	; (1000601c <usbh_edpt_claim+0x9c>)
10005fe6:	f7fe fc43 	bl	10004870 <__wrap_printf>
10005fea:	2600      	movs	r6, #0
10005fec:	e7d4      	b.n	10005f98 <usbh_edpt_claim+0x18>
10005fee:	2400      	movs	r4, #0
10005ff0:	2c00      	cmp	r4, #0
10005ff2:	d007      	beq.n	10006004 <usbh_edpt_claim+0x84>
10005ff4:	006d      	lsls	r5, r5, #1
10005ff6:	1975      	adds	r5, r6, r5
10005ff8:	19ef      	adds	r7, r5, r7
10005ffa:	3730      	adds	r7, #48	; 0x30
10005ffc:	783b      	ldrb	r3, [r7, #0]
10005ffe:	2204      	movs	r2, #4
10006000:	4313      	orrs	r3, r2
10006002:	703b      	strb	r3, [r7, #0]
10006004:	6cf0      	ldr	r0, [r6, #76]	; 0x4c
10006006:	f002 fc3f 	bl	10008888 <__mutex_exit_veneer>
1000600a:	e000      	b.n	1000600e <usbh_edpt_claim+0x8e>
1000600c:	2400      	movs	r4, #0
1000600e:	0020      	movs	r0, r4
10006010:	bdf8      	pop	{r3, r4, r5, r6, r7, pc}
10006012:	46c0      	nop			; (mov r8, r8)
10006014:	20001f84 	.word	0x20001f84
10006018:	1000a01c 	.word	0x1000a01c
1000601c:	1000a208 	.word	0x1000a208

10006020 <usbh_edpt_xfer>:
10006020:	b5f0      	push	{r4, r5, r6, r7, lr}
10006022:	46c6      	mov	lr, r8
10006024:	b500      	push	{lr}
10006026:	b084      	sub	sp, #16
10006028:	0006      	movs	r6, r0
1000602a:	4688      	mov	r8, r1
1000602c:	9202      	str	r2, [sp, #8]
1000602e:	9303      	str	r3, [sp, #12]
10006030:	277f      	movs	r7, #127	; 0x7f
10006032:	400f      	ands	r7, r1
10006034:	09cd      	lsrs	r5, r1, #7
10006036:	2800      	cmp	r0, #0
10006038:	d02b      	beq.n	10006092 <usbh_edpt_xfer+0x72>
1000603a:	1e42      	subs	r2, r0, #1
1000603c:	0093      	lsls	r3, r2, #2
1000603e:	189b      	adds	r3, r3, r2
10006040:	011c      	lsls	r4, r3, #4
10006042:	4b1c      	ldr	r3, [pc, #112]	; (100060b4 <usbh_edpt_xfer+0x94>)
10006044:	18e4      	adds	r4, r4, r3
10006046:	007b      	lsls	r3, r7, #1
10006048:	18e3      	adds	r3, r4, r3
1000604a:	195b      	adds	r3, r3, r5
1000604c:	3330      	adds	r3, #48	; 0x30
1000604e:	781b      	ldrb	r3, [r3, #0]
10006050:	07db      	lsls	r3, r3, #31
10006052:	d425      	bmi.n	100060a0 <usbh_edpt_xfer+0x80>
10006054:	007b      	lsls	r3, r7, #1
10006056:	18e3      	adds	r3, r4, r3
10006058:	195b      	adds	r3, r3, r5
1000605a:	3330      	adds	r3, #48	; 0x30
1000605c:	781a      	ldrb	r2, [r3, #0]
1000605e:	2101      	movs	r1, #1
10006060:	430a      	orrs	r2, r1
10006062:	701a      	strb	r2, [r3, #0]
10006064:	7820      	ldrb	r0, [r4, #0]
10006066:	9b03      	ldr	r3, [sp, #12]
10006068:	9300      	str	r3, [sp, #0]
1000606a:	9b02      	ldr	r3, [sp, #8]
1000606c:	4642      	mov	r2, r8
1000606e:	0031      	movs	r1, r6
10006070:	f7fe ff24 	bl	10004ebc <hcd_edpt_xfer>
10006074:	2800      	cmp	r0, #0
10006076:	d119      	bne.n	100060ac <usbh_edpt_xfer+0x8c>
10006078:	007f      	lsls	r7, r7, #1
1000607a:	19e4      	adds	r4, r4, r7
1000607c:	1964      	adds	r4, r4, r5
1000607e:	3430      	adds	r4, #48	; 0x30
10006080:	7823      	ldrb	r3, [r4, #0]
10006082:	2201      	movs	r2, #1
10006084:	4393      	bics	r3, r2
10006086:	7023      	strb	r3, [r4, #0]
10006088:	7823      	ldrb	r3, [r4, #0]
1000608a:	3203      	adds	r2, #3
1000608c:	4393      	bics	r3, r2
1000608e:	7023      	strb	r3, [r4, #0]
10006090:	e00c      	b.n	100060ac <usbh_edpt_xfer+0x8c>
10006092:	22dc      	movs	r2, #220	; 0xdc
10006094:	4908      	ldr	r1, [pc, #32]	; (100060b8 <usbh_edpt_xfer+0x98>)
10006096:	4809      	ldr	r0, [pc, #36]	; (100060bc <usbh_edpt_xfer+0x9c>)
10006098:	f7fe fbea 	bl	10004870 <__wrap_printf>
1000609c:	2400      	movs	r4, #0
1000609e:	e7d2      	b.n	10006046 <usbh_edpt_xfer+0x26>
100060a0:	4a07      	ldr	r2, [pc, #28]	; (100060c0 <usbh_edpt_xfer+0xa0>)
100060a2:	4908      	ldr	r1, [pc, #32]	; (100060c4 <usbh_edpt_xfer+0xa4>)
100060a4:	4805      	ldr	r0, [pc, #20]	; (100060bc <usbh_edpt_xfer+0x9c>)
100060a6:	f7fe fbe3 	bl	10004870 <__wrap_printf>
100060aa:	2000      	movs	r0, #0
100060ac:	b004      	add	sp, #16
100060ae:	bc04      	pop	{r2}
100060b0:	4690      	mov	r8, r2
100060b2:	bdf0      	pop	{r4, r5, r6, r7, pc}
100060b4:	20001f84 	.word	0x20001f84
100060b8:	1000a01c 	.word	0x1000a01c
100060bc:	1000a208 	.word	0x1000a208
100060c0:	00000471 	.word	0x00000471
100060c4:	1000a1e8 	.word	0x1000a1e8

100060c8 <usbh_edpt_open>:
100060c8:	b5f8      	push	{r3, r4, r5, r6, r7, lr}
100060ca:	0006      	movs	r6, r0
100060cc:	000f      	movs	r7, r1
100060ce:	0015      	movs	r5, r2
100060d0:	2900      	cmp	r1, #0
100060d2:	d013      	beq.n	100060fc <usbh_edpt_open+0x34>
100060d4:	1e4b      	subs	r3, r1, #1
100060d6:	009a      	lsls	r2, r3, #2
100060d8:	18d2      	adds	r2, r2, r3
100060da:	0113      	lsls	r3, r2, #4
100060dc:	4a0e      	ldr	r2, [pc, #56]	; (10006118 <usbh_edpt_open+0x50>)
100060de:	189b      	adds	r3, r3, r2
100060e0:	78d9      	ldrb	r1, [r3, #3]
100060e2:	0028      	movs	r0, r5
100060e4:	f001 fad4 	bl	10007690 <tu_edpt_validate>
100060e8:	1e04      	subs	r4, r0, #0
100060ea:	d00e      	beq.n	1000610a <usbh_edpt_open+0x42>
100060ec:	002a      	movs	r2, r5
100060ee:	0039      	movs	r1, r7
100060f0:	0030      	movs	r0, r6
100060f2:	f7fe fec7 	bl	10004e84 <hcd_edpt_open>
100060f6:	0004      	movs	r4, r0
100060f8:	0020      	movs	r0, r4
100060fa:	bdf8      	pop	{r3, r4, r5, r6, r7, pc}
100060fc:	22dc      	movs	r2, #220	; 0xdc
100060fe:	4907      	ldr	r1, [pc, #28]	; (1000611c <usbh_edpt_open+0x54>)
10006100:	4807      	ldr	r0, [pc, #28]	; (10006120 <usbh_edpt_open+0x58>)
10006102:	f7fe fbb5 	bl	10004870 <__wrap_printf>
10006106:	2300      	movs	r3, #0
10006108:	e7ea      	b.n	100060e0 <usbh_edpt_open+0x18>
1000610a:	4a06      	ldr	r2, [pc, #24]	; (10006124 <usbh_edpt_open+0x5c>)
1000610c:	4906      	ldr	r1, [pc, #24]	; (10006128 <usbh_edpt_open+0x60>)
1000610e:	4804      	ldr	r0, [pc, #16]	; (10006120 <usbh_edpt_open+0x58>)
10006110:	f7fe fbae 	bl	10004870 <__wrap_printf>
10006114:	e7f0      	b.n	100060f8 <usbh_edpt_open+0x30>
10006116:	46c0      	nop			; (mov r8, r8)
10006118:	20001f84 	.word	0x20001f84
1000611c:	1000a01c 	.word	0x1000a01c
10006120:	1000a208 	.word	0x1000a208
10006124:	0000049a 	.word	0x0000049a
10006128:	1000a1f8 	.word	0x1000a1f8

1000612c <usbh_edpt_busy>:
1000612c:	b570      	push	{r4, r5, r6, lr}
1000612e:	247f      	movs	r4, #127	; 0x7f
10006130:	400c      	ands	r4, r1
10006132:	09cd      	lsrs	r5, r1, #7
10006134:	2800      	cmp	r0, #0
10006136:	d00d      	beq.n	10006154 <usbh_edpt_busy+0x28>
10006138:	3801      	subs	r0, #1
1000613a:	0083      	lsls	r3, r0, #2
1000613c:	1818      	adds	r0, r3, r0
1000613e:	0103      	lsls	r3, r0, #4
10006140:	4908      	ldr	r1, [pc, #32]	; (10006164 <usbh_edpt_busy+0x38>)
10006142:	185b      	adds	r3, r3, r1
10006144:	0064      	lsls	r4, r4, #1
10006146:	191b      	adds	r3, r3, r4
10006148:	195b      	adds	r3, r3, r5
1000614a:	3330      	adds	r3, #48	; 0x30
1000614c:	7818      	ldrb	r0, [r3, #0]
1000614e:	07c0      	lsls	r0, r0, #31
10006150:	0fc0      	lsrs	r0, r0, #31
10006152:	bd70      	pop	{r4, r5, r6, pc}
10006154:	22dc      	movs	r2, #220	; 0xdc
10006156:	4904      	ldr	r1, [pc, #16]	; (10006168 <usbh_edpt_busy+0x3c>)
10006158:	4804      	ldr	r0, [pc, #16]	; (1000616c <usbh_edpt_busy+0x40>)
1000615a:	f7fe fb89 	bl	10004870 <__wrap_printf>
1000615e:	2300      	movs	r3, #0
10006160:	e7f0      	b.n	10006144 <usbh_edpt_busy+0x18>
10006162:	46c0      	nop			; (mov r8, r8)
10006164:	20001f84 	.word	0x20001f84
10006168:	1000a01c 	.word	0x1000a01c
1000616c:	1000a208 	.word	0x1000a208

10006170 <_xfer_complete>:
10006170:	b510      	push	{r4, lr}
10006172:	4b04      	ldr	r3, [pc, #16]	; (10006184 <_xfer_complete+0x14>)
10006174:	691b      	ldr	r3, [r3, #16]
10006176:	2b00      	cmp	r3, #0
10006178:	d002      	beq.n	10006180 <_xfer_complete+0x10>
1000617a:	000a      	movs	r2, r1
1000617c:	4901      	ldr	r1, [pc, #4]	; (10006184 <_xfer_complete+0x14>)
1000617e:	4798      	blx	r3
10006180:	bd10      	pop	{r4, pc}
10006182:	46c0      	nop			; (mov r8, r8)
10006184:	20000d50 	.word	0x20000d50

10006188 <tuh_control_xfer>:
10006188:	b5f0      	push	{r4, r5, r6, r7, lr}
1000618a:	b083      	sub	sp, #12
1000618c:	0005      	movs	r5, r0
1000618e:	9100      	str	r1, [sp, #0]
10006190:	0017      	movs	r7, r2
10006192:	001e      	movs	r6, r3
10006194:	f7ff fc16 	bl	100059c4 <usbh_get_rhport>
10006198:	9001      	str	r0, [sp, #4]
1000619a:	4c0d      	ldr	r4, [pc, #52]	; (100061d0 <tuh_control_xfer+0x48>)
1000619c:	2208      	movs	r2, #8
1000619e:	9900      	ldr	r1, [sp, #0]
100061a0:	0020      	movs	r0, r4
100061a2:	f7fe f9b3 	bl	1000450c <__wrap___aeabi_memcpy>
100061a6:	60e7      	str	r7, [r4, #12]
100061a8:	2300      	movs	r3, #0
100061aa:	7223      	strb	r3, [r4, #8]
100061ac:	6126      	str	r6, [r4, #16]
100061ae:	0022      	movs	r2, r4
100061b0:	0029      	movs	r1, r5
100061b2:	9801      	ldr	r0, [sp, #4]
100061b4:	f7fe feea 	bl	10004f8c <hcd_setup_send>
100061b8:	1e04      	subs	r4, r0, #0
100061ba:	d002      	beq.n	100061c2 <tuh_control_xfer+0x3a>
100061bc:	0020      	movs	r0, r4
100061be:	b003      	add	sp, #12
100061c0:	bdf0      	pop	{r4, r5, r6, r7, pc}
100061c2:	224a      	movs	r2, #74	; 0x4a
100061c4:	4903      	ldr	r1, [pc, #12]	; (100061d4 <tuh_control_xfer+0x4c>)
100061c6:	4804      	ldr	r0, [pc, #16]	; (100061d8 <tuh_control_xfer+0x50>)
100061c8:	f7fe fb52 	bl	10004870 <__wrap_printf>
100061cc:	e7f6      	b.n	100061bc <tuh_control_xfer+0x34>
100061ce:	46c0      	nop			; (mov r8, r8)
100061d0:	20000d50 	.word	0x20000d50
100061d4:	1000a270 	.word	0x1000a270
100061d8:	1000a208 	.word	0x1000a208

100061dc <usbh_control_xfer_cb>:
100061dc:	b530      	push	{r4, r5, lr}
100061de:	b083      	sub	sp, #12
100061e0:	0004      	movs	r4, r0
100061e2:	0015      	movs	r5, r2
100061e4:	f7ff fbee 	bl	100059c4 <usbh_get_rhport>
100061e8:	2d00      	cmp	r5, #0
100061ea:	d10a      	bne.n	10006202 <usbh_control_xfer_cb+0x26>
100061ec:	4b1e      	ldr	r3, [pc, #120]	; (10006268 <usbh_control_xfer_cb+0x8c>)
100061ee:	7a1b      	ldrb	r3, [r3, #8]
100061f0:	2b01      	cmp	r3, #1
100061f2:	d012      	beq.n	1000621a <usbh_control_xfer_cb+0x3e>
100061f4:	2b00      	cmp	r3, #0
100061f6:	d00a      	beq.n	1000620e <usbh_control_xfer_cb+0x32>
100061f8:	2b02      	cmp	r3, #2
100061fa:	d02e      	beq.n	1000625a <usbh_control_xfer_cb+0x7e>
100061fc:	2000      	movs	r0, #0
100061fe:	b003      	add	sp, #12
10006200:	bd30      	pop	{r4, r5, pc}
10006202:	0029      	movs	r1, r5
10006204:	0020      	movs	r0, r4
10006206:	f7ff ffb3 	bl	10006170 <_xfer_complete>
1000620a:	2001      	movs	r0, #1
1000620c:	e7f7      	b.n	100061fe <usbh_control_xfer_cb+0x22>
1000620e:	4b16      	ldr	r3, [pc, #88]	; (10006268 <usbh_control_xfer_cb+0x8c>)
10006210:	2201      	movs	r2, #1
10006212:	721a      	strb	r2, [r3, #8]
10006214:	88d9      	ldrh	r1, [r3, #6]
10006216:	2900      	cmp	r1, #0
10006218:	d10e      	bne.n	10006238 <usbh_control_xfer_cb+0x5c>
1000621a:	4b13      	ldr	r3, [pc, #76]	; (10006268 <usbh_control_xfer_cb+0x8c>)
1000621c:	2202      	movs	r2, #2
1000621e:	721a      	strb	r2, [r3, #8]
10006220:	781b      	ldrb	r3, [r3, #0]
10006222:	09db      	lsrs	r3, r3, #7
10006224:	d117      	bne.n	10006256 <usbh_control_xfer_cb+0x7a>
10006226:	3a82      	subs	r2, #130	; 0x82
10006228:	b2d2      	uxtb	r2, r2
1000622a:	2300      	movs	r3, #0
1000622c:	9300      	str	r3, [sp, #0]
1000622e:	0021      	movs	r1, r4
10006230:	f7fe fe44 	bl	10004ebc <hcd_edpt_xfer>
10006234:	2001      	movs	r0, #1
10006236:	e7e2      	b.n	100061fe <usbh_control_xfer_cb+0x22>
10006238:	781b      	ldrb	r3, [r3, #0]
1000623a:	09db      	lsrs	r3, r3, #7
1000623c:	d009      	beq.n	10006252 <usbh_control_xfer_cb+0x76>
1000623e:	3a81      	subs	r2, #129	; 0x81
10006240:	b2d2      	uxtb	r2, r2
10006242:	4b09      	ldr	r3, [pc, #36]	; (10006268 <usbh_control_xfer_cb+0x8c>)
10006244:	68db      	ldr	r3, [r3, #12]
10006246:	9100      	str	r1, [sp, #0]
10006248:	0021      	movs	r1, r4
1000624a:	f7fe fe37 	bl	10004ebc <hcd_edpt_xfer>
1000624e:	2001      	movs	r0, #1
10006250:	e7d5      	b.n	100061fe <usbh_control_xfer_cb+0x22>
10006252:	2200      	movs	r2, #0
10006254:	e7f4      	b.n	10006240 <usbh_control_xfer_cb+0x64>
10006256:	2200      	movs	r2, #0
10006258:	e7e6      	b.n	10006228 <usbh_control_xfer_cb+0x4c>
1000625a:	0029      	movs	r1, r5
1000625c:	0020      	movs	r0, r4
1000625e:	f7ff ff87 	bl	10006170 <_xfer_complete>
10006262:	2001      	movs	r0, #1
10006264:	e7cb      	b.n	100061fe <usbh_control_xfer_cb+0x22>
10006266:	46c0      	nop			; (mov r8, r8)
10006268:	20000d50 	.word	0x20000d50

1000626c <connection_port_reset_complete>:
1000626c:	b570      	push	{r4, r5, r6, lr}
1000626e:	b084      	sub	sp, #16
10006270:	0005      	movs	r5, r0
10006272:	2a00      	cmp	r2, #0
10006274:	d113      	bne.n	1000629e <connection_port_reset_complete+0x32>
10006276:	790e      	ldrb	r6, [r1, #4]
10006278:	ac01      	add	r4, sp, #4
1000627a:	220c      	movs	r2, #12
1000627c:	2100      	movs	r1, #0
1000627e:	0020      	movs	r0, r4
10006280:	f7fe f93e 	bl	10004500 <__wrap_memset>
10006284:	0028      	movs	r0, r5
10006286:	f7ff fb9d 	bl	100059c4 <usbh_get_rhport>
1000628a:	7020      	strb	r0, [r4, #0]
1000628c:	7125      	strb	r5, [r4, #4]
1000628e:	7166      	strb	r6, [r4, #5]
10006290:	2100      	movs	r1, #0
10006292:	0020      	movs	r0, r4
10006294:	f7ff fdaa 	bl	10005dec <hcd_event_handler>
10006298:	2001      	movs	r0, #1
1000629a:	b004      	add	sp, #16
1000629c:	bd70      	pop	{r4, r5, r6, pc}
1000629e:	22b7      	movs	r2, #183	; 0xb7
100062a0:	0052      	lsls	r2, r2, #1
100062a2:	4903      	ldr	r1, [pc, #12]	; (100062b0 <connection_port_reset_complete+0x44>)
100062a4:	4803      	ldr	r0, [pc, #12]	; (100062b4 <connection_port_reset_complete+0x48>)
100062a6:	f7fe fae3 	bl	10004870 <__wrap_printf>
100062aa:	2000      	movs	r0, #0
100062ac:	e7f5      	b.n	1000629a <connection_port_reset_complete+0x2e>
100062ae:	46c0      	nop			; (mov r8, r8)
100062b0:	1000a374 	.word	0x1000a374
100062b4:	1000a208 	.word	0x1000a208

100062b8 <hub_port_clear_feature>:
100062b8:	b530      	push	{r4, r5, lr}
100062ba:	b083      	sub	sp, #12
100062bc:	466c      	mov	r4, sp
100062be:	7824      	ldrb	r4, [r4, #0]
100062c0:	251f      	movs	r5, #31
100062c2:	43ac      	bics	r4, r5
100062c4:	2503      	movs	r5, #3
100062c6:	432c      	orrs	r4, r5
100062c8:	2560      	movs	r5, #96	; 0x60
100062ca:	43ac      	bics	r4, r5
100062cc:	2520      	movs	r5, #32
100062ce:	432c      	orrs	r4, r5
100062d0:	257f      	movs	r5, #127	; 0x7f
100062d2:	402c      	ands	r4, r5
100062d4:	466d      	mov	r5, sp
100062d6:	702c      	strb	r4, [r5, #0]
100062d8:	2401      	movs	r4, #1
100062da:	706c      	strb	r4, [r5, #1]
100062dc:	806a      	strh	r2, [r5, #2]
100062de:	80a9      	strh	r1, [r5, #4]
100062e0:	2200      	movs	r2, #0
100062e2:	4669      	mov	r1, sp
100062e4:	80ea      	strh	r2, [r5, #6]
100062e6:	f7ff ff4f 	bl	10006188 <tuh_control_xfer>
100062ea:	1e04      	subs	r4, r0, #0
100062ec:	d002      	beq.n	100062f4 <hub_port_clear_feature+0x3c>
100062ee:	0020      	movs	r0, r4
100062f0:	b003      	add	sp, #12
100062f2:	bd30      	pop	{r4, r5, pc}
100062f4:	2261      	movs	r2, #97	; 0x61
100062f6:	4902      	ldr	r1, [pc, #8]	; (10006300 <hub_port_clear_feature+0x48>)
100062f8:	4802      	ldr	r0, [pc, #8]	; (10006304 <hub_port_clear_feature+0x4c>)
100062fa:	f7fe fab9 	bl	10004870 <__wrap_printf>
100062fe:	e7f6      	b.n	100062ee <hub_port_clear_feature+0x36>
10006300:	1000a28c 	.word	0x1000a28c
10006304:	1000a208 	.word	0x1000a208

10006308 <hub_port_set_feature>:
10006308:	b530      	push	{r4, r5, lr}
1000630a:	b083      	sub	sp, #12
1000630c:	466c      	mov	r4, sp
1000630e:	7824      	ldrb	r4, [r4, #0]
10006310:	251f      	movs	r5, #31
10006312:	43ac      	bics	r4, r5
10006314:	2503      	movs	r5, #3
10006316:	432c      	orrs	r4, r5
10006318:	2560      	movs	r5, #96	; 0x60
1000631a:	43ac      	bics	r4, r5
1000631c:	2520      	movs	r5, #32
1000631e:	432c      	orrs	r4, r5
10006320:	257f      	movs	r5, #127	; 0x7f
10006322:	402c      	ands	r4, r5
10006324:	466d      	mov	r5, sp
10006326:	702c      	strb	r4, [r5, #0]
10006328:	2403      	movs	r4, #3
1000632a:	706c      	strb	r4, [r5, #1]
1000632c:	806a      	strh	r2, [r5, #2]
1000632e:	80a9      	strh	r1, [r5, #4]
10006330:	2200      	movs	r2, #0
10006332:	4669      	mov	r1, sp
10006334:	80ea      	strh	r2, [r5, #6]
10006336:	f7ff ff27 	bl	10006188 <tuh_control_xfer>
1000633a:	1e04      	subs	r4, r0, #0
1000633c:	d002      	beq.n	10006344 <hub_port_set_feature+0x3c>
1000633e:	0020      	movs	r0, r4
10006340:	b003      	add	sp, #12
10006342:	bd30      	pop	{r4, r5, pc}
10006344:	2276      	movs	r2, #118	; 0x76
10006346:	4902      	ldr	r1, [pc, #8]	; (10006350 <hub_port_set_feature+0x48>)
10006348:	4802      	ldr	r0, [pc, #8]	; (10006354 <hub_port_set_feature+0x4c>)
1000634a:	f7fe fa91 	bl	10004870 <__wrap_printf>
1000634e:	e7f6      	b.n	1000633e <hub_port_set_feature+0x36>
10006350:	1000a2a4 	.word	0x1000a2a4
10006354:	1000a208 	.word	0x1000a208

10006358 <config_set_port_power>:
10006358:	b510      	push	{r4, lr}
1000635a:	2a00      	cmp	r2, #0
1000635c:	d10c      	bne.n	10006378 <config_set_port_power+0x20>
1000635e:	1f43      	subs	r3, r0, #5
10006360:	4a09      	ldr	r2, [pc, #36]	; (10006388 <config_set_port_power+0x30>)
10006362:	7891      	ldrb	r1, [r2, #2]
10006364:	00da      	lsls	r2, r3, #3
10006366:	4b09      	ldr	r3, [pc, #36]	; (1000638c <config_set_port_power+0x34>)
10006368:	189b      	adds	r3, r3, r2
1000636a:	7099      	strb	r1, [r3, #2]
1000636c:	4b08      	ldr	r3, [pc, #32]	; (10006390 <config_set_port_power+0x38>)
1000636e:	2208      	movs	r2, #8
10006370:	2101      	movs	r1, #1
10006372:	f7ff ffc9 	bl	10006308 <hub_port_set_feature>
10006376:	bd10      	pop	{r4, pc}
10006378:	22ea      	movs	r2, #234	; 0xea
1000637a:	4906      	ldr	r1, [pc, #24]	; (10006394 <config_set_port_power+0x3c>)
1000637c:	4806      	ldr	r0, [pc, #24]	; (10006398 <config_set_port_power+0x40>)
1000637e:	f7fe fa77 	bl	10004870 <__wrap_printf>
10006382:	2000      	movs	r0, #0
10006384:	e7f7      	b.n	10006376 <config_set_port_power+0x1e>
10006386:	46c0      	nop			; (mov r8, r8)
10006388:	20001634 	.word	0x20001634
1000638c:	20001c10 	.word	0x20001c10
10006390:	1000639d 	.word	0x1000639d
10006394:	1000a2ec 	.word	0x1000a2ec
10006398:	1000a208 	.word	0x1000a208

1000639c <config_port_power_complete>:
1000639c:	b570      	push	{r4, r5, r6, lr}
1000639e:	0004      	movs	r4, r0
100063a0:	2a00      	cmp	r2, #0
100063a2:	d11a      	bne.n	100063da <config_port_power_complete+0x3e>
100063a4:	1f46      	subs	r6, r0, #5
100063a6:	790b      	ldrb	r3, [r1, #4]
100063a8:	7949      	ldrb	r1, [r1, #5]
100063aa:	0209      	lsls	r1, r1, #8
100063ac:	4319      	orrs	r1, r3
100063ae:	00f2      	lsls	r2, r6, #3
100063b0:	4b16      	ldr	r3, [pc, #88]	; (1000640c <config_port_power_complete+0x70>)
100063b2:	189b      	adds	r3, r3, r2
100063b4:	789b      	ldrb	r3, [r3, #2]
100063b6:	4299      	cmp	r1, r3
100063b8:	d11d      	bne.n	100063f6 <config_port_power_complete+0x5a>
100063ba:	4b14      	ldr	r3, [pc, #80]	; (1000640c <config_port_power_complete+0x70>)
100063bc:	189b      	adds	r3, r3, r2
100063be:	1cda      	adds	r2, r3, #3
100063c0:	7859      	ldrb	r1, [r3, #1]
100063c2:	2301      	movs	r3, #1
100063c4:	f7ff fe2c 	bl	10006020 <usbh_edpt_xfer>
100063c8:	1e05      	subs	r5, r0, #0
100063ca:	d00d      	beq.n	100063e8 <config_port_power_complete+0x4c>
100063cc:	00f6      	lsls	r6, r6, #3
100063ce:	4b0f      	ldr	r3, [pc, #60]	; (1000640c <config_port_power_complete+0x70>)
100063d0:	5cf1      	ldrb	r1, [r6, r3]
100063d2:	0020      	movs	r0, r4
100063d4:	f7ff fd6a 	bl	10005eac <usbh_driver_set_config_complete>
100063d8:	e015      	b.n	10006406 <config_port_power_complete+0x6a>
100063da:	22fb      	movs	r2, #251	; 0xfb
100063dc:	490c      	ldr	r1, [pc, #48]	; (10006410 <config_port_power_complete+0x74>)
100063de:	480d      	ldr	r0, [pc, #52]	; (10006414 <config_port_power_complete+0x78>)
100063e0:	f7fe fa46 	bl	10004870 <__wrap_printf>
100063e4:	2500      	movs	r5, #0
100063e6:	e00e      	b.n	10006406 <config_port_power_complete+0x6a>
100063e8:	2281      	movs	r2, #129	; 0x81
100063ea:	0052      	lsls	r2, r2, #1
100063ec:	4908      	ldr	r1, [pc, #32]	; (10006410 <config_port_power_complete+0x74>)
100063ee:	4809      	ldr	r0, [pc, #36]	; (10006414 <config_port_power_complete+0x78>)
100063f0:	f7fe fa3e 	bl	10004870 <__wrap_printf>
100063f4:	e007      	b.n	10006406 <config_port_power_complete+0x6a>
100063f6:	b2c9      	uxtb	r1, r1
100063f8:	3101      	adds	r1, #1
100063fa:	b2c9      	uxtb	r1, r1
100063fc:	4b06      	ldr	r3, [pc, #24]	; (10006418 <config_port_power_complete+0x7c>)
100063fe:	2208      	movs	r2, #8
10006400:	f7ff ff82 	bl	10006308 <hub_port_set_feature>
10006404:	0005      	movs	r5, r0
10006406:	0028      	movs	r0, r5
10006408:	bd70      	pop	{r4, r5, r6, pc}
1000640a:	46c0      	nop			; (mov r8, r8)
1000640c:	20001c10 	.word	0x20001c10
10006410:	1000a304 	.word	0x1000a304
10006414:	1000a208 	.word	0x1000a208
10006418:	1000639d 	.word	0x1000639d

1000641c <hub_port_reset>:
1000641c:	b510      	push	{r4, lr}
1000641e:	0013      	movs	r3, r2
10006420:	2204      	movs	r2, #4
10006422:	f7ff ff71 	bl	10006308 <hub_port_set_feature>
10006426:	bd10      	pop	{r4, pc}

10006428 <connection_clear_conn_change_complete>:
10006428:	b570      	push	{r4, r5, r6, lr}
1000642a:	b084      	sub	sp, #16
1000642c:	0004      	movs	r4, r0
1000642e:	2a00      	cmp	r2, #0
10006430:	d10e      	bne.n	10006450 <connection_clear_conn_change_complete+0x28>
10006432:	1f43      	subs	r3, r0, #5
10006434:	790e      	ldrb	r6, [r1, #4]
10006436:	00db      	lsls	r3, r3, #3
10006438:	4a13      	ldr	r2, [pc, #76]	; (10006488 <connection_clear_conn_change_complete+0x60>)
1000643a:	18d3      	adds	r3, r2, r3
1000643c:	791b      	ldrb	r3, [r3, #4]
1000643e:	07db      	lsls	r3, r3, #31
10006440:	d50e      	bpl.n	10006460 <connection_clear_conn_change_complete+0x38>
10006442:	4a12      	ldr	r2, [pc, #72]	; (1000648c <connection_clear_conn_change_complete+0x64>)
10006444:	0031      	movs	r1, r6
10006446:	f7ff ffe9 	bl	1000641c <hub_port_reset>
1000644a:	2001      	movs	r0, #1
1000644c:	b004      	add	sp, #16
1000644e:	bd70      	pop	{r4, r5, r6, pc}
10006450:	2250      	movs	r2, #80	; 0x50
10006452:	32ff      	adds	r2, #255	; 0xff
10006454:	490e      	ldr	r1, [pc, #56]	; (10006490 <connection_clear_conn_change_complete+0x68>)
10006456:	480f      	ldr	r0, [pc, #60]	; (10006494 <connection_clear_conn_change_complete+0x6c>)
10006458:	f7fe fa0a 	bl	10004870 <__wrap_printf>
1000645c:	2000      	movs	r0, #0
1000645e:	e7f5      	b.n	1000644c <connection_clear_conn_change_complete+0x24>
10006460:	ad01      	add	r5, sp, #4
10006462:	220c      	movs	r2, #12
10006464:	2100      	movs	r1, #0
10006466:	0028      	movs	r0, r5
10006468:	f7fe f84a 	bl	10004500 <__wrap_memset>
1000646c:	0020      	movs	r0, r4
1000646e:	f7ff faa9 	bl	100059c4 <usbh_get_rhport>
10006472:	7028      	strb	r0, [r5, #0]
10006474:	2301      	movs	r3, #1
10006476:	706b      	strb	r3, [r5, #1]
10006478:	712c      	strb	r4, [r5, #4]
1000647a:	716e      	strb	r6, [r5, #5]
1000647c:	2100      	movs	r1, #0
1000647e:	0028      	movs	r0, r5
10006480:	f7ff fcb4 	bl	10005dec <hcd_event_handler>
10006484:	2001      	movs	r0, #1
10006486:	e7e1      	b.n	1000644c <connection_clear_conn_change_complete+0x24>
10006488:	20001c10 	.word	0x20001c10
1000648c:	1000626d 	.word	0x1000626d
10006490:	1000a34c 	.word	0x1000a34c
10006494:	1000a208 	.word	0x1000a208

10006498 <hub_port_get_status>:
10006498:	b530      	push	{r4, r5, lr}
1000649a:	b083      	sub	sp, #12
1000649c:	466c      	mov	r4, sp
1000649e:	7824      	ldrb	r4, [r4, #0]
100064a0:	251f      	movs	r5, #31
100064a2:	43ac      	bics	r4, r5
100064a4:	2503      	movs	r5, #3
100064a6:	432c      	orrs	r4, r5
100064a8:	2560      	movs	r5, #96	; 0x60
100064aa:	43ac      	bics	r4, r5
100064ac:	2520      	movs	r5, #32
100064ae:	432c      	orrs	r4, r5
100064b0:	2580      	movs	r5, #128	; 0x80
100064b2:	426d      	negs	r5, r5
100064b4:	432c      	orrs	r4, r5
100064b6:	466d      	mov	r5, sp
100064b8:	702c      	strb	r4, [r5, #0]
100064ba:	2400      	movs	r4, #0
100064bc:	706c      	strb	r4, [r5, #1]
100064be:	806c      	strh	r4, [r5, #2]
100064c0:	80a9      	strh	r1, [r5, #4]
100064c2:	2104      	movs	r1, #4
100064c4:	80e9      	strh	r1, [r5, #6]
100064c6:	4669      	mov	r1, sp
100064c8:	f7ff fe5e 	bl	10006188 <tuh_control_xfer>
100064cc:	1e04      	subs	r4, r0, #0
100064ce:	d002      	beq.n	100064d6 <hub_port_get_status+0x3e>
100064d0:	0020      	movs	r0, r4
100064d2:	b003      	add	sp, #12
100064d4:	bd30      	pop	{r4, r5, pc}
100064d6:	2290      	movs	r2, #144	; 0x90
100064d8:	4902      	ldr	r1, [pc, #8]	; (100064e4 <hub_port_get_status+0x4c>)
100064da:	4803      	ldr	r0, [pc, #12]	; (100064e8 <hub_port_get_status+0x50>)
100064dc:	f7fe f9c8 	bl	10004870 <__wrap_printf>
100064e0:	e7f6      	b.n	100064d0 <hub_port_get_status+0x38>
100064e2:	46c0      	nop			; (mov r8, r8)
100064e4:	1000a2bc 	.word	0x1000a2bc
100064e8:	1000a208 	.word	0x1000a208

100064ec <hub_init>:
100064ec:	b510      	push	{r4, lr}
100064ee:	2208      	movs	r2, #8
100064f0:	2100      	movs	r1, #0
100064f2:	4802      	ldr	r0, [pc, #8]	; (100064fc <hub_init+0x10>)
100064f4:	f7fe f804 	bl	10004500 <__wrap_memset>
100064f8:	bd10      	pop	{r4, pc}
100064fa:	46c0      	nop			; (mov r8, r8)
100064fc:	20001c10 	.word	0x20001c10

10006500 <hub_open>:
10006500:	b5f8      	push	{r3, r4, r5, r6, r7, lr}
10006502:	000e      	movs	r6, r1
10006504:	0014      	movs	r4, r2
10006506:	7952      	ldrb	r2, [r2, #5]
10006508:	2a09      	cmp	r2, #9
1000650a:	d133      	bne.n	10006574 <hub_open+0x74>
1000650c:	79a2      	ldrb	r2, [r4, #6]
1000650e:	2a00      	cmp	r2, #0
10006510:	d133      	bne.n	1000657a <hub_open+0x7a>
10006512:	79e2      	ldrb	r2, [r4, #7]
10006514:	2a01      	cmp	r2, #1
10006516:	d832      	bhi.n	1000657e <hub_open+0x7e>
10006518:	2b0f      	cmp	r3, #15
1000651a:	d910      	bls.n	1000653e <hub_open+0x3e>
1000651c:	7827      	ldrb	r7, [r4, #0]
1000651e:	19e7      	adds	r7, r4, r7
10006520:	787b      	ldrb	r3, [r7, #1]
10006522:	2b05      	cmp	r3, #5
10006524:	d104      	bne.n	10006530 <hub_open+0x30>
10006526:	78fa      	ldrb	r2, [r7, #3]
10006528:	3b02      	subs	r3, #2
1000652a:	4013      	ands	r3, r2
1000652c:	2b03      	cmp	r3, #3
1000652e:	d00d      	beq.n	1000654c <hub_open+0x4c>
10006530:	22ac      	movs	r2, #172	; 0xac
10006532:	4914      	ldr	r1, [pc, #80]	; (10006584 <hub_open+0x84>)
10006534:	4814      	ldr	r0, [pc, #80]	; (10006588 <hub_open+0x88>)
10006536:	f7fe f99b 	bl	10004870 <__wrap_printf>
1000653a:	2500      	movs	r5, #0
1000653c:	e01b      	b.n	10006576 <hub_open+0x76>
1000653e:	22a6      	movs	r2, #166	; 0xa6
10006540:	4910      	ldr	r1, [pc, #64]	; (10006584 <hub_open+0x84>)
10006542:	4811      	ldr	r0, [pc, #68]	; (10006588 <hub_open+0x88>)
10006544:	f7fe f994 	bl	10004870 <__wrap_printf>
10006548:	2500      	movs	r5, #0
1000654a:	e014      	b.n	10006576 <hub_open+0x76>
1000654c:	003a      	movs	r2, r7
1000654e:	f7ff fdbb 	bl	100060c8 <usbh_edpt_open>
10006552:	1e05      	subs	r5, r0, #0
10006554:	d008      	beq.n	10006568 <hub_open+0x68>
10006556:	3e05      	subs	r6, #5
10006558:	78a2      	ldrb	r2, [r4, #2]
1000655a:	4b0c      	ldr	r3, [pc, #48]	; (1000658c <hub_open+0x8c>)
1000655c:	00f6      	lsls	r6, r6, #3
1000655e:	54f2      	strb	r2, [r6, r3]
10006560:	78ba      	ldrb	r2, [r7, #2]
10006562:	199e      	adds	r6, r3, r6
10006564:	7072      	strb	r2, [r6, #1]
10006566:	e006      	b.n	10006576 <hub_open+0x76>
10006568:	22ae      	movs	r2, #174	; 0xae
1000656a:	4906      	ldr	r1, [pc, #24]	; (10006584 <hub_open+0x84>)
1000656c:	4806      	ldr	r0, [pc, #24]	; (10006588 <hub_open+0x88>)
1000656e:	f7fe f97f 	bl	10004870 <__wrap_printf>
10006572:	e000      	b.n	10006576 <hub_open+0x76>
10006574:	2500      	movs	r5, #0
10006576:	0028      	movs	r0, r5
10006578:	bdf8      	pop	{r3, r4, r5, r6, r7, pc}
1000657a:	2500      	movs	r5, #0
1000657c:	e7fb      	b.n	10006576 <hub_open+0x76>
1000657e:	2500      	movs	r5, #0
10006580:	e7f9      	b.n	10006576 <hub_open+0x76>
10006582:	46c0      	nop			; (mov r8, r8)
10006584:	1000a2d0 	.word	0x1000a2d0
10006588:	1000a208 	.word	0x1000a208
1000658c:	20001c10 	.word	0x20001c10

10006590 <hub_close>:
10006590:	b510      	push	{r4, lr}
10006592:	2804      	cmp	r0, #4
10006594:	d906      	bls.n	100065a4 <hub_close+0x14>
10006596:	3805      	subs	r0, #5
10006598:	00c0      	lsls	r0, r0, #3
1000659a:	4b05      	ldr	r3, [pc, #20]	; (100065b0 <hub_close+0x20>)
1000659c:	1818      	adds	r0, r3, r0
1000659e:	7843      	ldrb	r3, [r0, #1]
100065a0:	2b00      	cmp	r3, #0
100065a2:	d100      	bne.n	100065a6 <hub_close+0x16>
100065a4:	bd10      	pop	{r4, pc}
100065a6:	2208      	movs	r2, #8
100065a8:	2100      	movs	r1, #0
100065aa:	f7fd ffa9 	bl	10004500 <__wrap_memset>
100065ae:	e7f9      	b.n	100065a4 <hub_close+0x14>
100065b0:	20001c10 	.word	0x20001c10

100065b4 <hub_status_pipe_queue>:
100065b4:	b510      	push	{r4, lr}
100065b6:	1f42      	subs	r2, r0, #5
100065b8:	00d2      	lsls	r2, r2, #3
100065ba:	4b04      	ldr	r3, [pc, #16]	; (100065cc <hub_status_pipe_queue+0x18>)
100065bc:	189b      	adds	r3, r3, r2
100065be:	1cda      	adds	r2, r3, #3
100065c0:	7859      	ldrb	r1, [r3, #1]
100065c2:	2301      	movs	r3, #1
100065c4:	f7ff fd2c 	bl	10006020 <usbh_edpt_xfer>
100065c8:	bd10      	pop	{r4, pc}
100065ca:	46c0      	nop			; (mov r8, r8)
100065cc:	20001c10 	.word	0x20001c10

100065d0 <connection_get_status_complete>:
100065d0:	b510      	push	{r4, lr}
100065d2:	2a00      	cmp	r2, #0
100065d4:	d10d      	bne.n	100065f2 <connection_get_status_complete+0x22>
100065d6:	1f43      	subs	r3, r0, #5
100065d8:	7909      	ldrb	r1, [r1, #4]
100065da:	00db      	lsls	r3, r3, #3
100065dc:	4a0b      	ldr	r2, [pc, #44]	; (1000660c <connection_get_status_complete+0x3c>)
100065de:	18d3      	adds	r3, r2, r3
100065e0:	799b      	ldrb	r3, [r3, #6]
100065e2:	07db      	lsls	r3, r3, #31
100065e4:	d50d      	bpl.n	10006602 <connection_get_status_complete+0x32>
100065e6:	4b0a      	ldr	r3, [pc, #40]	; (10006610 <connection_get_status_complete+0x40>)
100065e8:	2210      	movs	r2, #16
100065ea:	f7ff fe65 	bl	100062b8 <hub_port_clear_feature>
100065ee:	2001      	movs	r0, #1
100065f0:	bd10      	pop	{r4, pc}
100065f2:	2234      	movs	r2, #52	; 0x34
100065f4:	32ff      	adds	r2, #255	; 0xff
100065f6:	4907      	ldr	r1, [pc, #28]	; (10006614 <connection_get_status_complete+0x44>)
100065f8:	4807      	ldr	r0, [pc, #28]	; (10006618 <connection_get_status_complete+0x48>)
100065fa:	f7fe f939 	bl	10004870 <__wrap_printf>
100065fe:	2000      	movs	r0, #0
10006600:	e7f6      	b.n	100065f0 <connection_get_status_complete+0x20>
10006602:	f7ff ffd7 	bl	100065b4 <hub_status_pipe_queue>
10006606:	2001      	movs	r0, #1
10006608:	e7f2      	b.n	100065f0 <connection_get_status_complete+0x20>
1000660a:	46c0      	nop			; (mov r8, r8)
1000660c:	20001c10 	.word	0x20001c10
10006610:	10006429 	.word	0x10006429
10006614:	1000a32c 	.word	0x1000a32c
10006618:	1000a208 	.word	0x1000a208

1000661c <hub_set_config>:
1000661c:	b530      	push	{r4, r5, lr}
1000661e:	b083      	sub	sp, #12
10006620:	1f43      	subs	r3, r0, #5
10006622:	00db      	lsls	r3, r3, #3
10006624:	4a0e      	ldr	r2, [pc, #56]	; (10006660 <hub_set_config+0x44>)
10006626:	5c9b      	ldrb	r3, [r3, r2]
10006628:	428b      	cmp	r3, r1
1000662a:	d008      	beq.n	1000663e <hub_set_config+0x22>
1000662c:	22d1      	movs	r2, #209	; 0xd1
1000662e:	490d      	ldr	r1, [pc, #52]	; (10006664 <hub_set_config+0x48>)
10006630:	480d      	ldr	r0, [pc, #52]	; (10006668 <hub_set_config+0x4c>)
10006632:	f7fe f91d 	bl	10004870 <__wrap_printf>
10006636:	2400      	movs	r4, #0
10006638:	0020      	movs	r0, r4
1000663a:	b003      	add	sp, #12
1000663c:	bd30      	pop	{r4, r5, pc}
1000663e:	4669      	mov	r1, sp
10006640:	4b0a      	ldr	r3, [pc, #40]	; (1000666c <hub_set_config+0x50>)
10006642:	000a      	movs	r2, r1
10006644:	cb30      	ldmia	r3!, {r4, r5}
10006646:	c230      	stmia	r2!, {r4, r5}
10006648:	4b09      	ldr	r3, [pc, #36]	; (10006670 <hub_set_config+0x54>)
1000664a:	4a0a      	ldr	r2, [pc, #40]	; (10006674 <hub_set_config+0x58>)
1000664c:	f7ff fd9c 	bl	10006188 <tuh_control_xfer>
10006650:	1e04      	subs	r4, r0, #0
10006652:	d1f1      	bne.n	10006638 <hub_set_config+0x1c>
10006654:	22e2      	movs	r2, #226	; 0xe2
10006656:	4903      	ldr	r1, [pc, #12]	; (10006664 <hub_set_config+0x48>)
10006658:	4803      	ldr	r0, [pc, #12]	; (10006668 <hub_set_config+0x4c>)
1000665a:	f7fe f909 	bl	10004870 <__wrap_printf>
1000665e:	e7eb      	b.n	10006638 <hub_set_config+0x1c>
10006660:	20001c10 	.word	0x20001c10
10006664:	1000a2dc 	.word	0x1000a2dc
10006668:	1000a208 	.word	0x1000a208
1000666c:	1000a284 	.word	0x1000a284
10006670:	10006359 	.word	0x10006359
10006674:	20001634 	.word	0x20001634

10006678 <hub_xfer_cb>:
10006678:	b510      	push	{r4, lr}
1000667a:	2a00      	cmp	r2, #0
1000667c:	d111      	bne.n	100066a2 <hub_xfer_cb+0x2a>
1000667e:	1f44      	subs	r4, r0, #5
10006680:	2101      	movs	r1, #1
10006682:	00e2      	lsls	r2, r4, #3
10006684:	4b10      	ldr	r3, [pc, #64]	; (100066c8 <hub_xfer_cb+0x50>)
10006686:	189b      	adds	r3, r3, r2
10006688:	789b      	ldrb	r3, [r3, #2]
1000668a:	428b      	cmp	r3, r1
1000668c:	d31a      	bcc.n	100066c4 <hub_xfer_cb+0x4c>
1000668e:	00e2      	lsls	r2, r4, #3
10006690:	4b0d      	ldr	r3, [pc, #52]	; (100066c8 <hub_xfer_cb+0x50>)
10006692:	189b      	adds	r3, r3, r2
10006694:	78db      	ldrb	r3, [r3, #3]
10006696:	40cb      	lsrs	r3, r1
10006698:	07db      	lsls	r3, r3, #31
1000669a:	d40a      	bmi.n	100066b2 <hub_xfer_cb+0x3a>
1000669c:	3101      	adds	r1, #1
1000669e:	b2c9      	uxtb	r1, r1
100066a0:	e7ef      	b.n	10006682 <hub_xfer_cb+0xa>
100066a2:	228e      	movs	r2, #142	; 0x8e
100066a4:	0052      	lsls	r2, r2, #1
100066a6:	4909      	ldr	r1, [pc, #36]	; (100066cc <hub_xfer_cb+0x54>)
100066a8:	4809      	ldr	r0, [pc, #36]	; (100066d0 <hub_xfer_cb+0x58>)
100066aa:	f7fe f8e1 	bl	10004870 <__wrap_printf>
100066ae:	2000      	movs	r0, #0
100066b0:	e009      	b.n	100066c6 <hub_xfer_cb+0x4e>
100066b2:	0014      	movs	r4, r2
100066b4:	4a04      	ldr	r2, [pc, #16]	; (100066c8 <hub_xfer_cb+0x50>)
100066b6:	1912      	adds	r2, r2, r4
100066b8:	3204      	adds	r2, #4
100066ba:	4b06      	ldr	r3, [pc, #24]	; (100066d4 <hub_xfer_cb+0x5c>)
100066bc:	f7ff feec 	bl	10006498 <hub_port_get_status>
100066c0:	2001      	movs	r0, #1
100066c2:	e000      	b.n	100066c6 <hub_xfer_cb+0x4e>
100066c4:	2001      	movs	r0, #1
100066c6:	bd10      	pop	{r4, pc}
100066c8:	20001c10 	.word	0x20001c10
100066cc:	1000a320 	.word	0x1000a320
100066d0:	1000a208 	.word	0x1000a208
100066d4:	100065d1 	.word	0x100065d1

100066d8 <tuh_cdc_mounted>:
100066d8:	3801      	subs	r0, #1
100066da:	0043      	lsls	r3, r0, #1
100066dc:	181b      	adds	r3, r3, r0
100066de:	005a      	lsls	r2, r3, #1
100066e0:	4b07      	ldr	r3, [pc, #28]	; (10006700 <tuh_cdc_mounted+0x28>)
100066e2:	189b      	adds	r3, r3, r2
100066e4:	78db      	ldrb	r3, [r3, #3]
100066e6:	2b00      	cmp	r3, #0
100066e8:	d006      	beq.n	100066f8 <tuh_cdc_mounted+0x20>
100066ea:	4b05      	ldr	r3, [pc, #20]	; (10006700 <tuh_cdc_mounted+0x28>)
100066ec:	189b      	adds	r3, r3, r2
100066ee:	791b      	ldrb	r3, [r3, #4]
100066f0:	2b00      	cmp	r3, #0
100066f2:	d103      	bne.n	100066fc <tuh_cdc_mounted+0x24>
100066f4:	2000      	movs	r0, #0
100066f6:	e000      	b.n	100066fa <tuh_cdc_mounted+0x22>
100066f8:	2000      	movs	r0, #0
100066fa:	4770      	bx	lr
100066fc:	2001      	movs	r0, #1
100066fe:	e7fc      	b.n	100066fa <tuh_cdc_mounted+0x22>
10006700:	200018f8 	.word	0x200018f8

10006704 <tuh_cdc_receive>:
10006704:	b5f8      	push	{r3, r4, r5, r6, r7, lr}
10006706:	0004      	movs	r4, r0
10006708:	000e      	movs	r6, r1
1000670a:	0015      	movs	r5, r2
1000670c:	f7ff ffe4 	bl	100066d8 <tuh_cdc_mounted>
10006710:	2800      	cmp	r0, #0
10006712:	d003      	beq.n	1000671c <tuh_cdc_receive+0x18>
10006714:	2e00      	cmp	r6, #0
10006716:	d001      	beq.n	1000671c <tuh_cdc_receive+0x18>
10006718:	2d00      	cmp	r5, #0
1000671a:	d100      	bne.n	1000671e <tuh_cdc_receive+0x1a>
1000671c:	bdf8      	pop	{r3, r4, r5, r6, r7, pc}
1000671e:	1e62      	subs	r2, r4, #1
10006720:	0053      	lsls	r3, r2, #1
10006722:	189b      	adds	r3, r3, r2
10006724:	005a      	lsls	r2, r3, #1
10006726:	4b09      	ldr	r3, [pc, #36]	; (1000674c <tuh_cdc_receive+0x48>)
10006728:	189b      	adds	r3, r3, r2
1000672a:	78df      	ldrb	r7, [r3, #3]
1000672c:	0039      	movs	r1, r7
1000672e:	0020      	movs	r0, r4
10006730:	f7ff fcfc 	bl	1000612c <usbh_edpt_busy>
10006734:	2800      	cmp	r0, #0
10006736:	d001      	beq.n	1000673c <tuh_cdc_receive+0x38>
10006738:	2000      	movs	r0, #0
1000673a:	e7ef      	b.n	1000671c <tuh_cdc_receive+0x18>
1000673c:	b2ab      	uxth	r3, r5
1000673e:	0032      	movs	r2, r6
10006740:	0039      	movs	r1, r7
10006742:	0020      	movs	r0, r4
10006744:	f7ff fc6c 	bl	10006020 <usbh_edpt_xfer>
10006748:	e7e8      	b.n	1000671c <tuh_cdc_receive+0x18>
1000674a:	46c0      	nop			; (mov r8, r8)
1000674c:	200018f8 	.word	0x200018f8

10006750 <cdch_init>:
10006750:	b510      	push	{r4, lr}
10006752:	2218      	movs	r2, #24
10006754:	2100      	movs	r1, #0
10006756:	4802      	ldr	r0, [pc, #8]	; (10006760 <cdch_init+0x10>)
10006758:	f7fd fed2 	bl	10004500 <__wrap_memset>
1000675c:	bd10      	pop	{r4, pc}
1000675e:	46c0      	nop			; (mov r8, r8)
10006760:	200018f8 	.word	0x200018f8

10006764 <cdch_open>:
10006764:	b5f0      	push	{r4, r5, r6, r7, lr}
10006766:	46ce      	mov	lr, r9
10006768:	b500      	push	{lr}
1000676a:	b082      	sub	sp, #8
1000676c:	9001      	str	r0, [sp, #4]
1000676e:	000d      	movs	r5, r1
10006770:	7951      	ldrb	r1, [r2, #5]
10006772:	2902      	cmp	r1, #2
10006774:	d000      	beq.n	10006778 <cdch_open+0x14>
10006776:	e08a      	b.n	1000688e <cdch_open+0x12a>
10006778:	7991      	ldrb	r1, [r2, #6]
1000677a:	2902      	cmp	r1, #2
1000677c:	d000      	beq.n	10006780 <cdch_open+0x1c>
1000677e:	e08c      	b.n	1000689a <cdch_open+0x136>
10006780:	79d1      	ldrb	r1, [r2, #7]
10006782:	29ff      	cmp	r1, #255	; 0xff
10006784:	d100      	bne.n	10006788 <cdch_open+0x24>
10006786:	e08a      	b.n	1000689e <cdch_open+0x13a>
10006788:	1e6e      	subs	r6, r5, #1
1000678a:	7891      	ldrb	r1, [r2, #2]
1000678c:	468c      	mov	ip, r1
1000678e:	4845      	ldr	r0, [pc, #276]	; (100068a4 <cdch_open+0x140>)
10006790:	0071      	lsls	r1, r6, #1
10006792:	198f      	adds	r7, r1, r6
10006794:	007c      	lsls	r4, r7, #1
10006796:	4667      	mov	r7, ip
10006798:	5427      	strb	r7, [r4, r0]
1000679a:	79d7      	ldrb	r7, [r2, #7]
1000679c:	1900      	adds	r0, r0, r4
1000679e:	7047      	strb	r7, [r0, #1]
100067a0:	7814      	ldrb	r4, [r2, #0]
100067a2:	b2a1      	uxth	r1, r4
100067a4:	1914      	adds	r4, r2, r4
100067a6:	e003      	b.n	100067b0 <cdch_open+0x4c>
100067a8:	7822      	ldrb	r2, [r4, #0]
100067aa:	1851      	adds	r1, r2, r1
100067ac:	b289      	uxth	r1, r1
100067ae:	18a4      	adds	r4, r4, r2
100067b0:	7862      	ldrb	r2, [r4, #1]
100067b2:	2a24      	cmp	r2, #36	; 0x24
100067b4:	d10c      	bne.n	100067d0 <cdch_open+0x6c>
100067b6:	4299      	cmp	r1, r3
100067b8:	d80a      	bhi.n	100067d0 <cdch_open+0x6c>
100067ba:	78a2      	ldrb	r2, [r4, #2]
100067bc:	2a02      	cmp	r2, #2
100067be:	d1f3      	bne.n	100067a8 <cdch_open+0x44>
100067c0:	0072      	lsls	r2, r6, #1
100067c2:	1992      	adds	r2, r2, r6
100067c4:	0050      	lsls	r0, r2, #1
100067c6:	4a37      	ldr	r2, [pc, #220]	; (100068a4 <cdch_open+0x140>)
100067c8:	1812      	adds	r2, r2, r0
100067ca:	78e0      	ldrb	r0, [r4, #3]
100067cc:	7150      	strb	r0, [r2, #5]
100067ce:	e7eb      	b.n	100067a8 <cdch_open+0x44>
100067d0:	2a05      	cmp	r2, #5
100067d2:	d004      	beq.n	100067de <cdch_open+0x7a>
100067d4:	7863      	ldrb	r3, [r4, #1]
100067d6:	2b04      	cmp	r3, #4
100067d8:	d018      	beq.n	1000680c <cdch_open+0xa8>
100067da:	2701      	movs	r7, #1
100067dc:	e058      	b.n	10006890 <cdch_open+0x12c>
100067de:	0022      	movs	r2, r4
100067e0:	0029      	movs	r1, r5
100067e2:	9801      	ldr	r0, [sp, #4]
100067e4:	f7ff fc70 	bl	100060c8 <usbh_edpt_open>
100067e8:	1e07      	subs	r7, r0, #0
100067ea:	d009      	beq.n	10006800 <cdch_open+0x9c>
100067ec:	78a1      	ldrb	r1, [r4, #2]
100067ee:	0073      	lsls	r3, r6, #1
100067f0:	199b      	adds	r3, r3, r6
100067f2:	005a      	lsls	r2, r3, #1
100067f4:	4b2b      	ldr	r3, [pc, #172]	; (100068a4 <cdch_open+0x140>)
100067f6:	189b      	adds	r3, r3, r2
100067f8:	7099      	strb	r1, [r3, #2]
100067fa:	7823      	ldrb	r3, [r4, #0]
100067fc:	18e4      	adds	r4, r4, r3
100067fe:	e7e9      	b.n	100067d4 <cdch_open+0x70>
10006800:	22bd      	movs	r2, #189	; 0xbd
10006802:	4929      	ldr	r1, [pc, #164]	; (100068a8 <cdch_open+0x144>)
10006804:	4829      	ldr	r0, [pc, #164]	; (100068ac <cdch_open+0x148>)
10006806:	f7fe f833 	bl	10004870 <__wrap_printf>
1000680a:	e041      	b.n	10006890 <cdch_open+0x12c>
1000680c:	7963      	ldrb	r3, [r4, #5]
1000680e:	2b0a      	cmp	r3, #10
10006810:	d001      	beq.n	10006816 <cdch_open+0xb2>
10006812:	2701      	movs	r7, #1
10006814:	e03c      	b.n	10006890 <cdch_open+0x12c>
10006816:	7822      	ldrb	r2, [r4, #0]
10006818:	18a4      	adds	r4, r4, r2
1000681a:	2300      	movs	r3, #0
1000681c:	4699      	mov	r9, r3
1000681e:	e017      	b.n	10006850 <cdch_open+0xec>
10006820:	22d0      	movs	r2, #208	; 0xd0
10006822:	4921      	ldr	r1, [pc, #132]	; (100068a8 <cdch_open+0x144>)
10006824:	4821      	ldr	r0, [pc, #132]	; (100068ac <cdch_open+0x148>)
10006826:	f7fe f823 	bl	10004870 <__wrap_printf>
1000682a:	2700      	movs	r7, #0
1000682c:	e030      	b.n	10006890 <cdch_open+0x12c>
1000682e:	22d2      	movs	r2, #210	; 0xd2
10006830:	491d      	ldr	r1, [pc, #116]	; (100068a8 <cdch_open+0x144>)
10006832:	481e      	ldr	r0, [pc, #120]	; (100068ac <cdch_open+0x148>)
10006834:	f7fe f81c 	bl	10004870 <__wrap_printf>
10006838:	e02a      	b.n	10006890 <cdch_open+0x12c>
1000683a:	0073      	lsls	r3, r6, #1
1000683c:	199b      	adds	r3, r3, r6
1000683e:	0059      	lsls	r1, r3, #1
10006840:	4b18      	ldr	r3, [pc, #96]	; (100068a4 <cdch_open+0x140>)
10006842:	185b      	adds	r3, r3, r1
10006844:	711a      	strb	r2, [r3, #4]
10006846:	7823      	ldrb	r3, [r4, #0]
10006848:	18e4      	adds	r4, r4, r3
1000684a:	2301      	movs	r3, #1
1000684c:	469c      	mov	ip, r3
1000684e:	44e1      	add	r9, ip
10006850:	464b      	mov	r3, r9
10006852:	2b01      	cmp	r3, #1
10006854:	d819      	bhi.n	1000688a <cdch_open+0x126>
10006856:	7863      	ldrb	r3, [r4, #1]
10006858:	2b05      	cmp	r3, #5
1000685a:	d1e1      	bne.n	10006820 <cdch_open+0xbc>
1000685c:	78e2      	ldrb	r2, [r4, #3]
1000685e:	3b02      	subs	r3, #2
10006860:	4013      	ands	r3, r2
10006862:	2b02      	cmp	r3, #2
10006864:	d1dc      	bne.n	10006820 <cdch_open+0xbc>
10006866:	0022      	movs	r2, r4
10006868:	0029      	movs	r1, r5
1000686a:	9801      	ldr	r0, [sp, #4]
1000686c:	f7ff fc2c 	bl	100060c8 <usbh_edpt_open>
10006870:	1e07      	subs	r7, r0, #0
10006872:	d0dc      	beq.n	1000682e <cdch_open+0xca>
10006874:	78a2      	ldrb	r2, [r4, #2]
10006876:	09d3      	lsrs	r3, r2, #7
10006878:	2b01      	cmp	r3, #1
1000687a:	d1de      	bne.n	1000683a <cdch_open+0xd6>
1000687c:	0073      	lsls	r3, r6, #1
1000687e:	199b      	adds	r3, r3, r6
10006880:	0059      	lsls	r1, r3, #1
10006882:	4b08      	ldr	r3, [pc, #32]	; (100068a4 <cdch_open+0x140>)
10006884:	185b      	adds	r3, r3, r1
10006886:	70da      	strb	r2, [r3, #3]
10006888:	e7dd      	b.n	10006846 <cdch_open+0xe2>
1000688a:	2701      	movs	r7, #1
1000688c:	e000      	b.n	10006890 <cdch_open+0x12c>
1000688e:	2700      	movs	r7, #0
10006890:	0038      	movs	r0, r7
10006892:	b002      	add	sp, #8
10006894:	bc04      	pop	{r2}
10006896:	4691      	mov	r9, r2
10006898:	bdf0      	pop	{r4, r5, r6, r7, pc}
1000689a:	2700      	movs	r7, #0
1000689c:	e7f8      	b.n	10006890 <cdch_open+0x12c>
1000689e:	2700      	movs	r7, #0
100068a0:	e7f6      	b.n	10006890 <cdch_open+0x12c>
100068a2:	46c0      	nop			; (mov r8, r8)
100068a4:	200018f8 	.word	0x200018f8
100068a8:	1000a394 	.word	0x1000a394
100068ac:	1000a208 	.word	0x1000a208

100068b0 <cdch_set_config>:
100068b0:	2001      	movs	r0, #1
100068b2:	4770      	bx	lr

100068b4 <cdch_xfer_cb>:
100068b4:	b510      	push	{r4, lr}
100068b6:	0011      	movs	r1, r2
100068b8:	2200      	movs	r2, #0
100068ba:	f7f9 fe95 	bl	100005e8 <tuh_cdc_xfer_isr>
100068be:	2001      	movs	r0, #1
100068c0:	bd10      	pop	{r4, pc}
	...

100068c4 <cdch_close>:
100068c4:	b510      	push	{r4, lr}
100068c6:	2804      	cmp	r0, #4
100068c8:	d900      	bls.n	100068cc <cdch_close+0x8>
100068ca:	bd10      	pop	{r4, pc}
100068cc:	3801      	subs	r0, #1
100068ce:	0043      	lsls	r3, r0, #1
100068d0:	1818      	adds	r0, r3, r0
100068d2:	0043      	lsls	r3, r0, #1
100068d4:	4803      	ldr	r0, [pc, #12]	; (100068e4 <cdch_close+0x20>)
100068d6:	18c0      	adds	r0, r0, r3
100068d8:	2206      	movs	r2, #6
100068da:	2100      	movs	r1, #0
100068dc:	f7fd fe10 	bl	10004500 <__wrap_memset>
100068e0:	e7f3      	b.n	100068ca <cdch_close+0x6>
100068e2:	46c0      	nop			; (mov r8, r8)
100068e4:	200018f8 	.word	0x200018f8

100068e8 <get_instance_id_by_itfnum>:
100068e8:	b5f0      	push	{r4, r5, r6, r7, lr}
100068ea:	0006      	movs	r6, r0
100068ec:	2000      	movs	r0, #0
100068ee:	e001      	b.n	100068f4 <get_instance_id_by_itfnum+0xc>
100068f0:	3001      	adds	r0, #1
100068f2:	b2c0      	uxtb	r0, r0
100068f4:	2803      	cmp	r0, #3
100068f6:	d827      	bhi.n	10006948 <get_instance_id_by_itfnum+0x60>
100068f8:	1e72      	subs	r2, r6, #1
100068fa:	0004      	movs	r4, r0
100068fc:	258c      	movs	r5, #140	; 0x8c
100068fe:	4345      	muls	r5, r0
10006900:	0113      	lsls	r3, r2, #4
10006902:	189b      	adds	r3, r3, r2
10006904:	015f      	lsls	r7, r3, #5
10006906:	19db      	adds	r3, r3, r7
10006908:	189b      	adds	r3, r3, r2
1000690a:	18eb      	adds	r3, r5, r3
1000690c:	4d0f      	ldr	r5, [pc, #60]	; (1000694c <get_instance_id_by_itfnum+0x64>)
1000690e:	18eb      	adds	r3, r5, r3
10006910:	789b      	ldrb	r3, [r3, #2]
10006912:	428b      	cmp	r3, r1
10006914:	d1ec      	bne.n	100068f0 <get_instance_id_by_itfnum+0x8>
10006916:	258c      	movs	r5, #140	; 0x8c
10006918:	4345      	muls	r5, r0
1000691a:	0113      	lsls	r3, r2, #4
1000691c:	189b      	adds	r3, r3, r2
1000691e:	19db      	adds	r3, r3, r7
10006920:	189b      	adds	r3, r3, r2
10006922:	18eb      	adds	r3, r5, r3
10006924:	4d09      	ldr	r5, [pc, #36]	; (1000694c <get_instance_id_by_itfnum+0x64>)
10006926:	18eb      	adds	r3, r5, r3
10006928:	78db      	ldrb	r3, [r3, #3]
1000692a:	2b00      	cmp	r3, #0
1000692c:	d10d      	bne.n	1000694a <get_instance_id_by_itfnum+0x62>
1000692e:	338c      	adds	r3, #140	; 0x8c
10006930:	435c      	muls	r4, r3
10006932:	0113      	lsls	r3, r2, #4
10006934:	189b      	adds	r3, r3, r2
10006936:	19db      	adds	r3, r3, r7
10006938:	189a      	adds	r2, r3, r2
1000693a:	18a2      	adds	r2, r4, r2
1000693c:	4c03      	ldr	r4, [pc, #12]	; (1000694c <get_instance_id_by_itfnum+0x64>)
1000693e:	18a2      	adds	r2, r4, r2
10006940:	7913      	ldrb	r3, [r2, #4]
10006942:	2b00      	cmp	r3, #0
10006944:	d0d4      	beq.n	100068f0 <get_instance_id_by_itfnum+0x8>
10006946:	e000      	b.n	1000694a <get_instance_id_by_itfnum+0x62>
10006948:	20ff      	movs	r0, #255	; 0xff
1000694a:	bdf0      	pop	{r4, r5, r6, r7, pc}
1000694c:	20000d6c 	.word	0x20000d6c

10006950 <get_instance_id_by_epaddr>:
10006950:	b570      	push	{r4, r5, r6, lr}
10006952:	0004      	movs	r4, r0
10006954:	2000      	movs	r0, #0
10006956:	e001      	b.n	1000695c <get_instance_id_by_epaddr+0xc>
10006958:	3001      	adds	r0, #1
1000695a:	b2c0      	uxtb	r0, r0
1000695c:	2803      	cmp	r0, #3
1000695e:	d81a      	bhi.n	10006996 <get_instance_id_by_epaddr+0x46>
10006960:	1e62      	subs	r2, r4, #1
10006962:	258c      	movs	r5, #140	; 0x8c
10006964:	4345      	muls	r5, r0
10006966:	0113      	lsls	r3, r2, #4
10006968:	189b      	adds	r3, r3, r2
1000696a:	015e      	lsls	r6, r3, #5
1000696c:	199b      	adds	r3, r3, r6
1000696e:	189b      	adds	r3, r3, r2
10006970:	18eb      	adds	r3, r5, r3
10006972:	4d0a      	ldr	r5, [pc, #40]	; (1000699c <get_instance_id_by_epaddr+0x4c>)
10006974:	18eb      	adds	r3, r5, r3
10006976:	78db      	ldrb	r3, [r3, #3]
10006978:	428b      	cmp	r3, r1
1000697a:	d00d      	beq.n	10006998 <get_instance_id_by_epaddr+0x48>
1000697c:	258c      	movs	r5, #140	; 0x8c
1000697e:	4345      	muls	r5, r0
10006980:	0113      	lsls	r3, r2, #4
10006982:	189b      	adds	r3, r3, r2
10006984:	199b      	adds	r3, r3, r6
10006986:	189b      	adds	r3, r3, r2
10006988:	18eb      	adds	r3, r5, r3
1000698a:	4a04      	ldr	r2, [pc, #16]	; (1000699c <get_instance_id_by_epaddr+0x4c>)
1000698c:	18d3      	adds	r3, r2, r3
1000698e:	791b      	ldrb	r3, [r3, #4]
10006990:	428b      	cmp	r3, r1
10006992:	d1e1      	bne.n	10006958 <get_instance_id_by_epaddr+0x8>
10006994:	e000      	b.n	10006998 <get_instance_id_by_epaddr+0x48>
10006996:	20ff      	movs	r0, #255	; 0xff
10006998:	bd70      	pop	{r4, r5, r6, pc}
1000699a:	46c0      	nop			; (mov r8, r8)
1000699c:	20000d6c 	.word	0x20000d6c

100069a0 <config_set_protocol>:
100069a0:	b510      	push	{r4, lr}
100069a2:	b082      	sub	sp, #8
100069a4:	0004      	movs	r4, r0
100069a6:	7909      	ldrb	r1, [r1, #4]
100069a8:	f7ff ff9e 	bl	100068e8 <get_instance_id_by_itfnum>
100069ac:	1e61      	subs	r1, r4, #1
100069ae:	228c      	movs	r2, #140	; 0x8c
100069b0:	4342      	muls	r2, r0
100069b2:	010b      	lsls	r3, r1, #4
100069b4:	185b      	adds	r3, r3, r1
100069b6:	0158      	lsls	r0, r3, #5
100069b8:	181b      	adds	r3, r3, r0
100069ba:	185b      	adds	r3, r3, r1
100069bc:	18d3      	adds	r3, r2, r3
100069be:	4a15      	ldr	r2, [pc, #84]	; (10006a14 <config_set_protocol+0x74>)
100069c0:	18d2      	adds	r2, r2, r3
100069c2:	2100      	movs	r1, #0
100069c4:	7191      	strb	r1, [r2, #6]
100069c6:	466b      	mov	r3, sp
100069c8:	781b      	ldrb	r3, [r3, #0]
100069ca:	201f      	movs	r0, #31
100069cc:	4383      	bics	r3, r0
100069ce:	2001      	movs	r0, #1
100069d0:	4303      	orrs	r3, r0
100069d2:	2060      	movs	r0, #96	; 0x60
100069d4:	4383      	bics	r3, r0
100069d6:	2020      	movs	r0, #32
100069d8:	4303      	orrs	r3, r0
100069da:	207f      	movs	r0, #127	; 0x7f
100069dc:	4003      	ands	r3, r0
100069de:	4668      	mov	r0, sp
100069e0:	7003      	strb	r3, [r0, #0]
100069e2:	230b      	movs	r3, #11
100069e4:	7043      	strb	r3, [r0, #1]
100069e6:	8041      	strh	r1, [r0, #2]
100069e8:	7893      	ldrb	r3, [r2, #2]
100069ea:	8083      	strh	r3, [r0, #4]
100069ec:	80c1      	strh	r1, [r0, #6]
100069ee:	4b0a      	ldr	r3, [pc, #40]	; (10006a18 <config_set_protocol+0x78>)
100069f0:	2200      	movs	r2, #0
100069f2:	4669      	mov	r1, sp
100069f4:	0020      	movs	r0, r4
100069f6:	f7ff fbc7 	bl	10006188 <tuh_control_xfer>
100069fa:	1e04      	subs	r4, r0, #0
100069fc:	d002      	beq.n	10006a04 <config_set_protocol+0x64>
100069fe:	0020      	movs	r0, r4
10006a00:	b002      	add	sp, #8
10006a02:	bd10      	pop	{r4, pc}
10006a04:	22bd      	movs	r2, #189	; 0xbd
10006a06:	0052      	lsls	r2, r2, #1
10006a08:	4904      	ldr	r1, [pc, #16]	; (10006a1c <config_set_protocol+0x7c>)
10006a0a:	4805      	ldr	r0, [pc, #20]	; (10006a20 <config_set_protocol+0x80>)
10006a0c:	f7fd ff30 	bl	10004870 <__wrap_printf>
10006a10:	e7f5      	b.n	100069fe <config_set_protocol+0x5e>
10006a12:	46c0      	nop			; (mov r8, r8)
10006a14:	20000d6c 	.word	0x20000d6c
10006a18:	10006a55 	.word	0x10006a55
10006a1c:	1000a3bc 	.word	0x1000a3bc
10006a20:	1000a208 	.word	0x1000a208

10006a24 <config_driver_mount_complete>:
10006a24:	b570      	push	{r4, r5, r6, lr}
10006a26:	0004      	movs	r4, r0
10006a28:	000e      	movs	r6, r1
10006a2a:	1e45      	subs	r5, r0, #1
10006a2c:	f7f9 fcda 	bl	100003e4 <tuh_hid_mount_cb>
10006a30:	238c      	movs	r3, #140	; 0x8c
10006a32:	435e      	muls	r6, r3
10006a34:	012b      	lsls	r3, r5, #4
10006a36:	195b      	adds	r3, r3, r5
10006a38:	015a      	lsls	r2, r3, #5
10006a3a:	189b      	adds	r3, r3, r2
10006a3c:	195b      	adds	r3, r3, r5
10006a3e:	18f3      	adds	r3, r6, r3
10006a40:	4a03      	ldr	r2, [pc, #12]	; (10006a50 <config_driver_mount_complete+0x2c>)
10006a42:	18d3      	adds	r3, r2, r3
10006a44:	7899      	ldrb	r1, [r3, #2]
10006a46:	0020      	movs	r0, r4
10006a48:	f7ff fa30 	bl	10005eac <usbh_driver_set_config_complete>
10006a4c:	bd70      	pop	{r4, r5, r6, pc}
10006a4e:	46c0      	nop			; (mov r8, r8)
10006a50:	20000d6c 	.word	0x20000d6c

10006a54 <config_get_report_desc>:
10006a54:	b570      	push	{r4, r5, r6, lr}
10006a56:	b082      	sub	sp, #8
10006a58:	0004      	movs	r4, r0
10006a5a:	784b      	ldrb	r3, [r1, #1]
10006a5c:	2b0a      	cmp	r3, #10
10006a5e:	d001      	beq.n	10006a64 <config_get_report_desc+0x10>
10006a60:	2a00      	cmp	r2, #0
10006a62:	d121      	bne.n	10006aa8 <config_get_report_desc+0x54>
10006a64:	790b      	ldrb	r3, [r1, #4]
10006a66:	794d      	ldrb	r5, [r1, #5]
10006a68:	022d      	lsls	r5, r5, #8
10006a6a:	431d      	orrs	r5, r3
10006a6c:	b2e9      	uxtb	r1, r5
10006a6e:	0020      	movs	r0, r4
10006a70:	f7ff ff3a 	bl	100068e8 <get_instance_id_by_itfnum>
10006a74:	1e66      	subs	r6, r4, #1
10006a76:	228c      	movs	r2, #140	; 0x8c
10006a78:	4342      	muls	r2, r0
10006a7a:	0133      	lsls	r3, r6, #4
10006a7c:	199b      	adds	r3, r3, r6
10006a7e:	0159      	lsls	r1, r3, #5
10006a80:	185b      	adds	r3, r3, r1
10006a82:	199b      	adds	r3, r3, r6
10006a84:	18d3      	adds	r3, r2, r3
10006a86:	4a25      	ldr	r2, [pc, #148]	; (10006b1c <config_get_report_desc+0xc8>)
10006a88:	18d3      	adds	r3, r2, r3
10006a8a:	891a      	ldrh	r2, [r3, #8]
10006a8c:	2380      	movs	r3, #128	; 0x80
10006a8e:	005b      	lsls	r3, r3, #1
10006a90:	429a      	cmp	r2, r3
10006a92:	d911      	bls.n	10006ab8 <config_get_report_desc+0x64>
10006a94:	2300      	movs	r3, #0
10006a96:	2200      	movs	r2, #0
10006a98:	0001      	movs	r1, r0
10006a9a:	0020      	movs	r0, r4
10006a9c:	f7ff ffc2 	bl	10006a24 <config_driver_mount_complete>
10006aa0:	2401      	movs	r4, #1
10006aa2:	0020      	movs	r0, r4
10006aa4:	b002      	add	sp, #8
10006aa6:	bd70      	pop	{r4, r5, r6, pc}
10006aa8:	22c2      	movs	r2, #194	; 0xc2
10006aaa:	0052      	lsls	r2, r2, #1
10006aac:	491c      	ldr	r1, [pc, #112]	; (10006b20 <config_get_report_desc+0xcc>)
10006aae:	481d      	ldr	r0, [pc, #116]	; (10006b24 <config_get_report_desc+0xd0>)
10006ab0:	f7fd fede 	bl	10004870 <__wrap_printf>
10006ab4:	2400      	movs	r4, #0
10006ab6:	e7f4      	b.n	10006aa2 <config_get_report_desc+0x4e>
10006ab8:	466b      	mov	r3, sp
10006aba:	781b      	ldrb	r3, [r3, #0]
10006abc:	211f      	movs	r1, #31
10006abe:	438b      	bics	r3, r1
10006ac0:	2101      	movs	r1, #1
10006ac2:	430b      	orrs	r3, r1
10006ac4:	2160      	movs	r1, #96	; 0x60
10006ac6:	438b      	bics	r3, r1
10006ac8:	39e0      	subs	r1, #224	; 0xe0
10006aca:	430b      	orrs	r3, r1
10006acc:	4669      	mov	r1, sp
10006ace:	700b      	strb	r3, [r1, #0]
10006ad0:	2306      	movs	r3, #6
10006ad2:	704b      	strb	r3, [r1, #1]
10006ad4:	3386      	adds	r3, #134	; 0x86
10006ad6:	4358      	muls	r0, r3
10006ad8:	0133      	lsls	r3, r6, #4
10006ada:	199b      	adds	r3, r3, r6
10006adc:	0159      	lsls	r1, r3, #5
10006ade:	185b      	adds	r3, r3, r1
10006ae0:	199e      	adds	r6, r3, r6
10006ae2:	1986      	adds	r6, r0, r6
10006ae4:	4b0d      	ldr	r3, [pc, #52]	; (10006b1c <config_get_report_desc+0xc8>)
10006ae6:	199e      	adds	r6, r3, r6
10006ae8:	79f3      	ldrb	r3, [r6, #7]
10006aea:	021b      	lsls	r3, r3, #8
10006aec:	4669      	mov	r1, sp
10006aee:	804b      	strh	r3, [r1, #2]
10006af0:	23ff      	movs	r3, #255	; 0xff
10006af2:	401d      	ands	r5, r3
10006af4:	808d      	strh	r5, [r1, #4]
10006af6:	80ca      	strh	r2, [r1, #6]
10006af8:	f7ff f974 	bl	10005de4 <usbh_get_enum_buf>
10006afc:	0002      	movs	r2, r0
10006afe:	4b0a      	ldr	r3, [pc, #40]	; (10006b28 <config_get_report_desc+0xd4>)
10006b00:	4669      	mov	r1, sp
10006b02:	0020      	movs	r0, r4
10006b04:	f7ff fb40 	bl	10006188 <tuh_control_xfer>
10006b08:	1e04      	subs	r4, r0, #0
10006b0a:	d1ca      	bne.n	10006aa2 <config_get_report_desc+0x4e>
10006b0c:	22d2      	movs	r2, #210	; 0xd2
10006b0e:	0052      	lsls	r2, r2, #1
10006b10:	4903      	ldr	r1, [pc, #12]	; (10006b20 <config_get_report_desc+0xcc>)
10006b12:	4804      	ldr	r0, [pc, #16]	; (10006b24 <config_get_report_desc+0xd0>)
10006b14:	f7fd feac 	bl	10004870 <__wrap_printf>
10006b18:	e7c3      	b.n	10006aa2 <config_get_report_desc+0x4e>
10006b1a:	46c0      	nop			; (mov r8, r8)
10006b1c:	20000d6c 	.word	0x20000d6c
10006b20:	1000a3d0 	.word	0x1000a3d0
10006b24:	1000a208 	.word	0x1000a208
10006b28:	10006b2d 	.word	0x10006b2d

10006b2c <config_get_report_desc_complete>:
10006b2c:	b570      	push	{r4, r5, r6, lr}
10006b2e:	0004      	movs	r4, r0
10006b30:	000e      	movs	r6, r1
10006b32:	2a00      	cmp	r2, #0
10006b34:	d110      	bne.n	10006b58 <config_get_report_desc_complete+0x2c>
10006b36:	7909      	ldrb	r1, [r1, #4]
10006b38:	f7ff fed6 	bl	100068e8 <get_instance_id_by_itfnum>
10006b3c:	0005      	movs	r5, r0
10006b3e:	f7ff f951 	bl	10005de4 <usbh_get_enum_buf>
10006b42:	0002      	movs	r2, r0
10006b44:	79b1      	ldrb	r1, [r6, #6]
10006b46:	79f3      	ldrb	r3, [r6, #7]
10006b48:	021b      	lsls	r3, r3, #8
10006b4a:	430b      	orrs	r3, r1
10006b4c:	0029      	movs	r1, r5
10006b4e:	0020      	movs	r0, r4
10006b50:	f7ff ff68 	bl	10006a24 <config_driver_mount_complete>
10006b54:	2001      	movs	r0, #1
10006b56:	bd70      	pop	{r4, r5, r6, pc}
10006b58:	22d6      	movs	r2, #214	; 0xd6
10006b5a:	0052      	lsls	r2, r2, #1
10006b5c:	4902      	ldr	r1, [pc, #8]	; (10006b68 <config_get_report_desc_complete+0x3c>)
10006b5e:	4803      	ldr	r0, [pc, #12]	; (10006b6c <config_get_report_desc_complete+0x40>)
10006b60:	f7fd fe86 	bl	10004870 <__wrap_printf>
10006b64:	2000      	movs	r0, #0
10006b66:	e7f6      	b.n	10006b56 <config_get_report_desc_complete+0x2a>
10006b68:	1000a3e8 	.word	0x1000a3e8
10006b6c:	1000a208 	.word	0x1000a208

10006b70 <tuh_hid_interface_protocol>:
10006b70:	3801      	subs	r0, #1
10006b72:	228c      	movs	r2, #140	; 0x8c
10006b74:	434a      	muls	r2, r1
10006b76:	0103      	lsls	r3, r0, #4
10006b78:	181b      	adds	r3, r3, r0
10006b7a:	0159      	lsls	r1, r3, #5
10006b7c:	185b      	adds	r3, r3, r1
10006b7e:	181b      	adds	r3, r3, r0
10006b80:	18d3      	adds	r3, r2, r3
10006b82:	4a02      	ldr	r2, [pc, #8]	; (10006b8c <tuh_hid_interface_protocol+0x1c>)
10006b84:	18d3      	adds	r3, r2, r3
10006b86:	7958      	ldrb	r0, [r3, #5]
10006b88:	4770      	bx	lr
10006b8a:	46c0      	nop			; (mov r8, r8)
10006b8c:	20000d6c 	.word	0x20000d6c

10006b90 <tuh_hid_receive_report>:
10006b90:	b570      	push	{r4, r5, r6, lr}
10006b92:	0004      	movs	r4, r0
10006b94:	000e      	movs	r6, r1
10006b96:	1e45      	subs	r5, r0, #1
10006b98:	228c      	movs	r2, #140	; 0x8c
10006b9a:	434a      	muls	r2, r1
10006b9c:	012b      	lsls	r3, r5, #4
10006b9e:	195b      	adds	r3, r3, r5
10006ba0:	0159      	lsls	r1, r3, #5
10006ba2:	185b      	adds	r3, r3, r1
10006ba4:	195b      	adds	r3, r3, r5
10006ba6:	18d3      	adds	r3, r2, r3
10006ba8:	4a0d      	ldr	r2, [pc, #52]	; (10006be0 <tuh_hid_receive_report+0x50>)
10006baa:	18d3      	adds	r3, r2, r3
10006bac:	78d9      	ldrb	r1, [r3, #3]
10006bae:	f7ff f9e7 	bl	10005f80 <usbh_edpt_claim>
10006bb2:	2800      	cmp	r0, #0
10006bb4:	d100      	bne.n	10006bb8 <tuh_hid_receive_report+0x28>
10006bb6:	bd70      	pop	{r4, r5, r6, pc}
10006bb8:	238c      	movs	r3, #140	; 0x8c
10006bba:	435e      	muls	r6, r3
10006bbc:	012b      	lsls	r3, r5, #4
10006bbe:	195b      	adds	r3, r3, r5
10006bc0:	015a      	lsls	r2, r3, #5
10006bc2:	189b      	adds	r3, r3, r2
10006bc4:	195d      	adds	r5, r3, r5
10006bc6:	1975      	adds	r5, r6, r5
10006bc8:	002a      	movs	r2, r5
10006bca:	3208      	adds	r2, #8
10006bcc:	4e04      	ldr	r6, [pc, #16]	; (10006be0 <tuh_hid_receive_report+0x50>)
10006bce:	1992      	adds	r2, r2, r6
10006bd0:	3206      	adds	r2, #6
10006bd2:	1975      	adds	r5, r6, r5
10006bd4:	896b      	ldrh	r3, [r5, #10]
10006bd6:	78e9      	ldrb	r1, [r5, #3]
10006bd8:	0020      	movs	r0, r4
10006bda:	f7ff fa21 	bl	10006020 <usbh_edpt_xfer>
10006bde:	e7ea      	b.n	10006bb6 <tuh_hid_receive_report+0x26>
10006be0:	20000d6c 	.word	0x20000d6c

10006be4 <hidh_init>:
10006be4:	b510      	push	{r4, lr}
10006be6:	4a03      	ldr	r2, [pc, #12]	; (10006bf4 <hidh_init+0x10>)
10006be8:	2100      	movs	r1, #0
10006bea:	4803      	ldr	r0, [pc, #12]	; (10006bf8 <hidh_init+0x14>)
10006bec:	f7fd fc88 	bl	10004500 <__wrap_memset>
10006bf0:	bd10      	pop	{r4, pc}
10006bf2:	46c0      	nop			; (mov r8, r8)
10006bf4:	000008c8 	.word	0x000008c8
10006bf8:	20000d6c 	.word	0x20000d6c

10006bfc <hidh_xfer_cb>:
10006bfc:	b570      	push	{r4, r5, r6, lr}
10006bfe:	0004      	movs	r4, r0
10006c00:	001d      	movs	r5, r3
10006c02:	09ce      	lsrs	r6, r1, #7
10006c04:	f7ff fea4 	bl	10006950 <get_instance_id_by_epaddr>
10006c08:	1e61      	subs	r1, r4, #1
10006c0a:	2e01      	cmp	r6, #1
10006c0c:	d015      	beq.n	10006c3a <hidh_xfer_cb+0x3e>
10006c0e:	4b14      	ldr	r3, [pc, #80]	; (10006c60 <hidh_xfer_cb+0x64>)
10006c10:	2b00      	cmp	r3, #0
10006c12:	d010      	beq.n	10006c36 <hidh_xfer_cb+0x3a>
10006c14:	228c      	movs	r2, #140	; 0x8c
10006c16:	4342      	muls	r2, r0
10006c18:	010b      	lsls	r3, r1, #4
10006c1a:	185b      	adds	r3, r3, r1
10006c1c:	015e      	lsls	r6, r3, #5
10006c1e:	199b      	adds	r3, r3, r6
10006c20:	185b      	adds	r3, r3, r1
10006c22:	18d2      	adds	r2, r2, r3
10006c24:	3248      	adds	r2, #72	; 0x48
10006c26:	4b0f      	ldr	r3, [pc, #60]	; (10006c64 <hidh_xfer_cb+0x68>)
10006c28:	18d2      	adds	r2, r2, r3
10006c2a:	3206      	adds	r2, #6
10006c2c:	b2ab      	uxth	r3, r5
10006c2e:	0001      	movs	r1, r0
10006c30:	0020      	movs	r0, r4
10006c32:	e000      	b.n	10006c36 <hidh_xfer_cb+0x3a>
10006c34:	bf00      	nop
10006c36:	2001      	movs	r0, #1
10006c38:	bd70      	pop	{r4, r5, r6, pc}
10006c3a:	228c      	movs	r2, #140	; 0x8c
10006c3c:	4342      	muls	r2, r0
10006c3e:	010b      	lsls	r3, r1, #4
10006c40:	185b      	adds	r3, r3, r1
10006c42:	015e      	lsls	r6, r3, #5
10006c44:	199b      	adds	r3, r3, r6
10006c46:	185b      	adds	r3, r3, r1
10006c48:	18d2      	adds	r2, r2, r3
10006c4a:	3208      	adds	r2, #8
10006c4c:	4905      	ldr	r1, [pc, #20]	; (10006c64 <hidh_xfer_cb+0x68>)
10006c4e:	1852      	adds	r2, r2, r1
10006c50:	3206      	adds	r2, #6
10006c52:	b2ab      	uxth	r3, r5
10006c54:	0001      	movs	r1, r0
10006c56:	0020      	movs	r0, r4
10006c58:	f7f9 fc86 	bl	10000568 <tuh_hid_report_received_cb>
10006c5c:	e7eb      	b.n	10006c36 <hidh_xfer_cb+0x3a>
10006c5e:	46c0      	nop			; (mov r8, r8)
10006c60:	00000000 	.word	0x00000000
10006c64:	20000d6c 	.word	0x20000d6c

10006c68 <hidh_close>:
10006c68:	b5f8      	push	{r3, r4, r5, r6, r7, lr}
10006c6a:	0004      	movs	r4, r0
10006c6c:	2804      	cmp	r0, #4
10006c6e:	d820      	bhi.n	10006cb2 <hidh_close+0x4a>
10006c70:	1e46      	subs	r6, r0, #1
10006c72:	0137      	lsls	r7, r6, #4
10006c74:	19bf      	adds	r7, r7, r6
10006c76:	017b      	lsls	r3, r7, #5
10006c78:	18ff      	adds	r7, r7, r3
10006c7a:	19bf      	adds	r7, r7, r6
10006c7c:	4b0d      	ldr	r3, [pc, #52]	; (10006cb4 <hidh_close+0x4c>)
10006c7e:	18ff      	adds	r7, r7, r3
10006c80:	4b0d      	ldr	r3, [pc, #52]	; (10006cb8 <hidh_close+0x50>)
10006c82:	2b00      	cmp	r3, #0
10006c84:	d010      	beq.n	10006ca8 <hidh_close+0x40>
10006c86:	2500      	movs	r5, #0
10006c88:	0133      	lsls	r3, r6, #4
10006c8a:	199b      	adds	r3, r3, r6
10006c8c:	015a      	lsls	r2, r3, #5
10006c8e:	189b      	adds	r3, r3, r2
10006c90:	199b      	adds	r3, r3, r6
10006c92:	4a08      	ldr	r2, [pc, #32]	; (10006cb4 <hidh_close+0x4c>)
10006c94:	5c9b      	ldrb	r3, [r3, r2]
10006c96:	42ab      	cmp	r3, r5
10006c98:	d906      	bls.n	10006ca8 <hidh_close+0x40>
10006c9a:	0029      	movs	r1, r5
10006c9c:	0020      	movs	r0, r4
10006c9e:	f7f9 fbe9 	bl	10000474 <tuh_hid_umount_cb>
10006ca2:	3501      	adds	r5, #1
10006ca4:	b2ed      	uxtb	r5, r5
10006ca6:	e7ef      	b.n	10006c88 <hidh_close+0x20>
10006ca8:	4a04      	ldr	r2, [pc, #16]	; (10006cbc <hidh_close+0x54>)
10006caa:	2100      	movs	r1, #0
10006cac:	0038      	movs	r0, r7
10006cae:	f7fd fc27 	bl	10004500 <__wrap_memset>
10006cb2:	bdf8      	pop	{r3, r4, r5, r6, r7, pc}
10006cb4:	20000d6c 	.word	0x20000d6c
10006cb8:	10000475 	.word	0x10000475
10006cbc:	00000232 	.word	0x00000232

10006cc0 <hidh_open>:
10006cc0:	b5f8      	push	{r3, r4, r5, r6, r7, lr}
10006cc2:	46ce      	mov	lr, r9
10006cc4:	4647      	mov	r7, r8
10006cc6:	b580      	push	{r7, lr}
10006cc8:	0014      	movs	r4, r2
10006cca:	7952      	ldrb	r2, [r2, #5]
10006ccc:	2a03      	cmp	r2, #3
10006cce:	d000      	beq.n	10006cd2 <hidh_open+0x12>
10006cd0:	e096      	b.n	10006e00 <hidh_open+0x140>
10006cd2:	7925      	ldrb	r5, [r4, #4]
10006cd4:	00ea      	lsls	r2, r5, #3
10006cd6:	1b52      	subs	r2, r2, r5
10006cd8:	b292      	uxth	r2, r2
10006cda:	3212      	adds	r2, #18
10006cdc:	b292      	uxth	r2, r2
10006cde:	429a      	cmp	r2, r3
10006ce0:	d85f      	bhi.n	10006da2 <hidh_open+0xe2>
10006ce2:	7825      	ldrb	r5, [r4, #0]
10006ce4:	1965      	adds	r5, r4, r5
10006ce6:	786b      	ldrb	r3, [r5, #1]
10006ce8:	2b21      	cmp	r3, #33	; 0x21
10006cea:	d162      	bne.n	10006db2 <hidh_open+0xf2>
10006cec:	1e4e      	subs	r6, r1, #1
10006cee:	0133      	lsls	r3, r6, #4
10006cf0:	199b      	adds	r3, r3, r6
10006cf2:	015a      	lsls	r2, r3, #5
10006cf4:	189b      	adds	r3, r3, r2
10006cf6:	199b      	adds	r3, r3, r6
10006cf8:	4a44      	ldr	r2, [pc, #272]	; (10006e0c <hidh_open+0x14c>)
10006cfa:	5c9b      	ldrb	r3, [r3, r2]
10006cfc:	2b03      	cmp	r3, #3
10006cfe:	d860      	bhi.n	10006dc2 <hidh_open+0x102>
10006d00:	782b      	ldrb	r3, [r5, #0]
10006d02:	4698      	mov	r8, r3
10006d04:	44a8      	add	r8, r5
10006d06:	4643      	mov	r3, r8
10006d08:	785b      	ldrb	r3, [r3, #1]
10006d0a:	2b05      	cmp	r3, #5
10006d0c:	d161      	bne.n	10006dd2 <hidh_open+0x112>
10006d0e:	4643      	mov	r3, r8
10006d10:	789b      	ldrb	r3, [r3, #2]
10006d12:	09db      	lsrs	r3, r3, #7
10006d14:	d106      	bne.n	10006d24 <hidh_open+0x64>
10006d16:	4643      	mov	r3, r8
10006d18:	781b      	ldrb	r3, [r3, #0]
10006d1a:	4498      	add	r8, r3
10006d1c:	4643      	mov	r3, r8
10006d1e:	785b      	ldrb	r3, [r3, #1]
10006d20:	2b05      	cmp	r3, #5
10006d22:	d15e      	bne.n	10006de2 <hidh_open+0x122>
10006d24:	4642      	mov	r2, r8
10006d26:	f7ff f9cf 	bl	100060c8 <usbh_edpt_open>
10006d2a:	1e07      	subs	r7, r0, #0
10006d2c:	d061      	beq.n	10006df2 <hidh_open+0x132>
10006d2e:	4837      	ldr	r0, [pc, #220]	; (10006e0c <hidh_open+0x14c>)
10006d30:	0132      	lsls	r2, r6, #4
10006d32:	1992      	adds	r2, r2, r6
10006d34:	0153      	lsls	r3, r2, #5
10006d36:	18d2      	adds	r2, r2, r3
10006d38:	1992      	adds	r2, r2, r6
10006d3a:	5c11      	ldrb	r1, [r2, r0]
10006d3c:	1c4b      	adds	r3, r1, #1
10006d3e:	5413      	strb	r3, [r2, r0]
10006d40:	78a3      	ldrb	r3, [r4, #2]
10006d42:	469c      	mov	ip, r3
10006d44:	238c      	movs	r3, #140	; 0x8c
10006d46:	434b      	muls	r3, r1
10006d48:	189b      	adds	r3, r3, r2
10006d4a:	18c3      	adds	r3, r0, r3
10006d4c:	4662      	mov	r2, ip
10006d4e:	709a      	strb	r2, [r3, #2]
10006d50:	4642      	mov	r2, r8
10006d52:	7892      	ldrb	r2, [r2, #2]
10006d54:	70da      	strb	r2, [r3, #3]
10006d56:	4642      	mov	r2, r8
10006d58:	7912      	ldrb	r2, [r2, #4]
10006d5a:	4691      	mov	r9, r2
10006d5c:	4642      	mov	r2, r8
10006d5e:	7952      	ldrb	r2, [r2, #5]
10006d60:	4694      	mov	ip, r2
10006d62:	2207      	movs	r2, #7
10006d64:	4660      	mov	r0, ip
10006d66:	4002      	ands	r2, r0
10006d68:	0212      	lsls	r2, r2, #8
10006d6a:	4648      	mov	r0, r9
10006d6c:	4302      	orrs	r2, r0
10006d6e:	815a      	strh	r2, [r3, #10]
10006d70:	79aa      	ldrb	r2, [r5, #6]
10006d72:	71da      	strb	r2, [r3, #7]
10006d74:	79e8      	ldrb	r0, [r5, #7]
10006d76:	7a2a      	ldrb	r2, [r5, #8]
10006d78:	0212      	lsls	r2, r2, #8
10006d7a:	4302      	orrs	r2, r0
10006d7c:	811a      	strh	r2, [r3, #8]
10006d7e:	2200      	movs	r2, #0
10006d80:	719a      	strb	r2, [r3, #6]
10006d82:	79a3      	ldrb	r3, [r4, #6]
10006d84:	2b01      	cmp	r3, #1
10006d86:	d13c      	bne.n	10006e02 <hidh_open+0x142>
10006d88:	79e2      	ldrb	r2, [r4, #7]
10006d8a:	338b      	adds	r3, #139	; 0x8b
10006d8c:	4359      	muls	r1, r3
10006d8e:	0133      	lsls	r3, r6, #4
10006d90:	199b      	adds	r3, r3, r6
10006d92:	0158      	lsls	r0, r3, #5
10006d94:	181b      	adds	r3, r3, r0
10006d96:	199e      	adds	r6, r3, r6
10006d98:	198e      	adds	r6, r1, r6
10006d9a:	491c      	ldr	r1, [pc, #112]	; (10006e0c <hidh_open+0x14c>)
10006d9c:	198e      	adds	r6, r1, r6
10006d9e:	7172      	strb	r2, [r6, #5]
10006da0:	e02f      	b.n	10006e02 <hidh_open+0x142>
10006da2:	2214      	movs	r2, #20
10006da4:	32ff      	adds	r2, #255	; 0xff
10006da6:	491a      	ldr	r1, [pc, #104]	; (10006e10 <hidh_open+0x150>)
10006da8:	481a      	ldr	r0, [pc, #104]	; (10006e14 <hidh_open+0x154>)
10006daa:	f7fd fd61 	bl	10004870 <__wrap_printf>
10006dae:	2700      	movs	r7, #0
10006db0:	e027      	b.n	10006e02 <hidh_open+0x142>
10006db2:	228d      	movs	r2, #141	; 0x8d
10006db4:	0052      	lsls	r2, r2, #1
10006db6:	4916      	ldr	r1, [pc, #88]	; (10006e10 <hidh_open+0x150>)
10006db8:	4816      	ldr	r0, [pc, #88]	; (10006e14 <hidh_open+0x154>)
10006dba:	f7fd fd59 	bl	10004870 <__wrap_printf>
10006dbe:	2700      	movs	r7, #0
10006dc0:	e01f      	b.n	10006e02 <hidh_open+0x142>
10006dc2:	2220      	movs	r2, #32
10006dc4:	32ff      	adds	r2, #255	; 0xff
10006dc6:	4912      	ldr	r1, [pc, #72]	; (10006e10 <hidh_open+0x150>)
10006dc8:	4812      	ldr	r0, [pc, #72]	; (10006e14 <hidh_open+0x154>)
10006dca:	f7fd fd51 	bl	10004870 <__wrap_printf>
10006dce:	2700      	movs	r7, #0
10006dd0:	e017      	b.n	10006e02 <hidh_open+0x142>
10006dd2:	2292      	movs	r2, #146	; 0x92
10006dd4:	0052      	lsls	r2, r2, #1
10006dd6:	490e      	ldr	r1, [pc, #56]	; (10006e10 <hidh_open+0x150>)
10006dd8:	480e      	ldr	r0, [pc, #56]	; (10006e14 <hidh_open+0x154>)
10006dda:	f7fd fd49 	bl	10004870 <__wrap_printf>
10006dde:	2700      	movs	r7, #0
10006de0:	e00f      	b.n	10006e02 <hidh_open+0x142>
10006de2:	2296      	movs	r2, #150	; 0x96
10006de4:	0052      	lsls	r2, r2, #1
10006de6:	490a      	ldr	r1, [pc, #40]	; (10006e10 <hidh_open+0x150>)
10006de8:	480a      	ldr	r0, [pc, #40]	; (10006e14 <hidh_open+0x154>)
10006dea:	f7fd fd41 	bl	10004870 <__wrap_printf>
10006dee:	2700      	movs	r7, #0
10006df0:	e007      	b.n	10006e02 <hidh_open+0x142>
10006df2:	2230      	movs	r2, #48	; 0x30
10006df4:	32ff      	adds	r2, #255	; 0xff
10006df6:	4906      	ldr	r1, [pc, #24]	; (10006e10 <hidh_open+0x150>)
10006df8:	4806      	ldr	r0, [pc, #24]	; (10006e14 <hidh_open+0x154>)
10006dfa:	f7fd fd39 	bl	10004870 <__wrap_printf>
10006dfe:	e000      	b.n	10006e02 <hidh_open+0x142>
10006e00:	2700      	movs	r7, #0
10006e02:	0038      	movs	r0, r7
10006e04:	bc0c      	pop	{r2, r3}
10006e06:	4690      	mov	r8, r2
10006e08:	4699      	mov	r9, r3
10006e0a:	bdf8      	pop	{r3, r4, r5, r6, r7, pc}
10006e0c:	20000d6c 	.word	0x20000d6c
10006e10:	1000a3a0 	.word	0x1000a3a0
10006e14:	1000a208 	.word	0x1000a208

10006e18 <hidh_set_config>:
10006e18:	b570      	push	{r4, r5, r6, lr}
10006e1a:	b082      	sub	sp, #8
10006e1c:	0004      	movs	r4, r0
10006e1e:	000d      	movs	r5, r1
10006e20:	f7ff fd62 	bl	100068e8 <get_instance_id_by_itfnum>
10006e24:	1e61      	subs	r1, r4, #1
10006e26:	466b      	mov	r3, sp
10006e28:	781b      	ldrb	r3, [r3, #0]
10006e2a:	221f      	movs	r2, #31
10006e2c:	4393      	bics	r3, r2
10006e2e:	2201      	movs	r2, #1
10006e30:	4313      	orrs	r3, r2
10006e32:	2260      	movs	r2, #96	; 0x60
10006e34:	4393      	bics	r3, r2
10006e36:	2220      	movs	r2, #32
10006e38:	4313      	orrs	r3, r2
10006e3a:	267f      	movs	r6, #127	; 0x7f
10006e3c:	4033      	ands	r3, r6
10006e3e:	466a      	mov	r2, sp
10006e40:	7013      	strb	r3, [r2, #0]
10006e42:	230a      	movs	r3, #10
10006e44:	7053      	strb	r3, [r2, #1]
10006e46:	2600      	movs	r6, #0
10006e48:	8056      	strh	r6, [r2, #2]
10006e4a:	8095      	strh	r5, [r2, #4]
10006e4c:	80d6      	strh	r6, [r2, #6]
10006e4e:	228c      	movs	r2, #140	; 0x8c
10006e50:	4342      	muls	r2, r0
10006e52:	010b      	lsls	r3, r1, #4
10006e54:	185b      	adds	r3, r3, r1
10006e56:	0158      	lsls	r0, r3, #5
10006e58:	181b      	adds	r3, r3, r0
10006e5a:	185b      	adds	r3, r3, r1
10006e5c:	18d3      	adds	r3, r2, r3
10006e5e:	4a0c      	ldr	r2, [pc, #48]	; (10006e90 <hidh_set_config+0x78>)
10006e60:	18d3      	adds	r3, r2, r3
10006e62:	795b      	ldrb	r3, [r3, #5]
10006e64:	2b00      	cmp	r3, #0
10006e66:	d00a      	beq.n	10006e7e <hidh_set_config+0x66>
10006e68:	4b0a      	ldr	r3, [pc, #40]	; (10006e94 <hidh_set_config+0x7c>)
10006e6a:	2200      	movs	r2, #0
10006e6c:	4669      	mov	r1, sp
10006e6e:	0020      	movs	r0, r4
10006e70:	f7ff f98a 	bl	10006188 <tuh_control_xfer>
10006e74:	1e04      	subs	r4, r0, #0
10006e76:	d004      	beq.n	10006e82 <hidh_set_config+0x6a>
10006e78:	0020      	movs	r0, r4
10006e7a:	b002      	add	sp, #8
10006e7c:	bd70      	pop	{r4, r5, r6, pc}
10006e7e:	4b06      	ldr	r3, [pc, #24]	; (10006e98 <hidh_set_config+0x80>)
10006e80:	e7f3      	b.n	10006e6a <hidh_set_config+0x52>
10006e82:	225c      	movs	r2, #92	; 0x5c
10006e84:	32ff      	adds	r2, #255	; 0xff
10006e86:	4905      	ldr	r1, [pc, #20]	; (10006e9c <hidh_set_config+0x84>)
10006e88:	4805      	ldr	r0, [pc, #20]	; (10006ea0 <hidh_set_config+0x88>)
10006e8a:	f7fd fcf1 	bl	10004870 <__wrap_printf>
10006e8e:	e7f3      	b.n	10006e78 <hidh_set_config+0x60>
10006e90:	20000d6c 	.word	0x20000d6c
10006e94:	100069a1 	.word	0x100069a1
10006e98:	10006a55 	.word	0x10006a55
10006e9c:	1000a3ac 	.word	0x1000a3ac
10006ea0:	1000a208 	.word	0x1000a208

10006ea4 <tuh_hid_parse_report_descriptor>:
10006ea4:	b5f8      	push	{r3, r4, r5, r6, r7, lr}
10006ea6:	46de      	mov	lr, fp
10006ea8:	4657      	mov	r7, sl
10006eaa:	464e      	mov	r6, r9
10006eac:	4645      	mov	r5, r8
10006eae:	b5e0      	push	{r5, r6, r7, lr}
10006eb0:	4683      	mov	fp, r0
10006eb2:	4689      	mov	r9, r1
10006eb4:	0015      	movs	r5, r2
10006eb6:	001e      	movs	r6, r3
10006eb8:	008a      	lsls	r2, r1, #2
10006eba:	2100      	movs	r1, #0
10006ebc:	f7fd fb20 	bl	10004500 <__wrap_memset>
10006ec0:	2300      	movs	r3, #0
10006ec2:	469a      	mov	sl, r3
10006ec4:	2700      	movs	r7, #0
10006ec6:	e009      	b.n	10006edc <tuh_hid_parse_report_descriptor+0x38>
10006ec8:	2901      	cmp	r1, #1
10006eca:	d033      	beq.n	10006f34 <tuh_hid_parse_report_descriptor+0x90>
10006ecc:	b252      	sxtb	r2, r2
10006ece:	2a00      	cmp	r2, #0
10006ed0:	d01b      	beq.n	10006f0a <tuh_hid_parse_report_descriptor+0x66>
10006ed2:	2902      	cmp	r1, #2
10006ed4:	d040      	beq.n	10006f58 <tuh_hid_parse_report_descriptor+0xb4>
10006ed6:	4445      	add	r5, r8
10006ed8:	1b36      	subs	r6, r6, r4
10006eda:	b2b6      	uxth	r6, r6
10006edc:	2e00      	cmp	r6, #0
10006ede:	d051      	beq.n	10006f84 <tuh_hid_parse_report_descriptor+0xe0>
10006ee0:	454f      	cmp	r7, r9
10006ee2:	d242      	bcs.n	10006f6a <tuh_hid_parse_report_descriptor+0xc6>
10006ee4:	1c6b      	adds	r3, r5, #1
10006ee6:	4698      	mov	r8, r3
10006ee8:	782c      	ldrb	r4, [r5, #0]
10006eea:	3e01      	subs	r6, #1
10006eec:	b2b6      	uxth	r6, r6
10006eee:	0920      	lsrs	r0, r4, #4
10006ef0:	0722      	lsls	r2, r4, #28
10006ef2:	0f92      	lsrs	r2, r2, #30
10006ef4:	b2d1      	uxtb	r1, r2
10006ef6:	07a4      	lsls	r4, r4, #30
10006ef8:	0fa4      	lsrs	r4, r4, #30
10006efa:	786b      	ldrb	r3, [r5, #1]
10006efc:	469c      	mov	ip, r3
10006efe:	2300      	movs	r3, #0
10006f00:	0025      	movs	r5, r4
10006f02:	429c      	cmp	r4, r3
10006f04:	d9e0      	bls.n	10006ec8 <tuh_hid_parse_report_descriptor+0x24>
10006f06:	3301      	adds	r3, #1
10006f08:	e7fa      	b.n	10006f00 <tuh_hid_parse_report_descriptor+0x5c>
10006f0a:	280a      	cmp	r0, #10
10006f0c:	d00d      	beq.n	10006f2a <tuh_hid_parse_report_descriptor+0x86>
10006f0e:	280c      	cmp	r0, #12
10006f10:	d1e1      	bne.n	10006ed6 <tuh_hid_parse_report_descriptor+0x32>
10006f12:	4653      	mov	r3, sl
10006f14:	3b01      	subs	r3, #1
10006f16:	b2db      	uxtb	r3, r3
10006f18:	469a      	mov	sl, r3
10006f1a:	2b00      	cmp	r3, #0
10006f1c:	d1db      	bne.n	10006ed6 <tuh_hid_parse_report_descriptor+0x32>
10006f1e:	3304      	adds	r3, #4
10006f20:	469c      	mov	ip, r3
10006f22:	44e3      	add	fp, ip
10006f24:	3701      	adds	r7, #1
10006f26:	b2ff      	uxtb	r7, r7
10006f28:	e7d5      	b.n	10006ed6 <tuh_hid_parse_report_descriptor+0x32>
10006f2a:	4653      	mov	r3, sl
10006f2c:	3301      	adds	r3, #1
10006f2e:	b2db      	uxtb	r3, r3
10006f30:	469a      	mov	sl, r3
10006f32:	e7d0      	b.n	10006ed6 <tuh_hid_parse_report_descriptor+0x32>
10006f34:	2800      	cmp	r0, #0
10006f36:	d005      	beq.n	10006f44 <tuh_hid_parse_report_descriptor+0xa0>
10006f38:	2808      	cmp	r0, #8
10006f3a:	d1cc      	bne.n	10006ed6 <tuh_hid_parse_report_descriptor+0x32>
10006f3c:	465b      	mov	r3, fp
10006f3e:	4662      	mov	r2, ip
10006f40:	701a      	strb	r2, [r3, #0]
10006f42:	e7c8      	b.n	10006ed6 <tuh_hid_parse_report_descriptor+0x32>
10006f44:	4653      	mov	r3, sl
10006f46:	2b00      	cmp	r3, #0
10006f48:	d1c5      	bne.n	10006ed6 <tuh_hid_parse_report_descriptor+0x32>
10006f4a:	465b      	mov	r3, fp
10006f4c:	1c98      	adds	r0, r3, #2
10006f4e:	0022      	movs	r2, r4
10006f50:	4641      	mov	r1, r8
10006f52:	f7fd fadb 	bl	1000450c <__wrap___aeabi_memcpy>
10006f56:	e7be      	b.n	10006ed6 <tuh_hid_parse_report_descriptor+0x32>
10006f58:	2800      	cmp	r0, #0
10006f5a:	d1bc      	bne.n	10006ed6 <tuh_hid_parse_report_descriptor+0x32>
10006f5c:	4653      	mov	r3, sl
10006f5e:	2b00      	cmp	r3, #0
10006f60:	d1b9      	bne.n	10006ed6 <tuh_hid_parse_report_descriptor+0x32>
10006f62:	465b      	mov	r3, fp
10006f64:	4662      	mov	r2, ip
10006f66:	705a      	strb	r2, [r3, #1]
10006f68:	e7b5      	b.n	10006ed6 <tuh_hid_parse_report_descriptor+0x32>
10006f6a:	2300      	movs	r3, #0
10006f6c:	e001      	b.n	10006f72 <tuh_hid_parse_report_descriptor+0xce>
10006f6e:	3301      	adds	r3, #1
10006f70:	b2db      	uxtb	r3, r3
10006f72:	429f      	cmp	r7, r3
10006f74:	d8fb      	bhi.n	10006f6e <tuh_hid_parse_report_descriptor+0xca>
10006f76:	0038      	movs	r0, r7
10006f78:	bc3c      	pop	{r2, r3, r4, r5}
10006f7a:	4690      	mov	r8, r2
10006f7c:	4699      	mov	r9, r3
10006f7e:	46a2      	mov	sl, r4
10006f80:	46ab      	mov	fp, r5
10006f82:	bdf8      	pop	{r3, r4, r5, r6, r7, pc}
10006f84:	2300      	movs	r3, #0
10006f86:	e7f4      	b.n	10006f72 <tuh_hid_parse_report_descriptor+0xce>

10006f88 <config_read_capacity_complete>:
10006f88:	b5f0      	push	{r4, r5, r6, r7, lr}
10006f8a:	46c6      	mov	lr, r8
10006f8c:	b500      	push	{lr}
10006f8e:	b082      	sub	sp, #8
10006f90:	9001      	str	r0, [sp, #4]
10006f92:	7b13      	ldrb	r3, [r2, #12]
10006f94:	2b00      	cmp	r3, #0
10006f96:	d130      	bne.n	10006ffa <config_read_capacity_complete+0x72>
10006f98:	9b01      	ldr	r3, [sp, #4]
10006f9a:	1e5d      	subs	r5, r3, #1
10006f9c:	4f1b      	ldr	r7, [pc, #108]	; (1000700c <config_read_capacity_complete+0x84>)
10006f9e:	683a      	ldr	r2, [r7, #0]
10006fa0:	ba16      	rev	r6, r2
10006fa2:	7b4a      	ldrb	r2, [r1, #13]
10006fa4:	4690      	mov	r8, r2
10006fa6:	3601      	adds	r6, #1
10006fa8:	4819      	ldr	r0, [pc, #100]	; (10007010 <config_read_capacity_complete+0x88>)
10006faa:	006a      	lsls	r2, r5, #1
10006fac:	1954      	adds	r4, r2, r5
10006fae:	00a3      	lsls	r3, r4, #2
10006fb0:	4443      	add	r3, r8
10006fb2:	3301      	adds	r3, #1
10006fb4:	00db      	lsls	r3, r3, #3
10006fb6:	18c3      	adds	r3, r0, r3
10006fb8:	605e      	str	r6, [r3, #4]
10006fba:	7b49      	ldrb	r1, [r1, #13]
10006fbc:	468c      	mov	ip, r1
10006fbe:	6879      	ldr	r1, [r7, #4]
10006fc0:	ba09      	rev	r1, r1
10006fc2:	00a3      	lsls	r3, r4, #2
10006fc4:	4463      	add	r3, ip
10006fc6:	3301      	adds	r3, #1
10006fc8:	00db      	lsls	r3, r3, #3
10006fca:	5019      	str	r1, [r3, r0]
10006fcc:	0163      	lsls	r3, r4, #5
10006fce:	18c0      	adds	r0, r0, r3
10006fd0:	2301      	movs	r3, #1
10006fd2:	7143      	strb	r3, [r0, #5]
10006fd4:	4b0f      	ldr	r3, [pc, #60]	; (10007014 <config_read_capacity_complete+0x8c>)
10006fd6:	2b00      	cmp	r3, #0
10006fd8:	d002      	beq.n	10006fe0 <config_read_capacity_complete+0x58>
10006fda:	9801      	ldr	r0, [sp, #4]
10006fdc:	f7f9 fb9e 	bl	1000071c <tuh_msc_mount_cb>
10006fe0:	006b      	lsls	r3, r5, #1
10006fe2:	195d      	adds	r5, r3, r5
10006fe4:	016b      	lsls	r3, r5, #5
10006fe6:	4a0a      	ldr	r2, [pc, #40]	; (10007010 <config_read_capacity_complete+0x88>)
10006fe8:	5c99      	ldrb	r1, [r3, r2]
10006fea:	9801      	ldr	r0, [sp, #4]
10006fec:	f7fe ff5e 	bl	10005eac <usbh_driver_set_config_complete>
10006ff0:	2001      	movs	r0, #1
10006ff2:	b002      	add	sp, #8
10006ff4:	bc04      	pop	{r2}
10006ff6:	4690      	mov	r8, r2
10006ff8:	bdf0      	pop	{r4, r5, r6, r7, pc}
10006ffa:	22ec      	movs	r2, #236	; 0xec
10006ffc:	0052      	lsls	r2, r2, #1
10006ffe:	4906      	ldr	r1, [pc, #24]	; (10007018 <config_read_capacity_complete+0x90>)
10007000:	4806      	ldr	r0, [pc, #24]	; (1000701c <config_read_capacity_complete+0x94>)
10007002:	f7fd fc35 	bl	10004870 <__wrap_printf>
10007006:	2000      	movs	r0, #0
10007008:	e7f3      	b.n	10006ff2 <config_read_capacity_complete+0x6a>
1000700a:	46c0      	nop			; (mov r8, r8)
1000700c:	20001640 	.word	0x20001640
10007010:	20001664 	.word	0x20001664
10007014:	1000071d 	.word	0x1000071d
10007018:	1000a48c 	.word	0x1000a48c
1000701c:	1000a208 	.word	0x1000a208

10007020 <tuh_msc_get_block_count>:
10007020:	1e42      	subs	r2, r0, #1
10007022:	0050      	lsls	r0, r2, #1
10007024:	1880      	adds	r0, r0, r2
10007026:	0083      	lsls	r3, r0, #2
10007028:	185b      	adds	r3, r3, r1
1000702a:	3301      	adds	r3, #1
1000702c:	00db      	lsls	r3, r3, #3
1000702e:	4902      	ldr	r1, [pc, #8]	; (10007038 <tuh_msc_get_block_count+0x18>)
10007030:	18cb      	adds	r3, r1, r3
10007032:	6858      	ldr	r0, [r3, #4]
10007034:	4770      	bx	lr
10007036:	46c0      	nop			; (mov r8, r8)
10007038:	20001664 	.word	0x20001664

1000703c <tuh_msc_get_block_size>:
1000703c:	1e42      	subs	r2, r0, #1
1000703e:	0050      	lsls	r0, r2, #1
10007040:	1880      	adds	r0, r0, r2
10007042:	0083      	lsls	r3, r0, #2
10007044:	185b      	adds	r3, r3, r1
10007046:	3301      	adds	r3, #1
10007048:	00db      	lsls	r3, r3, #3
1000704a:	4a01      	ldr	r2, [pc, #4]	; (10007050 <tuh_msc_get_block_size+0x14>)
1000704c:	5898      	ldr	r0, [r3, r2]
1000704e:	4770      	bx	lr
10007050:	20001664 	.word	0x20001664

10007054 <tuh_msc_scsi_command>:
10007054:	b5f0      	push	{r4, r5, r6, r7, lr}
10007056:	b085      	sub	sp, #20
10007058:	9202      	str	r2, [sp, #8]
1000705a:	9303      	str	r3, [sp, #12]
1000705c:	9001      	str	r0, [sp, #4]
1000705e:	1e47      	subs	r7, r0, #1
10007060:	007b      	lsls	r3, r7, #1
10007062:	19db      	adds	r3, r3, r7
10007064:	015a      	lsls	r2, r3, #5
10007066:	4b15      	ldr	r3, [pc, #84]	; (100070bc <tuh_msc_scsi_command+0x68>)
10007068:	189b      	adds	r3, r3, r2
1000706a:	791c      	ldrb	r4, [r3, #4]
1000706c:	b2e4      	uxtb	r4, r4
1000706e:	2c00      	cmp	r4, #0
10007070:	d102      	bne.n	10007078 <tuh_msc_scsi_command+0x24>
10007072:	0020      	movs	r0, r4
10007074:	b005      	add	sp, #20
10007076:	bdf0      	pop	{r4, r5, r6, r7, pc}
10007078:	4e10      	ldr	r6, [pc, #64]	; (100070bc <tuh_msc_scsi_command+0x68>)
1000707a:	007c      	lsls	r4, r7, #1
1000707c:	001d      	movs	r5, r3
1000707e:	3334      	adds	r3, #52	; 0x34
10007080:	0018      	movs	r0, r3
10007082:	221f      	movs	r2, #31
10007084:	f7fd fa42 	bl	1000450c <__wrap___aeabi_memcpy>
10007088:	0029      	movs	r1, r5
1000708a:	3128      	adds	r1, #40	; 0x28
1000708c:	2201      	movs	r2, #1
1000708e:	700a      	strb	r2, [r1, #0]
10007090:	9a02      	ldr	r2, [sp, #8]
10007092:	62ea      	str	r2, [r5, #44]	; 0x2c
10007094:	9b03      	ldr	r3, [sp, #12]
10007096:	632b      	str	r3, [r5, #48]	; 0x30
10007098:	19e3      	adds	r3, r4, r7
1000709a:	015a      	lsls	r2, r3, #5
1000709c:	3230      	adds	r2, #48	; 0x30
1000709e:	1992      	adds	r2, r2, r6
100070a0:	3204      	adds	r2, #4
100070a2:	78a9      	ldrb	r1, [r5, #2]
100070a4:	231f      	movs	r3, #31
100070a6:	9801      	ldr	r0, [sp, #4]
100070a8:	f7fe ffba 	bl	10006020 <usbh_edpt_xfer>
100070ac:	1e04      	subs	r4, r0, #0
100070ae:	d1e0      	bne.n	10007072 <tuh_msc_scsi_command+0x1e>
100070b0:	228d      	movs	r2, #141	; 0x8d
100070b2:	4903      	ldr	r1, [pc, #12]	; (100070c0 <tuh_msc_scsi_command+0x6c>)
100070b4:	4803      	ldr	r0, [pc, #12]	; (100070c4 <tuh_msc_scsi_command+0x70>)
100070b6:	f7fd fbdb 	bl	10004870 <__wrap_printf>
100070ba:	e7da      	b.n	10007072 <tuh_msc_scsi_command+0x1e>
100070bc:	20001664 	.word	0x20001664
100070c0:	1000a408 	.word	0x1000a408
100070c4:	1000a208 	.word	0x1000a208

100070c8 <tuh_msc_read_capacity>:
100070c8:	b5f0      	push	{r4, r5, r6, r7, lr}
100070ca:	b089      	sub	sp, #36	; 0x24
100070cc:	0004      	movs	r4, r0
100070ce:	000f      	movs	r7, r1
100070d0:	0015      	movs	r5, r2
100070d2:	001e      	movs	r6, r3
100070d4:	1e42      	subs	r2, r0, #1
100070d6:	0053      	lsls	r3, r2, #1
100070d8:	189b      	adds	r3, r3, r2
100070da:	015a      	lsls	r2, r3, #5
100070dc:	4b11      	ldr	r3, [pc, #68]	; (10007124 <tuh_msc_read_capacity+0x5c>)
100070de:	189b      	adds	r3, r3, r2
100070e0:	7918      	ldrb	r0, [r3, #4]
100070e2:	b2c0      	uxtb	r0, r0
100070e4:	2800      	cmp	r0, #0
100070e6:	d101      	bne.n	100070ec <tuh_msc_read_capacity+0x24>
100070e8:	b009      	add	sp, #36	; 0x24
100070ea:	bdf0      	pop	{r4, r5, r6, r7, pc}
100070ec:	220f      	movs	r2, #15
100070ee:	2100      	movs	r1, #0
100070f0:	a804      	add	r0, sp, #16
100070f2:	f7fd fa05 	bl	10004500 <__wrap_memset>
100070f6:	4b0c      	ldr	r3, [pc, #48]	; (10007128 <tuh_msc_read_capacity+0x60>)
100070f8:	9300      	str	r3, [sp, #0]
100070fa:	4b0c      	ldr	r3, [pc, #48]	; (1000712c <tuh_msc_read_capacity+0x64>)
100070fc:	9301      	str	r3, [sp, #4]
100070fe:	466b      	mov	r3, sp
10007100:	735f      	strb	r7, [r3, #13]
10007102:	2308      	movs	r3, #8
10007104:	9302      	str	r3, [sp, #8]
10007106:	3378      	adds	r3, #120	; 0x78
10007108:	466a      	mov	r2, sp
1000710a:	7313      	strb	r3, [r2, #12]
1000710c:	3b76      	subs	r3, #118	; 0x76
1000710e:	7393      	strb	r3, [r2, #14]
10007110:	331b      	adds	r3, #27
10007112:	73d3      	strb	r3, [r2, #15]
10007114:	0033      	movs	r3, r6
10007116:	002a      	movs	r2, r5
10007118:	4669      	mov	r1, sp
1000711a:	0020      	movs	r0, r4
1000711c:	f7ff ff9a 	bl	10007054 <tuh_msc_scsi_command>
10007120:	e7e2      	b.n	100070e8 <tuh_msc_read_capacity+0x20>
10007122:	46c0      	nop			; (mov r8, r8)
10007124:	20001664 	.word	0x20001664
10007128:	43425355 	.word	0x43425355
1000712c:	54555342 	.word	0x54555342

10007130 <tuh_msc_inquiry>:
10007130:	b5f0      	push	{r4, r5, r6, r7, lr}
10007132:	b08d      	sub	sp, #52	; 0x34
10007134:	0005      	movs	r5, r0
10007136:	000f      	movs	r7, r1
10007138:	0016      	movs	r6, r2
1000713a:	9301      	str	r3, [sp, #4]
1000713c:	1e42      	subs	r2, r0, #1
1000713e:	0053      	lsls	r3, r2, #1
10007140:	189b      	adds	r3, r3, r2
10007142:	015a      	lsls	r2, r3, #5
10007144:	4b17      	ldr	r3, [pc, #92]	; (100071a4 <tuh_msc_inquiry+0x74>)
10007146:	189b      	adds	r3, r3, r2
10007148:	7958      	ldrb	r0, [r3, #5]
1000714a:	b2c0      	uxtb	r0, r0
1000714c:	2800      	cmp	r0, #0
1000714e:	d101      	bne.n	10007154 <tuh_msc_inquiry+0x24>
10007150:	b00d      	add	sp, #52	; 0x34
10007152:	bdf0      	pop	{r4, r5, r6, r7, pc}
10007154:	ac04      	add	r4, sp, #16
10007156:	220b      	movs	r2, #11
10007158:	2100      	movs	r1, #0
1000715a:	a809      	add	r0, sp, #36	; 0x24
1000715c:	f7fd f9d0 	bl	10004500 <__wrap_memset>
10007160:	4b11      	ldr	r3, [pc, #68]	; (100071a8 <tuh_msc_inquiry+0x78>)
10007162:	9304      	str	r3, [sp, #16]
10007164:	4b11      	ldr	r3, [pc, #68]	; (100071ac <tuh_msc_inquiry+0x7c>)
10007166:	6063      	str	r3, [r4, #4]
10007168:	7367      	strb	r7, [r4, #13]
1000716a:	2724      	movs	r7, #36	; 0x24
1000716c:	60a7      	str	r7, [r4, #8]
1000716e:	2380      	movs	r3, #128	; 0x80
10007170:	7323      	strb	r3, [r4, #12]
10007172:	3b7a      	subs	r3, #122	; 0x7a
10007174:	73a3      	strb	r3, [r4, #14]
10007176:	2206      	movs	r2, #6
10007178:	2100      	movs	r1, #0
1000717a:	a802      	add	r0, sp, #8
1000717c:	f7fd f9c0 	bl	10004500 <__wrap_memset>
10007180:	2312      	movs	r3, #18
10007182:	aa02      	add	r2, sp, #8
10007184:	7013      	strb	r3, [r2, #0]
10007186:	7117      	strb	r7, [r2, #4]
10007188:	2206      	movs	r2, #6
1000718a:	a902      	add	r1, sp, #8
1000718c:	2017      	movs	r0, #23
1000718e:	468c      	mov	ip, r1
10007190:	4460      	add	r0, ip
10007192:	f7fd f9bb 	bl	1000450c <__wrap___aeabi_memcpy>
10007196:	9b01      	ldr	r3, [sp, #4]
10007198:	0032      	movs	r2, r6
1000719a:	0021      	movs	r1, r4
1000719c:	0028      	movs	r0, r5
1000719e:	f7ff ff59 	bl	10007054 <tuh_msc_scsi_command>
100071a2:	e7d5      	b.n	10007150 <tuh_msc_inquiry+0x20>
100071a4:	20001664 	.word	0x20001664
100071a8:	43425355 	.word	0x43425355
100071ac:	54555342 	.word	0x54555342

100071b0 <tuh_msc_test_unit_ready>:
100071b0:	b570      	push	{r4, r5, r6, lr}
100071b2:	b088      	sub	sp, #32
100071b4:	0004      	movs	r4, r0
100071b6:	000e      	movs	r6, r1
100071b8:	0015      	movs	r5, r2
100071ba:	1e42      	subs	r2, r0, #1
100071bc:	0053      	lsls	r3, r2, #1
100071be:	189b      	adds	r3, r3, r2
100071c0:	015a      	lsls	r2, r3, #5
100071c2:	4b0f      	ldr	r3, [pc, #60]	; (10007200 <tuh_msc_test_unit_ready+0x50>)
100071c4:	189b      	adds	r3, r3, r2
100071c6:	7918      	ldrb	r0, [r3, #4]
100071c8:	b2c0      	uxtb	r0, r0
100071ca:	2800      	cmp	r0, #0
100071cc:	d101      	bne.n	100071d2 <tuh_msc_test_unit_ready+0x22>
100071ce:	b008      	add	sp, #32
100071d0:	bd70      	pop	{r4, r5, r6, pc}
100071d2:	2217      	movs	r2, #23
100071d4:	2100      	movs	r1, #0
100071d6:	a802      	add	r0, sp, #8
100071d8:	f7fd f992 	bl	10004500 <__wrap_memset>
100071dc:	4b09      	ldr	r3, [pc, #36]	; (10007204 <tuh_msc_test_unit_ready+0x54>)
100071de:	9300      	str	r3, [sp, #0]
100071e0:	4b09      	ldr	r3, [pc, #36]	; (10007208 <tuh_msc_test_unit_ready+0x58>)
100071e2:	9301      	str	r3, [sp, #4]
100071e4:	466b      	mov	r3, sp
100071e6:	735e      	strb	r6, [r3, #13]
100071e8:	2306      	movs	r3, #6
100071ea:	466a      	mov	r2, sp
100071ec:	7393      	strb	r3, [r2, #14]
100071ee:	7416      	strb	r6, [r2, #16]
100071f0:	002b      	movs	r3, r5
100071f2:	2200      	movs	r2, #0
100071f4:	4669      	mov	r1, sp
100071f6:	0020      	movs	r0, r4
100071f8:	f7ff ff2c 	bl	10007054 <tuh_msc_scsi_command>
100071fc:	e7e7      	b.n	100071ce <tuh_msc_test_unit_ready+0x1e>
100071fe:	46c0      	nop			; (mov r8, r8)
10007200:	20001664 	.word	0x20001664
10007204:	43425355 	.word	0x43425355
10007208:	54555342 	.word	0x54555342

1000720c <config_get_maxlun_complete>:
1000720c:	b510      	push	{r4, lr}
1000720e:	1e41      	subs	r1, r0, #1
10007210:	2a00      	cmp	r2, #0
10007212:	d102      	bne.n	1000721a <config_get_maxlun_complete+0xe>
10007214:	4b08      	ldr	r3, [pc, #32]	; (10007238 <config_get_maxlun_complete+0x2c>)
10007216:	781a      	ldrb	r2, [r3, #0]
10007218:	e000      	b.n	1000721c <config_get_maxlun_complete+0x10>
1000721a:	2200      	movs	r2, #0
1000721c:	004b      	lsls	r3, r1, #1
1000721e:	185b      	adds	r3, r3, r1
10007220:	0159      	lsls	r1, r3, #5
10007222:	4b06      	ldr	r3, [pc, #24]	; (1000723c <config_get_maxlun_complete+0x30>)
10007224:	185b      	adds	r3, r3, r1
10007226:	3201      	adds	r2, #1
10007228:	70da      	strb	r2, [r3, #3]
1000722a:	4a05      	ldr	r2, [pc, #20]	; (10007240 <config_get_maxlun_complete+0x34>)
1000722c:	2100      	movs	r1, #0
1000722e:	f7ff ffbf 	bl	100071b0 <tuh_msc_test_unit_ready>
10007232:	2001      	movs	r0, #1
10007234:	bd10      	pop	{r4, pc}
10007236:	46c0      	nop			; (mov r8, r8)
10007238:	20001640 	.word	0x20001640
1000723c:	20001664 	.word	0x20001664
10007240:	100072f5 	.word	0x100072f5

10007244 <config_request_sense_complete>:
10007244:	b510      	push	{r4, lr}
10007246:	7b13      	ldrb	r3, [r2, #12]
10007248:	2b00      	cmp	r3, #0
1000724a:	d107      	bne.n	1000725c <config_request_sense_complete+0x18>
1000724c:	7b49      	ldrb	r1, [r1, #13]
1000724e:	4a0b      	ldr	r2, [pc, #44]	; (1000727c <config_request_sense_complete+0x38>)
10007250:	f7ff ffae 	bl	100071b0 <tuh_msc_test_unit_ready>
10007254:	1e04      	subs	r4, r0, #0
10007256:	d009      	beq.n	1000726c <config_request_sense_complete+0x28>
10007258:	0020      	movs	r0, r4
1000725a:	bd10      	pop	{r4, pc}
1000725c:	22d2      	movs	r2, #210	; 0xd2
1000725e:	32ff      	adds	r2, #255	; 0xff
10007260:	4907      	ldr	r1, [pc, #28]	; (10007280 <config_request_sense_complete+0x3c>)
10007262:	4808      	ldr	r0, [pc, #32]	; (10007284 <config_request_sense_complete+0x40>)
10007264:	f7fd fb04 	bl	10004870 <__wrap_printf>
10007268:	2400      	movs	r4, #0
1000726a:	e7f5      	b.n	10007258 <config_request_sense_complete+0x14>
1000726c:	22e9      	movs	r2, #233	; 0xe9
1000726e:	0052      	lsls	r2, r2, #1
10007270:	4903      	ldr	r1, [pc, #12]	; (10007280 <config_request_sense_complete+0x3c>)
10007272:	4804      	ldr	r0, [pc, #16]	; (10007284 <config_request_sense_complete+0x40>)
10007274:	f7fd fafc 	bl	10004870 <__wrap_printf>
10007278:	e7ee      	b.n	10007258 <config_request_sense_complete+0x14>
1000727a:	46c0      	nop			; (mov r8, r8)
1000727c:	100072f5 	.word	0x100072f5
10007280:	1000a46c 	.word	0x1000a46c
10007284:	1000a208 	.word	0x1000a208

10007288 <tuh_msc_request_sense>:
10007288:	b5f0      	push	{r4, r5, r6, r7, lr}
1000728a:	b08d      	sub	sp, #52	; 0x34
1000728c:	9001      	str	r0, [sp, #4]
1000728e:	000d      	movs	r5, r1
10007290:	0016      	movs	r6, r2
10007292:	001f      	movs	r7, r3
10007294:	ac04      	add	r4, sp, #16
10007296:	220b      	movs	r2, #11
10007298:	2100      	movs	r1, #0
1000729a:	a809      	add	r0, sp, #36	; 0x24
1000729c:	f7fd f930 	bl	10004500 <__wrap_memset>
100072a0:	4b12      	ldr	r3, [pc, #72]	; (100072ec <tuh_msc_request_sense+0x64>)
100072a2:	9304      	str	r3, [sp, #16]
100072a4:	4b12      	ldr	r3, [pc, #72]	; (100072f0 <tuh_msc_request_sense+0x68>)
100072a6:	6063      	str	r3, [r4, #4]
100072a8:	7365      	strb	r5, [r4, #13]
100072aa:	2512      	movs	r5, #18
100072ac:	60a5      	str	r5, [r4, #8]
100072ae:	2380      	movs	r3, #128	; 0x80
100072b0:	7323      	strb	r3, [r4, #12]
100072b2:	3b7a      	subs	r3, #122	; 0x7a
100072b4:	73a3      	strb	r3, [r4, #14]
100072b6:	2206      	movs	r2, #6
100072b8:	2100      	movs	r1, #0
100072ba:	a802      	add	r0, sp, #8
100072bc:	f7fd f920 	bl	10004500 <__wrap_memset>
100072c0:	2303      	movs	r3, #3
100072c2:	aa02      	add	r2, sp, #8
100072c4:	7013      	strb	r3, [r2, #0]
100072c6:	0013      	movs	r3, r2
100072c8:	7115      	strb	r5, [r2, #4]
100072ca:	2206      	movs	r2, #6
100072cc:	0019      	movs	r1, r3
100072ce:	2317      	movs	r3, #23
100072d0:	468c      	mov	ip, r1
100072d2:	4463      	add	r3, ip
100072d4:	0018      	movs	r0, r3
100072d6:	f7fd f919 	bl	1000450c <__wrap___aeabi_memcpy>
100072da:	003b      	movs	r3, r7
100072dc:	0032      	movs	r2, r6
100072de:	0021      	movs	r1, r4
100072e0:	9801      	ldr	r0, [sp, #4]
100072e2:	f7ff feb7 	bl	10007054 <tuh_msc_scsi_command>
100072e6:	b00d      	add	sp, #52	; 0x34
100072e8:	bdf0      	pop	{r4, r5, r6, r7, pc}
100072ea:	46c0      	nop			; (mov r8, r8)
100072ec:	43425355 	.word	0x43425355
100072f0:	54555342 	.word	0x54555342

100072f4 <config_test_unit_ready_complete>:
100072f4:	b510      	push	{r4, lr}
100072f6:	7b13      	ldrb	r3, [r2, #12]
100072f8:	2b00      	cmp	r3, #0
100072fa:	d107      	bne.n	1000730c <config_test_unit_ready_complete+0x18>
100072fc:	7b49      	ldrb	r1, [r1, #13]
100072fe:	4b0a      	ldr	r3, [pc, #40]	; (10007328 <config_test_unit_ready_complete+0x34>)
10007300:	4a0a      	ldr	r2, [pc, #40]	; (1000732c <config_test_unit_ready_complete+0x38>)
10007302:	f7ff fee1 	bl	100070c8 <tuh_msc_read_capacity>
10007306:	2401      	movs	r4, #1
10007308:	0020      	movs	r0, r4
1000730a:	bd10      	pop	{r4, pc}
1000730c:	7b49      	ldrb	r1, [r1, #13]
1000730e:	4b08      	ldr	r3, [pc, #32]	; (10007330 <config_test_unit_ready_complete+0x3c>)
10007310:	4a06      	ldr	r2, [pc, #24]	; (1000732c <config_test_unit_ready_complete+0x38>)
10007312:	f7ff ffb9 	bl	10007288 <tuh_msc_request_sense>
10007316:	1e04      	subs	r4, r0, #0
10007318:	d1f6      	bne.n	10007308 <config_test_unit_ready_complete+0x14>
1000731a:	22ca      	movs	r2, #202	; 0xca
1000731c:	32ff      	adds	r2, #255	; 0xff
1000731e:	4905      	ldr	r1, [pc, #20]	; (10007334 <config_test_unit_ready_complete+0x40>)
10007320:	4805      	ldr	r0, [pc, #20]	; (10007338 <config_test_unit_ready_complete+0x44>)
10007322:	f7fd faa5 	bl	10004870 <__wrap_printf>
10007326:	e7ef      	b.n	10007308 <config_test_unit_ready_complete+0x14>
10007328:	10006f89 	.word	0x10006f89
1000732c:	20001640 	.word	0x20001640
10007330:	10007245 	.word	0x10007245
10007334:	1000a44c 	.word	0x1000a44c
10007338:	1000a208 	.word	0x1000a208

1000733c <msch_init>:
1000733c:	b510      	push	{r4, lr}
1000733e:	22c0      	movs	r2, #192	; 0xc0
10007340:	0052      	lsls	r2, r2, #1
10007342:	2100      	movs	r1, #0
10007344:	4801      	ldr	r0, [pc, #4]	; (1000734c <msch_init+0x10>)
10007346:	f7fd f8db 	bl	10004500 <__wrap_memset>
1000734a:	bd10      	pop	{r4, pc}
1000734c:	20001664 	.word	0x20001664

10007350 <msch_close>:
10007350:	b510      	push	{r4, lr}
10007352:	2804      	cmp	r0, #4
10007354:	d812      	bhi.n	1000737c <msch_close+0x2c>
10007356:	1e41      	subs	r1, r0, #1
10007358:	004b      	lsls	r3, r1, #1
1000735a:	185a      	adds	r2, r3, r1
1000735c:	0154      	lsls	r4, r2, #5
1000735e:	4a08      	ldr	r2, [pc, #32]	; (10007380 <msch_close+0x30>)
10007360:	18a4      	adds	r4, r4, r2
10007362:	7963      	ldrb	r3, [r4, #5]
10007364:	2b00      	cmp	r3, #0
10007366:	d004      	beq.n	10007372 <msch_close+0x22>
10007368:	4b06      	ldr	r3, [pc, #24]	; (10007384 <msch_close+0x34>)
1000736a:	2b00      	cmp	r3, #0
1000736c:	d001      	beq.n	10007372 <msch_close+0x22>
1000736e:	f7f9 f9e7 	bl	10000740 <tuh_msc_umount_cb>
10007372:	2260      	movs	r2, #96	; 0x60
10007374:	2100      	movs	r1, #0
10007376:	0020      	movs	r0, r4
10007378:	f7fd f8c2 	bl	10004500 <__wrap_memset>
1000737c:	bd10      	pop	{r4, pc}
1000737e:	46c0      	nop			; (mov r8, r8)
10007380:	20001664 	.word	0x20001664
10007384:	10000741 	.word	0x10000741

10007388 <msch_xfer_cb>:
10007388:	b5f0      	push	{r4, r5, r6, r7, lr}
1000738a:	b083      	sub	sp, #12
1000738c:	9201      	str	r2, [sp, #4]
1000738e:	1e47      	subs	r7, r0, #1
10007390:	007d      	lsls	r5, r7, #1
10007392:	19ec      	adds	r4, r5, r7
10007394:	0162      	lsls	r2, r4, #5
10007396:	3230      	adds	r2, #48	; 0x30
10007398:	4c50      	ldr	r4, [pc, #320]	; (100074dc <msch_xfer_cb+0x154>)
1000739a:	1912      	adds	r2, r2, r4
1000739c:	3204      	adds	r2, #4
1000739e:	4694      	mov	ip, r2
100073a0:	19ea      	adds	r2, r5, r7
100073a2:	0156      	lsls	r6, r2, #5
100073a4:	0032      	movs	r2, r6
100073a6:	3250      	adds	r2, #80	; 0x50
100073a8:	1912      	adds	r2, r2, r4
100073aa:	3203      	adds	r2, #3
100073ac:	19a4      	adds	r4, r4, r6
100073ae:	3428      	adds	r4, #40	; 0x28
100073b0:	7824      	ldrb	r4, [r4, #0]
100073b2:	2c02      	cmp	r4, #2
100073b4:	d065      	beq.n	10007482 <msch_xfer_cb+0xfa>
100073b6:	2c03      	cmp	r4, #3
100073b8:	d100      	bne.n	100073bc <msch_xfer_cb+0x34>
100073ba:	e07b      	b.n	100074b4 <msch_xfer_cb+0x12c>
100073bc:	2c01      	cmp	r4, #1
100073be:	d003      	beq.n	100073c8 <msch_xfer_cb+0x40>
100073c0:	2401      	movs	r4, #1
100073c2:	0020      	movs	r0, r4
100073c4:	b003      	add	sp, #12
100073c6:	bdf0      	pop	{r4, r5, r6, r7, pc}
100073c8:	4c44      	ldr	r4, [pc, #272]	; (100074dc <msch_xfer_cb+0x154>)
100073ca:	19a4      	adds	r4, r4, r6
100073cc:	78a4      	ldrb	r4, [r4, #2]
100073ce:	428c      	cmp	r4, r1
100073d0:	d104      	bne.n	100073dc <msch_xfer_cb+0x54>
100073d2:	9901      	ldr	r1, [sp, #4]
100073d4:	2900      	cmp	r1, #0
100073d6:	d101      	bne.n	100073dc <msch_xfer_cb+0x54>
100073d8:	2b1f      	cmp	r3, #31
100073da:	d007      	beq.n	100073ec <msch_xfer_cb+0x64>
100073dc:	22a0      	movs	r2, #160	; 0xa0
100073de:	0052      	lsls	r2, r2, #1
100073e0:	493f      	ldr	r1, [pc, #252]	; (100074e0 <msch_xfer_cb+0x158>)
100073e2:	4840      	ldr	r0, [pc, #256]	; (100074e4 <msch_xfer_cb+0x15c>)
100073e4:	f7fd fa44 	bl	10004870 <__wrap_printf>
100073e8:	2400      	movs	r4, #0
100073ea:	e7ea      	b.n	100073c2 <msch_xfer_cb+0x3a>
100073ec:	007b      	lsls	r3, r7, #1
100073ee:	19db      	adds	r3, r3, r7
100073f0:	0159      	lsls	r1, r3, #5
100073f2:	4b3a      	ldr	r3, [pc, #232]	; (100074dc <msch_xfer_cb+0x154>)
100073f4:	185b      	adds	r3, r3, r1
100073f6:	6bdb      	ldr	r3, [r3, #60]	; 0x3c
100073f8:	2b00      	cmp	r3, #0
100073fa:	d02a      	beq.n	10007452 <msch_xfer_cb+0xca>
100073fc:	0079      	lsls	r1, r7, #1
100073fe:	19c9      	adds	r1, r1, r7
10007400:	014d      	lsls	r5, r1, #5
10007402:	4936      	ldr	r1, [pc, #216]	; (100074dc <msch_xfer_cb+0x154>)
10007404:	1949      	adds	r1, r1, r5
10007406:	6ace      	ldr	r6, [r1, #44]	; 0x2c
10007408:	2e00      	cmp	r6, #0
1000740a:	d022      	beq.n	10007452 <msch_xfer_cb+0xca>
1000740c:	007d      	lsls	r5, r7, #1
1000740e:	19ed      	adds	r5, r5, r7
10007410:	016a      	lsls	r2, r5, #5
10007412:	4932      	ldr	r1, [pc, #200]	; (100074dc <msch_xfer_cb+0x154>)
10007414:	1889      	adds	r1, r1, r2
10007416:	000a      	movs	r2, r1
10007418:	3228      	adds	r2, #40	; 0x28
1000741a:	2502      	movs	r5, #2
1000741c:	7015      	strb	r5, [r2, #0]
1000741e:	3140      	adds	r1, #64	; 0x40
10007420:	2200      	movs	r2, #0
10007422:	568a      	ldrsb	r2, [r1, r2]
10007424:	2a00      	cmp	r2, #0
10007426:	db0d      	blt.n	10007444 <msch_xfer_cb+0xbc>
10007428:	b29b      	uxth	r3, r3
1000742a:	0032      	movs	r2, r6
1000742c:	0021      	movs	r1, r4
1000742e:	f7fe fdf7 	bl	10006020 <usbh_edpt_xfer>
10007432:	1e04      	subs	r4, r0, #0
10007434:	d1c5      	bne.n	100073c2 <msch_xfer_cb+0x3a>
10007436:	22a4      	movs	r2, #164	; 0xa4
10007438:	0052      	lsls	r2, r2, #1
1000743a:	4929      	ldr	r1, [pc, #164]	; (100074e0 <msch_xfer_cb+0x158>)
1000743c:	4829      	ldr	r0, [pc, #164]	; (100074e4 <msch_xfer_cb+0x15c>)
1000743e:	f7fd fa17 	bl	10004870 <__wrap_printf>
10007442:	e7be      	b.n	100073c2 <msch_xfer_cb+0x3a>
10007444:	007a      	lsls	r2, r7, #1
10007446:	19d2      	adds	r2, r2, r7
10007448:	0151      	lsls	r1, r2, #5
1000744a:	4a24      	ldr	r2, [pc, #144]	; (100074dc <msch_xfer_cb+0x154>)
1000744c:	1852      	adds	r2, r2, r1
1000744e:	7854      	ldrb	r4, [r2, #1]
10007450:	e7ea      	b.n	10007428 <msch_xfer_cb+0xa0>
10007452:	4c22      	ldr	r4, [pc, #136]	; (100074dc <msch_xfer_cb+0x154>)
10007454:	0079      	lsls	r1, r7, #1
10007456:	19cd      	adds	r5, r1, r7
10007458:	016b      	lsls	r3, r5, #5
1000745a:	18e3      	adds	r3, r4, r3
1000745c:	3328      	adds	r3, #40	; 0x28
1000745e:	2503      	movs	r5, #3
10007460:	701d      	strb	r5, [r3, #0]
10007462:	19cf      	adds	r7, r1, r7
10007464:	0179      	lsls	r1, r7, #5
10007466:	1864      	adds	r4, r4, r1
10007468:	7861      	ldrb	r1, [r4, #1]
1000746a:	230d      	movs	r3, #13
1000746c:	f7fe fdd8 	bl	10006020 <usbh_edpt_xfer>
10007470:	1e04      	subs	r4, r0, #0
10007472:	d1a6      	bne.n	100073c2 <msch_xfer_cb+0x3a>
10007474:	224e      	movs	r2, #78	; 0x4e
10007476:	32ff      	adds	r2, #255	; 0xff
10007478:	4919      	ldr	r1, [pc, #100]	; (100074e0 <msch_xfer_cb+0x158>)
1000747a:	481a      	ldr	r0, [pc, #104]	; (100074e4 <msch_xfer_cb+0x15c>)
1000747c:	f7fd f9f8 	bl	10004870 <__wrap_printf>
10007480:	e79f      	b.n	100073c2 <msch_xfer_cb+0x3a>
10007482:	4c16      	ldr	r4, [pc, #88]	; (100074dc <msch_xfer_cb+0x154>)
10007484:	0079      	lsls	r1, r7, #1
10007486:	19cd      	adds	r5, r1, r7
10007488:	016b      	lsls	r3, r5, #5
1000748a:	18e3      	adds	r3, r4, r3
1000748c:	3328      	adds	r3, #40	; 0x28
1000748e:	2503      	movs	r5, #3
10007490:	701d      	strb	r5, [r3, #0]
10007492:	19cf      	adds	r7, r1, r7
10007494:	0179      	lsls	r1, r7, #5
10007496:	1864      	adds	r4, r4, r1
10007498:	7861      	ldrb	r1, [r4, #1]
1000749a:	230d      	movs	r3, #13
1000749c:	f7fe fdc0 	bl	10006020 <usbh_edpt_xfer>
100074a0:	1e04      	subs	r4, r0, #0
100074a2:	d000      	beq.n	100074a6 <msch_xfer_cb+0x11e>
100074a4:	e78d      	b.n	100073c2 <msch_xfer_cb+0x3a>
100074a6:	22aa      	movs	r2, #170	; 0xaa
100074a8:	0052      	lsls	r2, r2, #1
100074aa:	490d      	ldr	r1, [pc, #52]	; (100074e0 <msch_xfer_cb+0x158>)
100074ac:	480d      	ldr	r0, [pc, #52]	; (100074e4 <msch_xfer_cb+0x15c>)
100074ae:	f7fd f9df 	bl	10004870 <__wrap_printf>
100074b2:	e786      	b.n	100073c2 <msch_xfer_cb+0x3a>
100074b4:	4c09      	ldr	r4, [pc, #36]	; (100074dc <msch_xfer_cb+0x154>)
100074b6:	0079      	lsls	r1, r7, #1
100074b8:	19cd      	adds	r5, r1, r7
100074ba:	016b      	lsls	r3, r5, #5
100074bc:	18e3      	adds	r3, r4, r3
100074be:	3328      	adds	r3, #40	; 0x28
100074c0:	2500      	movs	r5, #0
100074c2:	701d      	strb	r5, [r3, #0]
100074c4:	19cb      	adds	r3, r1, r7
100074c6:	0159      	lsls	r1, r3, #5
100074c8:	1864      	adds	r4, r4, r1
100074ca:	6b23      	ldr	r3, [r4, #48]	; 0x30
100074cc:	2b00      	cmp	r3, #0
100074ce:	d003      	beq.n	100074d8 <msch_xfer_cb+0x150>
100074d0:	4661      	mov	r1, ip
100074d2:	4798      	blx	r3
100074d4:	2401      	movs	r4, #1
100074d6:	e774      	b.n	100073c2 <msch_xfer_cb+0x3a>
100074d8:	2401      	movs	r4, #1
100074da:	e772      	b.n	100073c2 <msch_xfer_cb+0x3a>
100074dc:	20001664 	.word	0x20001664
100074e0:	1000a420 	.word	0x1000a420
100074e4:	1000a208 	.word	0x1000a208

100074e8 <msch_open>:
100074e8:	b5f0      	push	{r4, r5, r6, r7, lr}
100074ea:	b085      	sub	sp, #20
100074ec:	9003      	str	r0, [sp, #12]
100074ee:	9102      	str	r1, [sp, #8]
100074f0:	0014      	movs	r4, r2
100074f2:	7992      	ldrb	r2, [r2, #6]
100074f4:	2a06      	cmp	r2, #6
100074f6:	d158      	bne.n	100075aa <msch_open+0xc2>
100074f8:	79e2      	ldrb	r2, [r4, #7]
100074fa:	2a50      	cmp	r2, #80	; 0x50
100074fc:	d15a      	bne.n	100075b4 <msch_open+0xcc>
100074fe:	7921      	ldrb	r1, [r4, #4]
10007500:	00ca      	lsls	r2, r1, #3
10007502:	1a52      	subs	r2, r2, r1
10007504:	b292      	uxth	r2, r2
10007506:	3209      	adds	r2, #9
10007508:	b292      	uxth	r2, r2
1000750a:	429a      	cmp	r2, r3
1000750c:	d805      	bhi.n	1000751a <msch_open+0x32>
1000750e:	9b02      	ldr	r3, [sp, #8]
10007510:	1e5f      	subs	r7, r3, #1
10007512:	7825      	ldrb	r5, [r4, #0]
10007514:	1965      	adds	r5, r4, r5
10007516:	2600      	movs	r6, #0
10007518:	e021      	b.n	1000755e <msch_open+0x76>
1000751a:	2276      	movs	r2, #118	; 0x76
1000751c:	32ff      	adds	r2, #255	; 0xff
1000751e:	4927      	ldr	r1, [pc, #156]	; (100075bc <msch_open+0xd4>)
10007520:	4827      	ldr	r0, [pc, #156]	; (100075c0 <msch_open+0xd8>)
10007522:	f7fd f9a5 	bl	10004870 <__wrap_printf>
10007526:	2300      	movs	r3, #0
10007528:	9301      	str	r3, [sp, #4]
1000752a:	e040      	b.n	100075ae <msch_open+0xc6>
1000752c:	22be      	movs	r2, #190	; 0xbe
1000752e:	0052      	lsls	r2, r2, #1
10007530:	4922      	ldr	r1, [pc, #136]	; (100075bc <msch_open+0xd4>)
10007532:	4823      	ldr	r0, [pc, #140]	; (100075c0 <msch_open+0xd8>)
10007534:	f7fd f99c 	bl	10004870 <__wrap_printf>
10007538:	2300      	movs	r3, #0
1000753a:	9301      	str	r3, [sp, #4]
1000753c:	e037      	b.n	100075ae <msch_open+0xc6>
1000753e:	227e      	movs	r2, #126	; 0x7e
10007540:	32ff      	adds	r2, #255	; 0xff
10007542:	491e      	ldr	r1, [pc, #120]	; (100075bc <msch_open+0xd4>)
10007544:	481e      	ldr	r0, [pc, #120]	; (100075c0 <msch_open+0xd8>)
10007546:	f7fd f993 	bl	10004870 <__wrap_printf>
1000754a:	e030      	b.n	100075ae <msch_open+0xc6>
1000754c:	007b      	lsls	r3, r7, #1
1000754e:	19db      	adds	r3, r3, r7
10007550:	0159      	lsls	r1, r3, #5
10007552:	4b1c      	ldr	r3, [pc, #112]	; (100075c4 <msch_open+0xdc>)
10007554:	185b      	adds	r3, r3, r1
10007556:	709a      	strb	r2, [r3, #2]
10007558:	782b      	ldrb	r3, [r5, #0]
1000755a:	18ed      	adds	r5, r5, r3
1000755c:	3601      	adds	r6, #1
1000755e:	2e01      	cmp	r6, #1
10007560:	d81a      	bhi.n	10007598 <msch_open+0xb0>
10007562:	786b      	ldrb	r3, [r5, #1]
10007564:	2b05      	cmp	r3, #5
10007566:	d1e1      	bne.n	1000752c <msch_open+0x44>
10007568:	78ea      	ldrb	r2, [r5, #3]
1000756a:	3b02      	subs	r3, #2
1000756c:	4013      	ands	r3, r2
1000756e:	2b02      	cmp	r3, #2
10007570:	d1dc      	bne.n	1000752c <msch_open+0x44>
10007572:	002a      	movs	r2, r5
10007574:	9902      	ldr	r1, [sp, #8]
10007576:	9803      	ldr	r0, [sp, #12]
10007578:	f7fe fda6 	bl	100060c8 <usbh_edpt_open>
1000757c:	9001      	str	r0, [sp, #4]
1000757e:	2800      	cmp	r0, #0
10007580:	d0dd      	beq.n	1000753e <msch_open+0x56>
10007582:	78aa      	ldrb	r2, [r5, #2]
10007584:	09d3      	lsrs	r3, r2, #7
10007586:	2b01      	cmp	r3, #1
10007588:	d1e0      	bne.n	1000754c <msch_open+0x64>
1000758a:	007b      	lsls	r3, r7, #1
1000758c:	19db      	adds	r3, r3, r7
1000758e:	0159      	lsls	r1, r3, #5
10007590:	4b0c      	ldr	r3, [pc, #48]	; (100075c4 <msch_open+0xdc>)
10007592:	185b      	adds	r3, r3, r1
10007594:	705a      	strb	r2, [r3, #1]
10007596:	e7df      	b.n	10007558 <msch_open+0x70>
10007598:	78a1      	ldrb	r1, [r4, #2]
1000759a:	007b      	lsls	r3, r7, #1
1000759c:	19db      	adds	r3, r3, r7
1000759e:	015a      	lsls	r2, r3, #5
100075a0:	4b08      	ldr	r3, [pc, #32]	; (100075c4 <msch_open+0xdc>)
100075a2:	54d1      	strb	r1, [r2, r3]
100075a4:	2301      	movs	r3, #1
100075a6:	9301      	str	r3, [sp, #4]
100075a8:	e001      	b.n	100075ae <msch_open+0xc6>
100075aa:	2300      	movs	r3, #0
100075ac:	9301      	str	r3, [sp, #4]
100075ae:	9801      	ldr	r0, [sp, #4]
100075b0:	b005      	add	sp, #20
100075b2:	bdf0      	pop	{r4, r5, r6, r7, pc}
100075b4:	2300      	movs	r3, #0
100075b6:	9301      	str	r3, [sp, #4]
100075b8:	e7f9      	b.n	100075ae <msch_open+0xc6>
100075ba:	46c0      	nop			; (mov r8, r8)
100075bc:	1000a430 	.word	0x1000a430
100075c0:	1000a208 	.word	0x1000a208
100075c4:	20001664 	.word	0x20001664

100075c8 <msch_set_config>:
100075c8:	b5f0      	push	{r4, r5, r6, r7, lr}
100075ca:	b083      	sub	sp, #12
100075cc:	1e42      	subs	r2, r0, #1
100075ce:	0053      	lsls	r3, r2, #1
100075d0:	189b      	adds	r3, r3, r2
100075d2:	015b      	lsls	r3, r3, #5
100075d4:	4c1d      	ldr	r4, [pc, #116]	; (1000764c <msch_set_config+0x84>)
100075d6:	5d1b      	ldrb	r3, [r3, r4]
100075d8:	428b      	cmp	r3, r1
100075da:	d009      	beq.n	100075f0 <msch_set_config+0x28>
100075dc:	22c9      	movs	r2, #201	; 0xc9
100075de:	0052      	lsls	r2, r2, #1
100075e0:	491b      	ldr	r1, [pc, #108]	; (10007650 <msch_set_config+0x88>)
100075e2:	481c      	ldr	r0, [pc, #112]	; (10007654 <msch_set_config+0x8c>)
100075e4:	f7fd f944 	bl	10004870 <__wrap_printf>
100075e8:	2400      	movs	r4, #0
100075ea:	0020      	movs	r0, r4
100075ec:	b003      	add	sp, #12
100075ee:	bdf0      	pop	{r4, r5, r6, r7, pc}
100075f0:	4d16      	ldr	r5, [pc, #88]	; (1000764c <msch_set_config+0x84>)
100075f2:	0053      	lsls	r3, r2, #1
100075f4:	189c      	adds	r4, r3, r2
100075f6:	0164      	lsls	r4, r4, #5
100075f8:	192c      	adds	r4, r5, r4
100075fa:	2601      	movs	r6, #1
100075fc:	7126      	strb	r6, [r4, #4]
100075fe:	466c      	mov	r4, sp
10007600:	7824      	ldrb	r4, [r4, #0]
10007602:	271f      	movs	r7, #31
10007604:	43bc      	bics	r4, r7
10007606:	2701      	movs	r7, #1
10007608:	433c      	orrs	r4, r7
1000760a:	2760      	movs	r7, #96	; 0x60
1000760c:	43bc      	bics	r4, r7
1000760e:	2720      	movs	r7, #32
10007610:	433c      	orrs	r4, r7
10007612:	2780      	movs	r7, #128	; 0x80
10007614:	427f      	negs	r7, r7
10007616:	433c      	orrs	r4, r7
10007618:	466f      	mov	r7, sp
1000761a:	703c      	strb	r4, [r7, #0]
1000761c:	24fe      	movs	r4, #254	; 0xfe
1000761e:	707c      	strb	r4, [r7, #1]
10007620:	2400      	movs	r4, #0
10007622:	807c      	strh	r4, [r7, #2]
10007624:	80b9      	strh	r1, [r7, #4]
10007626:	4669      	mov	r1, sp
10007628:	80fe      	strh	r6, [r7, #6]
1000762a:	189a      	adds	r2, r3, r2
1000762c:	0152      	lsls	r2, r2, #5
1000762e:	1952      	adds	r2, r2, r5
10007630:	3203      	adds	r2, #3
10007632:	4b09      	ldr	r3, [pc, #36]	; (10007658 <msch_set_config+0x90>)
10007634:	f7fe fda8 	bl	10006188 <tuh_control_xfer>
10007638:	1e04      	subs	r4, r0, #0
1000763a:	d1d6      	bne.n	100075ea <msch_set_config+0x22>
1000763c:	22a6      	movs	r2, #166	; 0xa6
1000763e:	32ff      	adds	r2, #255	; 0xff
10007640:	4903      	ldr	r1, [pc, #12]	; (10007650 <msch_set_config+0x88>)
10007642:	4804      	ldr	r0, [pc, #16]	; (10007654 <msch_set_config+0x8c>)
10007644:	f7fd f914 	bl	10004870 <__wrap_printf>
10007648:	e7cf      	b.n	100075ea <msch_set_config+0x22>
1000764a:	46c0      	nop			; (mov r8, r8)
1000764c:	20001664 	.word	0x20001664
10007650:	1000a43c 	.word	0x1000a43c
10007654:	1000a208 	.word	0x1000a208
10007658:	1000720d 	.word	0x1000720d

1000765c <tusb_init>:
1000765c:	b510      	push	{r4, lr}
1000765e:	2000      	movs	r0, #0
10007660:	f7fe f92a 	bl	100058b8 <tuh_init>
10007664:	1e04      	subs	r4, r0, #0
10007666:	d001      	beq.n	1000766c <tusb_init+0x10>
10007668:	0020      	movs	r0, r4
1000766a:	bd10      	pop	{r4, pc}
1000766c:	222d      	movs	r2, #45	; 0x2d
1000766e:	4902      	ldr	r1, [pc, #8]	; (10007678 <tusb_init+0x1c>)
10007670:	4802      	ldr	r0, [pc, #8]	; (1000767c <tusb_init+0x20>)
10007672:	f7fd f8fd 	bl	10004870 <__wrap_printf>
10007676:	e7f7      	b.n	10007668 <tusb_init+0xc>
10007678:	1000a4ac 	.word	0x1000a4ac
1000767c:	1000a208 	.word	0x1000a208

10007680 <tusb_inited>:
10007680:	b510      	push	{r4, lr}
10007682:	f7fe f913 	bl	100058ac <tuh_inited>
10007686:	2800      	cmp	r0, #0
10007688:	d000      	beq.n	1000768c <tusb_inited+0xc>
1000768a:	2001      	movs	r0, #1
1000768c:	bd10      	pop	{r4, pc}
	...

10007690 <tu_edpt_validate>:
10007690:	b510      	push	{r4, lr}
10007692:	7902      	ldrb	r2, [r0, #4]
10007694:	7944      	ldrb	r4, [r0, #5]
10007696:	2307      	movs	r3, #7
10007698:	4023      	ands	r3, r4
1000769a:	021b      	lsls	r3, r3, #8
1000769c:	431a      	orrs	r2, r3
1000769e:	78c3      	ldrb	r3, [r0, #3]
100076a0:	079b      	lsls	r3, r3, #30
100076a2:	0f9b      	lsrs	r3, r3, #30
100076a4:	2b02      	cmp	r3, #2
100076a6:	d013      	beq.n	100076d0 <tu_edpt_validate+0x40>
100076a8:	d82c      	bhi.n	10007704 <tu_edpt_validate+0x74>
100076aa:	2b01      	cmp	r3, #1
100076ac:	d13b      	bne.n	10007726 <tu_edpt_validate+0x96>
100076ae:	2902      	cmp	r1, #2
100076b0:	d004      	beq.n	100076bc <tu_edpt_validate+0x2c>
100076b2:	4b1e      	ldr	r3, [pc, #120]	; (1000772c <tu_edpt_validate+0x9c>)
100076b4:	4293      	cmp	r3, r2
100076b6:	d304      	bcc.n	100076c2 <tu_edpt_validate+0x32>
100076b8:	2001      	movs	r0, #1
100076ba:	e035      	b.n	10007728 <tu_edpt_validate+0x98>
100076bc:	2380      	movs	r3, #128	; 0x80
100076be:	00db      	lsls	r3, r3, #3
100076c0:	e7f8      	b.n	100076b4 <tu_edpt_validate+0x24>
100076c2:	2250      	movs	r2, #80	; 0x50
100076c4:	491a      	ldr	r1, [pc, #104]	; (10007730 <tu_edpt_validate+0xa0>)
100076c6:	481b      	ldr	r0, [pc, #108]	; (10007734 <tu_edpt_validate+0xa4>)
100076c8:	f7fd f8d2 	bl	10004870 <__wrap_printf>
100076cc:	2000      	movs	r0, #0
100076ce:	e02b      	b.n	10007728 <tu_edpt_validate+0x98>
100076d0:	2902      	cmp	r1, #2
100076d2:	d003      	beq.n	100076dc <tu_edpt_validate+0x4c>
100076d4:	2a40      	cmp	r2, #64	; 0x40
100076d6:	d80e      	bhi.n	100076f6 <tu_edpt_validate+0x66>
100076d8:	2001      	movs	r0, #1
100076da:	e025      	b.n	10007728 <tu_edpt_validate+0x98>
100076dc:	2380      	movs	r3, #128	; 0x80
100076de:	009b      	lsls	r3, r3, #2
100076e0:	429a      	cmp	r2, r3
100076e2:	d101      	bne.n	100076e8 <tu_edpt_validate+0x58>
100076e4:	2001      	movs	r0, #1
100076e6:	e01f      	b.n	10007728 <tu_edpt_validate+0x98>
100076e8:	2258      	movs	r2, #88	; 0x58
100076ea:	4911      	ldr	r1, [pc, #68]	; (10007730 <tu_edpt_validate+0xa0>)
100076ec:	4811      	ldr	r0, [pc, #68]	; (10007734 <tu_edpt_validate+0xa4>)
100076ee:	f7fd f8bf 	bl	10004870 <__wrap_printf>
100076f2:	2000      	movs	r0, #0
100076f4:	e018      	b.n	10007728 <tu_edpt_validate+0x98>
100076f6:	225c      	movs	r2, #92	; 0x5c
100076f8:	490d      	ldr	r1, [pc, #52]	; (10007730 <tu_edpt_validate+0xa0>)
100076fa:	480e      	ldr	r0, [pc, #56]	; (10007734 <tu_edpt_validate+0xa4>)
100076fc:	f7fd f8b8 	bl	10004870 <__wrap_printf>
10007700:	2000      	movs	r0, #0
10007702:	e011      	b.n	10007728 <tu_edpt_validate+0x98>
10007704:	2902      	cmp	r1, #2
10007706:	d004      	beq.n	10007712 <tu_edpt_validate+0x82>
10007708:	2340      	movs	r3, #64	; 0x40
1000770a:	4293      	cmp	r3, r2
1000770c:	d304      	bcc.n	10007718 <tu_edpt_validate+0x88>
1000770e:	2001      	movs	r0, #1
10007710:	e00a      	b.n	10007728 <tu_edpt_validate+0x98>
10007712:	2380      	movs	r3, #128	; 0x80
10007714:	00db      	lsls	r3, r3, #3
10007716:	e7f8      	b.n	1000770a <tu_edpt_validate+0x7a>
10007718:	2263      	movs	r2, #99	; 0x63
1000771a:	4905      	ldr	r1, [pc, #20]	; (10007730 <tu_edpt_validate+0xa0>)
1000771c:	4805      	ldr	r0, [pc, #20]	; (10007734 <tu_edpt_validate+0xa4>)
1000771e:	f7fd f8a7 	bl	10004870 <__wrap_printf>
10007722:	2000      	movs	r0, #0
10007724:	e000      	b.n	10007728 <tu_edpt_validate+0x98>
10007726:	2000      	movs	r0, #0
10007728:	bd10      	pop	{r4, pc}
1000772a:	46c0      	nop			; (mov r8, r8)
1000772c:	000003ff 	.word	0x000003ff
10007730:	1000a4b8 	.word	0x1000a4b8
10007734:	1000a208 	.word	0x1000a208

10007738 <tu_edpt_bind_driver>:
10007738:	b570      	push	{r4, r5, r6, lr}
1000773a:	2400      	movs	r4, #0
1000773c:	e003      	b.n	10007746 <tu_edpt_bind_driver+0xe>
1000773e:	780d      	ldrb	r5, [r1, #0]
10007740:	192c      	adds	r4, r5, r4
10007742:	b2a4      	uxth	r4, r4
10007744:	1949      	adds	r1, r1, r5
10007746:	4294      	cmp	r4, r2
10007748:	d20a      	bcs.n	10007760 <tu_edpt_bind_driver+0x28>
1000774a:	784d      	ldrb	r5, [r1, #1]
1000774c:	2d05      	cmp	r5, #5
1000774e:	d1f6      	bne.n	1000773e <tu_edpt_bind_driver+0x6>
10007750:	788e      	ldrb	r6, [r1, #2]
10007752:	357a      	adds	r5, #122	; 0x7a
10007754:	4035      	ands	r5, r6
10007756:	006d      	lsls	r5, r5, #1
10007758:	1945      	adds	r5, r0, r5
1000775a:	09f6      	lsrs	r6, r6, #7
1000775c:	55ab      	strb	r3, [r5, r6]
1000775e:	e7ee      	b.n	1000773e <tu_edpt_bind_driver+0x6>
10007760:	bd70      	pop	{r4, r5, r6, pc}

10007762 <tu_desc_get_interface_total_len>:
10007762:	b530      	push	{r4, r5, lr}
10007764:	0005      	movs	r5, r0
10007766:	0003      	movs	r3, r0
10007768:	2000      	movs	r0, #0
1000776a:	e00e      	b.n	1000778a <tu_desc_get_interface_total_len+0x28>
1000776c:	7819      	ldrb	r1, [r3, #0]
1000776e:	1808      	adds	r0, r1, r0
10007770:	b280      	uxth	r0, r0
10007772:	185b      	adds	r3, r3, r1
10007774:	4290      	cmp	r0, r2
10007776:	d207      	bcs.n	10007788 <tu_desc_get_interface_total_len+0x26>
10007778:	7859      	ldrb	r1, [r3, #1]
1000777a:	290b      	cmp	r1, #11
1000777c:	d00f      	beq.n	1000779e <tu_desc_get_interface_total_len+0x3c>
1000777e:	2904      	cmp	r1, #4
10007780:	d1f4      	bne.n	1000776c <tu_desc_get_interface_total_len+0xa>
10007782:	78d9      	ldrb	r1, [r3, #3]
10007784:	2900      	cmp	r1, #0
10007786:	d1f1      	bne.n	1000776c <tu_desc_get_interface_total_len+0xa>
10007788:	0021      	movs	r1, r4
1000778a:	1e4c      	subs	r4, r1, #1
1000778c:	b2e4      	uxtb	r4, r4
1000778e:	2900      	cmp	r1, #0
10007790:	d005      	beq.n	1000779e <tu_desc_get_interface_total_len+0x3c>
10007792:	7829      	ldrb	r1, [r5, #0]
10007794:	1808      	adds	r0, r1, r0
10007796:	b280      	uxth	r0, r0
10007798:	7819      	ldrb	r1, [r3, #0]
1000779a:	185b      	adds	r3, r3, r1
1000779c:	e7ea      	b.n	10007774 <tu_desc_get_interface_total_len+0x12>
1000779e:	bd30      	pop	{r4, r5, pc}

100077a0 <advance_pointer>:
100077a0:	188a      	adds	r2, r1, r2
100077a2:	b292      	uxth	r2, r2
100077a4:	428a      	cmp	r2, r1
100077a6:	d302      	bcc.n	100077ae <advance_pointer+0xe>
100077a8:	8983      	ldrh	r3, [r0, #12]
100077aa:	429a      	cmp	r2, r3
100077ac:	d902      	bls.n	100077b4 <advance_pointer+0x14>
100077ae:	8940      	ldrh	r0, [r0, #10]
100077b0:	1812      	adds	r2, r2, r0
100077b2:	b292      	uxth	r2, r2
100077b4:	0010      	movs	r0, r2
100077b6:	4770      	bx	lr

100077b8 <backward_pointer>:
100077b8:	b510      	push	{r4, lr}
100077ba:	0004      	movs	r4, r0
100077bc:	428a      	cmp	r2, r1
100077be:	d804      	bhi.n	100077ca <backward_pointer+0x12>
100077c0:	1a88      	subs	r0, r1, r2
100077c2:	b280      	uxth	r0, r0
100077c4:	89a3      	ldrh	r3, [r4, #12]
100077c6:	4298      	cmp	r0, r3
100077c8:	d904      	bls.n	100077d4 <backward_pointer+0x1c>
100077ca:	1a89      	subs	r1, r1, r2
100077cc:	b289      	uxth	r1, r1
100077ce:	8960      	ldrh	r0, [r4, #10]
100077d0:	1a08      	subs	r0, r1, r0
100077d2:	b280      	uxth	r0, r0
100077d4:	bd10      	pop	{r4, pc}

100077d6 <get_relative_pointer>:
100077d6:	8883      	ldrh	r3, [r0, #4]
100077d8:	428b      	cmp	r3, r1
100077da:	d802      	bhi.n	100077e2 <get_relative_pointer+0xc>
100077dc:	1ac9      	subs	r1, r1, r3
100077de:	b289      	uxth	r1, r1
100077e0:	e7fa      	b.n	100077d8 <get_relative_pointer+0x2>
100077e2:	0008      	movs	r0, r1
100077e4:	4770      	bx	lr

100077e6 <_tu_fifo_peek>:
100077e6:	b5f8      	push	{r3, r4, r5, r6, r7, lr}
100077e8:	0005      	movs	r5, r0
100077ea:	000c      	movs	r4, r1
100077ec:	0011      	movs	r1, r2
100077ee:	001e      	movs	r6, r3
100077f0:	1ad3      	subs	r3, r2, r3
100077f2:	b29b      	uxth	r3, r3
100077f4:	42b2      	cmp	r2, r6
100077f6:	d202      	bcs.n	100077fe <_tu_fifo_peek+0x18>
100077f8:	8942      	ldrh	r2, [r0, #10]
100077fa:	1a9b      	subs	r3, r3, r2
100077fc:	b29b      	uxth	r3, r3
100077fe:	88af      	ldrh	r7, [r5, #4]
10007800:	429f      	cmp	r7, r3
10007802:	d205      	bcs.n	10007810 <_tu_fifo_peek+0x2a>
10007804:	003a      	movs	r2, r7
10007806:	0028      	movs	r0, r5
10007808:	f7ff ffd6 	bl	100077b8 <backward_pointer>
1000780c:	8228      	strh	r0, [r5, #16]
1000780e:	003b      	movs	r3, r7
10007810:	2b00      	cmp	r3, #0
10007812:	d101      	bne.n	10007818 <_tu_fifo_peek+0x32>
10007814:	2000      	movs	r0, #0
10007816:	bdf8      	pop	{r3, r4, r5, r6, r7, pc}
10007818:	0031      	movs	r1, r6
1000781a:	0028      	movs	r0, r5
1000781c:	f7ff ffdb 	bl	100077d6 <get_relative_pointer>
10007820:	6829      	ldr	r1, [r5, #0]
10007822:	88ea      	ldrh	r2, [r5, #6]
10007824:	4350      	muls	r0, r2
10007826:	1809      	adds	r1, r1, r0
10007828:	0020      	movs	r0, r4
1000782a:	f7fc fe6f 	bl	1000450c <__wrap___aeabi_memcpy>
1000782e:	2001      	movs	r0, #1
10007830:	e7f1      	b.n	10007816 <_tu_fifo_peek+0x30>

10007832 <tu_fifo_read>:
10007832:	b570      	push	{r4, r5, r6, lr}
10007834:	0004      	movs	r4, r0
10007836:	000d      	movs	r5, r1
10007838:	6980      	ldr	r0, [r0, #24]
1000783a:	2800      	cmp	r0, #0
1000783c:	d003      	beq.n	10007846 <tu_fifo_read+0x14>
1000783e:	2101      	movs	r1, #1
10007840:	4249      	negs	r1, r1
10007842:	f001 f841 	bl	100088c8 <__mutex_enter_timeout_ms_veneer>
10007846:	89e2      	ldrh	r2, [r4, #14]
10007848:	b292      	uxth	r2, r2
1000784a:	8a23      	ldrh	r3, [r4, #16]
1000784c:	b29b      	uxth	r3, r3
1000784e:	0029      	movs	r1, r5
10007850:	0020      	movs	r0, r4
10007852:	f7ff ffc8 	bl	100077e6 <_tu_fifo_peek>
10007856:	0005      	movs	r5, r0
10007858:	8a21      	ldrh	r1, [r4, #16]
1000785a:	b289      	uxth	r1, r1
1000785c:	b282      	uxth	r2, r0
1000785e:	0020      	movs	r0, r4
10007860:	f7ff ff9e 	bl	100077a0 <advance_pointer>
10007864:	8220      	strh	r0, [r4, #16]
10007866:	69a0      	ldr	r0, [r4, #24]
10007868:	2800      	cmp	r0, #0
1000786a:	d001      	beq.n	10007870 <tu_fifo_read+0x3e>
1000786c:	f001 f80c 	bl	10008888 <__mutex_exit_veneer>
10007870:	0028      	movs	r0, r5
10007872:	bd70      	pop	{r4, r5, r6, pc}

10007874 <tu_fifo_write>:
10007874:	b570      	push	{r4, r5, r6, lr}
10007876:	0004      	movs	r4, r0
10007878:	000e      	movs	r6, r1
1000787a:	6940      	ldr	r0, [r0, #20]
1000787c:	2800      	cmp	r0, #0
1000787e:	d003      	beq.n	10007888 <tu_fifo_write+0x14>
10007880:	2101      	movs	r1, #1
10007882:	4249      	negs	r1, r1
10007884:	f001 f820 	bl	100088c8 <__mutex_enter_timeout_ms_veneer>
10007888:	89e5      	ldrh	r5, [r4, #14]
1000788a:	b2ad      	uxth	r5, r5
1000788c:	8a22      	ldrh	r2, [r4, #16]
1000788e:	b292      	uxth	r2, r2
10007890:	1aab      	subs	r3, r5, r2
10007892:	b29b      	uxth	r3, r3
10007894:	42aa      	cmp	r2, r5
10007896:	d902      	bls.n	1000789e <tu_fifo_write+0x2a>
10007898:	8962      	ldrh	r2, [r4, #10]
1000789a:	1a9b      	subs	r3, r3, r2
1000789c:	b29b      	uxth	r3, r3
1000789e:	88a2      	ldrh	r2, [r4, #4]
100078a0:	429a      	cmp	r2, r3
100078a2:	d102      	bne.n	100078aa <tu_fifo_write+0x36>
100078a4:	7a20      	ldrb	r0, [r4, #8]
100078a6:	2800      	cmp	r0, #0
100078a8:	d017      	beq.n	100078da <tu_fifo_write+0x66>
100078aa:	0029      	movs	r1, r5
100078ac:	0020      	movs	r0, r4
100078ae:	f7ff ff92 	bl	100077d6 <get_relative_pointer>
100078b2:	88e2      	ldrh	r2, [r4, #6]
100078b4:	4350      	muls	r0, r2
100078b6:	6823      	ldr	r3, [r4, #0]
100078b8:	469c      	mov	ip, r3
100078ba:	4460      	add	r0, ip
100078bc:	0031      	movs	r1, r6
100078be:	f7fc fe25 	bl	1000450c <__wrap___aeabi_memcpy>
100078c2:	2201      	movs	r2, #1
100078c4:	0029      	movs	r1, r5
100078c6:	0020      	movs	r0, r4
100078c8:	f7ff ff6a 	bl	100077a0 <advance_pointer>
100078cc:	81e0      	strh	r0, [r4, #14]
100078ce:	6960      	ldr	r0, [r4, #20]
100078d0:	2800      	cmp	r0, #0
100078d2:	d003      	beq.n	100078dc <tu_fifo_write+0x68>
100078d4:	f000 ffd8 	bl	10008888 <__mutex_exit_veneer>
100078d8:	2001      	movs	r0, #1
100078da:	bd70      	pop	{r4, r5, r6, pc}
100078dc:	2001      	movs	r0, #1
100078de:	e7fc      	b.n	100078da <tu_fifo_write+0x66>

100078e0 <tu_fifo_clear>:
100078e0:	b510      	push	{r4, lr}
100078e2:	0004      	movs	r4, r0
100078e4:	6940      	ldr	r0, [r0, #20]
100078e6:	2800      	cmp	r0, #0
100078e8:	d003      	beq.n	100078f2 <tu_fifo_clear+0x12>
100078ea:	2101      	movs	r1, #1
100078ec:	4249      	negs	r1, r1
100078ee:	f000 ffeb 	bl	100088c8 <__mutex_enter_timeout_ms_veneer>
100078f2:	69a0      	ldr	r0, [r4, #24]
100078f4:	2800      	cmp	r0, #0
100078f6:	d003      	beq.n	10007900 <tu_fifo_clear+0x20>
100078f8:	2101      	movs	r1, #1
100078fa:	4249      	negs	r1, r1
100078fc:	f000 ffe4 	bl	100088c8 <__mutex_enter_timeout_ms_veneer>
10007900:	2300      	movs	r3, #0
10007902:	81e3      	strh	r3, [r4, #14]
10007904:	8223      	strh	r3, [r4, #16]
10007906:	88a3      	ldrh	r3, [r4, #4]
10007908:	005b      	lsls	r3, r3, #1
1000790a:	3b01      	subs	r3, #1
1000790c:	b29b      	uxth	r3, r3
1000790e:	81a3      	strh	r3, [r4, #12]
10007910:	43db      	mvns	r3, r3
10007912:	8163      	strh	r3, [r4, #10]
10007914:	6960      	ldr	r0, [r4, #20]
10007916:	2800      	cmp	r0, #0
10007918:	d001      	beq.n	1000791e <tu_fifo_clear+0x3e>
1000791a:	f000 ffb5 	bl	10008888 <__mutex_exit_veneer>
1000791e:	69a0      	ldr	r0, [r4, #24]
10007920:	2800      	cmp	r0, #0
10007922:	d001      	beq.n	10007928 <tu_fifo_clear+0x48>
10007924:	f000 ffb0 	bl	10008888 <__mutex_exit_veneer>
10007928:	2001      	movs	r0, #1
1000792a:	bd10      	pop	{r4, pc}

1000792c <board_init>:
1000792c:	b510      	push	{r4, lr}
1000792e:	2019      	movs	r0, #25
10007930:	f7f8 ff26 	bl	10000780 <gpio_init>
10007934:	23d0      	movs	r3, #208	; 0xd0
10007936:	061b      	lsls	r3, r3, #24
10007938:	2280      	movs	r2, #128	; 0x80
1000793a:	0492      	lsls	r2, r2, #18
1000793c:	625a      	str	r2, [r3, #36]	; 0x24
1000793e:	4805      	ldr	r0, [pc, #20]	; (10007954 <board_init+0x28>)
10007940:	4b05      	ldr	r3, [pc, #20]	; (10007958 <board_init+0x2c>)
10007942:	6018      	str	r0, [r3, #0]
10007944:	21e1      	movs	r1, #225	; 0xe1
10007946:	2301      	movs	r3, #1
10007948:	2200      	movs	r2, #0
1000794a:	0249      	lsls	r1, r1, #9
1000794c:	f7fd f800 	bl	10004950 <stdio_uart_init_full>
10007950:	bd10      	pop	{r4, pc}
10007952:	46c0      	nop			; (mov r8, r8)
10007954:	40034000 	.word	0x40034000
10007958:	20001cb0 	.word	0x20001cb0

1000795c <board_led_write>:
1000795c:	2800      	cmp	r0, #0
1000795e:	d005      	beq.n	1000796c <board_led_write+0x10>
10007960:	23d0      	movs	r3, #208	; 0xd0
10007962:	061b      	lsls	r3, r3, #24
10007964:	2280      	movs	r2, #128	; 0x80
10007966:	0492      	lsls	r2, r2, #18
10007968:	615a      	str	r2, [r3, #20]
1000796a:	4770      	bx	lr
1000796c:	23d0      	movs	r3, #208	; 0xd0
1000796e:	061b      	lsls	r3, r3, #24
10007970:	2280      	movs	r2, #128	; 0x80
10007972:	0492      	lsls	r2, r2, #18
10007974:	619a      	str	r2, [r3, #24]
10007976:	e7f8      	b.n	1000796a <board_led_write+0xe>

10007978 <__sflush_r>:
10007978:	b5f0      	push	{r4, r5, r6, r7, lr}
1000797a:	46c6      	mov	lr, r8
1000797c:	b500      	push	{lr}
1000797e:	230c      	movs	r3, #12
10007980:	5eca      	ldrsh	r2, [r1, r3]
10007982:	4680      	mov	r8, r0
10007984:	b293      	uxth	r3, r2
10007986:	000c      	movs	r4, r1
10007988:	0719      	lsls	r1, r3, #28
1000798a:	d44d      	bmi.n	10007a28 <__sflush_r+0xb0>
1000798c:	2380      	movs	r3, #128	; 0x80
1000798e:	011b      	lsls	r3, r3, #4
10007990:	4313      	orrs	r3, r2
10007992:	6862      	ldr	r2, [r4, #4]
10007994:	81a3      	strh	r3, [r4, #12]
10007996:	2a00      	cmp	r2, #0
10007998:	dd67      	ble.n	10007a6a <__sflush_r+0xf2>
1000799a:	6aa5      	ldr	r5, [r4, #40]	; 0x28
1000799c:	2d00      	cmp	r5, #0
1000799e:	d03f      	beq.n	10007a20 <__sflush_r+0xa8>
100079a0:	4642      	mov	r2, r8
100079a2:	4641      	mov	r1, r8
100079a4:	6816      	ldr	r6, [r2, #0]
100079a6:	2200      	movs	r2, #0
100079a8:	b29b      	uxth	r3, r3
100079aa:	600a      	str	r2, [r1, #0]
100079ac:	69e1      	ldr	r1, [r4, #28]
100079ae:	04da      	lsls	r2, r3, #19
100079b0:	d460      	bmi.n	10007a74 <__sflush_r+0xfc>
100079b2:	2301      	movs	r3, #1
100079b4:	2200      	movs	r2, #0
100079b6:	4640      	mov	r0, r8
100079b8:	47a8      	blx	r5
100079ba:	1c43      	adds	r3, r0, #1
100079bc:	d069      	beq.n	10007a92 <__sflush_r+0x11a>
100079be:	89a3      	ldrh	r3, [r4, #12]
100079c0:	6aa5      	ldr	r5, [r4, #40]	; 0x28
100079c2:	69e1      	ldr	r1, [r4, #28]
100079c4:	075b      	lsls	r3, r3, #29
100079c6:	d506      	bpl.n	100079d6 <__sflush_r+0x5e>
100079c8:	6863      	ldr	r3, [r4, #4]
100079ca:	1ac0      	subs	r0, r0, r3
100079cc:	6b23      	ldr	r3, [r4, #48]	; 0x30
100079ce:	2b00      	cmp	r3, #0
100079d0:	d001      	beq.n	100079d6 <__sflush_r+0x5e>
100079d2:	6be3      	ldr	r3, [r4, #60]	; 0x3c
100079d4:	1ac0      	subs	r0, r0, r3
100079d6:	2300      	movs	r3, #0
100079d8:	0002      	movs	r2, r0
100079da:	4640      	mov	r0, r8
100079dc:	47a8      	blx	r5
100079de:	1c43      	adds	r3, r0, #1
100079e0:	d14a      	bne.n	10007a78 <__sflush_r+0x100>
100079e2:	4643      	mov	r3, r8
100079e4:	681a      	ldr	r2, [r3, #0]
100079e6:	210c      	movs	r1, #12
100079e8:	5e63      	ldrsh	r3, [r4, r1]
100079ea:	2a00      	cmp	r2, #0
100079ec:	d05f      	beq.n	10007aae <__sflush_r+0x136>
100079ee:	2a1d      	cmp	r2, #29
100079f0:	d001      	beq.n	100079f6 <__sflush_r+0x7e>
100079f2:	2a16      	cmp	r2, #22
100079f4:	d169      	bne.n	10007aca <__sflush_r+0x152>
100079f6:	4a37      	ldr	r2, [pc, #220]	; (10007ad4 <__sflush_r+0x15c>)
100079f8:	4013      	ands	r3, r2
100079fa:	81a3      	strh	r3, [r4, #12]
100079fc:	2300      	movs	r3, #0
100079fe:	6063      	str	r3, [r4, #4]
10007a00:	6923      	ldr	r3, [r4, #16]
10007a02:	6023      	str	r3, [r4, #0]
10007a04:	4643      	mov	r3, r8
10007a06:	6b21      	ldr	r1, [r4, #48]	; 0x30
10007a08:	601e      	str	r6, [r3, #0]
10007a0a:	2900      	cmp	r1, #0
10007a0c:	d008      	beq.n	10007a20 <__sflush_r+0xa8>
10007a0e:	0023      	movs	r3, r4
10007a10:	3340      	adds	r3, #64	; 0x40
10007a12:	4299      	cmp	r1, r3
10007a14:	d002      	beq.n	10007a1c <__sflush_r+0xa4>
10007a16:	4640      	mov	r0, r8
10007a18:	f000 f9e8 	bl	10007dec <_free_r>
10007a1c:	2300      	movs	r3, #0
10007a1e:	6323      	str	r3, [r4, #48]	; 0x30
10007a20:	2000      	movs	r0, #0
10007a22:	bc04      	pop	{r2}
10007a24:	4690      	mov	r8, r2
10007a26:	bdf0      	pop	{r4, r5, r6, r7, pc}
10007a28:	6926      	ldr	r6, [r4, #16]
10007a2a:	2e00      	cmp	r6, #0
10007a2c:	d0f8      	beq.n	10007a20 <__sflush_r+0xa8>
10007a2e:	6822      	ldr	r2, [r4, #0]
10007a30:	6026      	str	r6, [r4, #0]
10007a32:	1b95      	subs	r5, r2, r6
10007a34:	2200      	movs	r2, #0
10007a36:	079b      	lsls	r3, r3, #30
10007a38:	d100      	bne.n	10007a3c <__sflush_r+0xc4>
10007a3a:	6962      	ldr	r2, [r4, #20]
10007a3c:	60a2      	str	r2, [r4, #8]
10007a3e:	2d00      	cmp	r5, #0
10007a40:	dc04      	bgt.n	10007a4c <__sflush_r+0xd4>
10007a42:	e7ed      	b.n	10007a20 <__sflush_r+0xa8>
10007a44:	1836      	adds	r6, r6, r0
10007a46:	1a2d      	subs	r5, r5, r0
10007a48:	2d00      	cmp	r5, #0
10007a4a:	dde9      	ble.n	10007a20 <__sflush_r+0xa8>
10007a4c:	002b      	movs	r3, r5
10007a4e:	0032      	movs	r2, r6
10007a50:	69e1      	ldr	r1, [r4, #28]
10007a52:	4640      	mov	r0, r8
10007a54:	6a67      	ldr	r7, [r4, #36]	; 0x24
10007a56:	47b8      	blx	r7
10007a58:	2800      	cmp	r0, #0
10007a5a:	dcf3      	bgt.n	10007a44 <__sflush_r+0xcc>
10007a5c:	2240      	movs	r2, #64	; 0x40
10007a5e:	2001      	movs	r0, #1
10007a60:	89a3      	ldrh	r3, [r4, #12]
10007a62:	4240      	negs	r0, r0
10007a64:	4313      	orrs	r3, r2
10007a66:	81a3      	strh	r3, [r4, #12]
10007a68:	e7db      	b.n	10007a22 <__sflush_r+0xaa>
10007a6a:	6be2      	ldr	r2, [r4, #60]	; 0x3c
10007a6c:	2a00      	cmp	r2, #0
10007a6e:	dd00      	ble.n	10007a72 <__sflush_r+0xfa>
10007a70:	e793      	b.n	1000799a <__sflush_r+0x22>
10007a72:	e7d5      	b.n	10007a20 <__sflush_r+0xa8>
10007a74:	6d20      	ldr	r0, [r4, #80]	; 0x50
10007a76:	e7a5      	b.n	100079c4 <__sflush_r+0x4c>
10007a78:	89a3      	ldrh	r3, [r4, #12]
10007a7a:	4a16      	ldr	r2, [pc, #88]	; (10007ad4 <__sflush_r+0x15c>)
10007a7c:	4013      	ands	r3, r2
10007a7e:	2200      	movs	r2, #0
10007a80:	6062      	str	r2, [r4, #4]
10007a82:	6922      	ldr	r2, [r4, #16]
10007a84:	b21b      	sxth	r3, r3
10007a86:	81a3      	strh	r3, [r4, #12]
10007a88:	6022      	str	r2, [r4, #0]
10007a8a:	04db      	lsls	r3, r3, #19
10007a8c:	d5ba      	bpl.n	10007a04 <__sflush_r+0x8c>
10007a8e:	6520      	str	r0, [r4, #80]	; 0x50
10007a90:	e7b8      	b.n	10007a04 <__sflush_r+0x8c>
10007a92:	4643      	mov	r3, r8
10007a94:	681b      	ldr	r3, [r3, #0]
10007a96:	2b00      	cmp	r3, #0
10007a98:	d100      	bne.n	10007a9c <__sflush_r+0x124>
10007a9a:	e790      	b.n	100079be <__sflush_r+0x46>
10007a9c:	2b1d      	cmp	r3, #29
10007a9e:	d010      	beq.n	10007ac2 <__sflush_r+0x14a>
10007aa0:	2b16      	cmp	r3, #22
10007aa2:	d00e      	beq.n	10007ac2 <__sflush_r+0x14a>
10007aa4:	2240      	movs	r2, #64	; 0x40
10007aa6:	89a3      	ldrh	r3, [r4, #12]
10007aa8:	4313      	orrs	r3, r2
10007aaa:	81a3      	strh	r3, [r4, #12]
10007aac:	e7b9      	b.n	10007a22 <__sflush_r+0xaa>
10007aae:	4909      	ldr	r1, [pc, #36]	; (10007ad4 <__sflush_r+0x15c>)
10007ab0:	6062      	str	r2, [r4, #4]
10007ab2:	6922      	ldr	r2, [r4, #16]
10007ab4:	400b      	ands	r3, r1
10007ab6:	81a3      	strh	r3, [r4, #12]
10007ab8:	6022      	str	r2, [r4, #0]
10007aba:	04db      	lsls	r3, r3, #19
10007abc:	d5a2      	bpl.n	10007a04 <__sflush_r+0x8c>
10007abe:	6520      	str	r0, [r4, #80]	; 0x50
10007ac0:	e7a0      	b.n	10007a04 <__sflush_r+0x8c>
10007ac2:	4643      	mov	r3, r8
10007ac4:	2000      	movs	r0, #0
10007ac6:	601e      	str	r6, [r3, #0]
10007ac8:	e7ab      	b.n	10007a22 <__sflush_r+0xaa>
10007aca:	2240      	movs	r2, #64	; 0x40
10007acc:	4313      	orrs	r3, r2
10007ace:	81a3      	strh	r3, [r4, #12]
10007ad0:	e7a7      	b.n	10007a22 <__sflush_r+0xaa>
10007ad2:	46c0      	nop			; (mov r8, r8)
10007ad4:	fffff7ff 	.word	0xfffff7ff

10007ad8 <_fflush_r>:
10007ad8:	b570      	push	{r4, r5, r6, lr}
10007ada:	0004      	movs	r4, r0
10007adc:	000d      	movs	r5, r1
10007ade:	2800      	cmp	r0, #0
10007ae0:	d002      	beq.n	10007ae8 <_fflush_r+0x10>
10007ae2:	6b83      	ldr	r3, [r0, #56]	; 0x38
10007ae4:	2b00      	cmp	r3, #0
10007ae6:	d009      	beq.n	10007afc <_fflush_r+0x24>
10007ae8:	220c      	movs	r2, #12
10007aea:	5eab      	ldrsh	r3, [r5, r2]
10007aec:	2000      	movs	r0, #0
10007aee:	2b00      	cmp	r3, #0
10007af0:	d003      	beq.n	10007afa <_fflush_r+0x22>
10007af2:	0029      	movs	r1, r5
10007af4:	0020      	movs	r0, r4
10007af6:	f7ff ff3f 	bl	10007978 <__sflush_r>
10007afa:	bd70      	pop	{r4, r5, r6, pc}
10007afc:	f000 f8fe 	bl	10007cfc <__sinit>
10007b00:	e7f2      	b.n	10007ae8 <_fflush_r+0x10>
10007b02:	46c0      	nop			; (mov r8, r8)

10007b04 <fflush>:
10007b04:	b510      	push	{r4, lr}
10007b06:	1e01      	subs	r1, r0, #0
10007b08:	d004      	beq.n	10007b14 <fflush+0x10>
10007b0a:	4b05      	ldr	r3, [pc, #20]	; (10007b20 <fflush+0x1c>)
10007b0c:	6818      	ldr	r0, [r3, #0]
10007b0e:	f7ff ffe3 	bl	10007ad8 <_fflush_r>
10007b12:	bd10      	pop	{r4, pc}
10007b14:	4b03      	ldr	r3, [pc, #12]	; (10007b24 <fflush+0x20>)
10007b16:	4904      	ldr	r1, [pc, #16]	; (10007b28 <fflush+0x24>)
10007b18:	6818      	ldr	r0, [r3, #0]
10007b1a:	f000 fa77 	bl	1000800c <_fwalk_reent>
10007b1e:	e7f8      	b.n	10007b12 <fflush+0xe>
10007b20:	200003a0 	.word	0x200003a0
10007b24:	1000a4e4 	.word	0x1000a4e4
10007b28:	10007ad9 	.word	0x10007ad9

10007b2c <__fp_lock>:
10007b2c:	2000      	movs	r0, #0
10007b2e:	4770      	bx	lr

10007b30 <_cleanup_r>:
10007b30:	b510      	push	{r4, lr}
10007b32:	4902      	ldr	r1, [pc, #8]	; (10007b3c <_cleanup_r+0xc>)
10007b34:	f000 fa6a 	bl	1000800c <_fwalk_reent>
10007b38:	bd10      	pop	{r4, pc}
10007b3a:	46c0      	nop			; (mov r8, r8)
10007b3c:	10008769 	.word	0x10008769

10007b40 <__sinit.part.0>:
10007b40:	b5f0      	push	{r4, r5, r6, r7, lr}
10007b42:	46d6      	mov	lr, sl
10007b44:	464f      	mov	r7, r9
10007b46:	4646      	mov	r6, r8
10007b48:	4b30      	ldr	r3, [pc, #192]	; (10007c0c <__sinit.part.0+0xcc>)
10007b4a:	b5c0      	push	{r6, r7, lr}
10007b4c:	63c3      	str	r3, [r0, #60]	; 0x3c
10007b4e:	23b8      	movs	r3, #184	; 0xb8
10007b50:	2400      	movs	r4, #0
10007b52:	2203      	movs	r2, #3
10007b54:	009b      	lsls	r3, r3, #2
10007b56:	50c4      	str	r4, [r0, r3]
10007b58:	3304      	adds	r3, #4
10007b5a:	6845      	ldr	r5, [r0, #4]
10007b5c:	50c2      	str	r2, [r0, r3]
10007b5e:	3308      	adds	r3, #8
10007b60:	18c2      	adds	r2, r0, r3
10007b62:	3b04      	subs	r3, #4
10007b64:	50c2      	str	r2, [r0, r3]
10007b66:	0006      	movs	r6, r0
10007b68:	2304      	movs	r3, #4
10007b6a:	0028      	movs	r0, r5
10007b6c:	666c      	str	r4, [r5, #100]	; 0x64
10007b6e:	602c      	str	r4, [r5, #0]
10007b70:	606c      	str	r4, [r5, #4]
10007b72:	60ac      	str	r4, [r5, #8]
10007b74:	60eb      	str	r3, [r5, #12]
10007b76:	612c      	str	r4, [r5, #16]
10007b78:	616c      	str	r4, [r5, #20]
10007b7a:	61ac      	str	r4, [r5, #24]
10007b7c:	2208      	movs	r2, #8
10007b7e:	2100      	movs	r1, #0
10007b80:	305c      	adds	r0, #92	; 0x5c
10007b82:	f7fc fcbd 	bl	10004500 <__wrap_memset>
10007b86:	4b22      	ldr	r3, [pc, #136]	; (10007c10 <__sinit.part.0+0xd0>)
10007b88:	4f22      	ldr	r7, [pc, #136]	; (10007c14 <__sinit.part.0+0xd4>)
10007b8a:	469a      	mov	sl, r3
10007b8c:	622b      	str	r3, [r5, #32]
10007b8e:	4b22      	ldr	r3, [pc, #136]	; (10007c18 <__sinit.part.0+0xd8>)
10007b90:	62ef      	str	r7, [r5, #44]	; 0x2c
10007b92:	4699      	mov	r9, r3
10007b94:	626b      	str	r3, [r5, #36]	; 0x24
10007b96:	4b21      	ldr	r3, [pc, #132]	; (10007c1c <__sinit.part.0+0xdc>)
10007b98:	61ed      	str	r5, [r5, #28]
10007b9a:	62ab      	str	r3, [r5, #40]	; 0x28
10007b9c:	68b5      	ldr	r5, [r6, #8]
10007b9e:	4698      	mov	r8, r3
10007ba0:	0028      	movs	r0, r5
10007ba2:	4b1f      	ldr	r3, [pc, #124]	; (10007c20 <__sinit.part.0+0xe0>)
10007ba4:	666c      	str	r4, [r5, #100]	; 0x64
10007ba6:	602c      	str	r4, [r5, #0]
10007ba8:	606c      	str	r4, [r5, #4]
10007baa:	60ac      	str	r4, [r5, #8]
10007bac:	60eb      	str	r3, [r5, #12]
10007bae:	612c      	str	r4, [r5, #16]
10007bb0:	616c      	str	r4, [r5, #20]
10007bb2:	61ac      	str	r4, [r5, #24]
10007bb4:	2208      	movs	r2, #8
10007bb6:	2100      	movs	r1, #0
10007bb8:	305c      	adds	r0, #92	; 0x5c
10007bba:	f7fc fca1 	bl	10004500 <__wrap_memset>
10007bbe:	4653      	mov	r3, sl
10007bc0:	622b      	str	r3, [r5, #32]
10007bc2:	464b      	mov	r3, r9
10007bc4:	626b      	str	r3, [r5, #36]	; 0x24
10007bc6:	4643      	mov	r3, r8
10007bc8:	62ef      	str	r7, [r5, #44]	; 0x2c
10007bca:	62ab      	str	r3, [r5, #40]	; 0x28
10007bcc:	61ed      	str	r5, [r5, #28]
10007bce:	68f5      	ldr	r5, [r6, #12]
10007bd0:	4b14      	ldr	r3, [pc, #80]	; (10007c24 <__sinit.part.0+0xe4>)
10007bd2:	0028      	movs	r0, r5
10007bd4:	60eb      	str	r3, [r5, #12]
10007bd6:	666c      	str	r4, [r5, #100]	; 0x64
10007bd8:	602c      	str	r4, [r5, #0]
10007bda:	606c      	str	r4, [r5, #4]
10007bdc:	60ac      	str	r4, [r5, #8]
10007bde:	612c      	str	r4, [r5, #16]
10007be0:	616c      	str	r4, [r5, #20]
10007be2:	61ac      	str	r4, [r5, #24]
10007be4:	2208      	movs	r2, #8
10007be6:	2100      	movs	r1, #0
10007be8:	305c      	adds	r0, #92	; 0x5c
10007bea:	f7fc fc89 	bl	10004500 <__wrap_memset>
10007bee:	4653      	mov	r3, sl
10007bf0:	622b      	str	r3, [r5, #32]
10007bf2:	464b      	mov	r3, r9
10007bf4:	626b      	str	r3, [r5, #36]	; 0x24
10007bf6:	4643      	mov	r3, r8
10007bf8:	62ab      	str	r3, [r5, #40]	; 0x28
10007bfa:	2301      	movs	r3, #1
10007bfc:	62ef      	str	r7, [r5, #44]	; 0x2c
10007bfe:	61ed      	str	r5, [r5, #28]
10007c00:	63b3      	str	r3, [r6, #56]	; 0x38
10007c02:	bc1c      	pop	{r2, r3, r4}
10007c04:	4690      	mov	r8, r2
10007c06:	4699      	mov	r9, r3
10007c08:	46a2      	mov	sl, r4
10007c0a:	bdf0      	pop	{r4, r5, r6, r7, pc}
10007c0c:	10007b31 	.word	0x10007b31
10007c10:	10008611 	.word	0x10008611
10007c14:	100086a9 	.word	0x100086a9
10007c18:	1000863d 	.word	0x1000863d
10007c1c:	1000867d 	.word	0x1000867d
10007c20:	00010009 	.word	0x00010009
10007c24:	00020012 	.word	0x00020012

10007c28 <__fp_unlock>:
10007c28:	2000      	movs	r0, #0
10007c2a:	4770      	bx	lr

10007c2c <__sfmoreglue>:
10007c2c:	b570      	push	{r4, r5, r6, lr}
10007c2e:	2468      	movs	r4, #104	; 0x68
10007c30:	1e4a      	subs	r2, r1, #1
10007c32:	4354      	muls	r4, r2
10007c34:	000e      	movs	r6, r1
10007c36:	0021      	movs	r1, r4
10007c38:	3174      	adds	r1, #116	; 0x74
10007c3a:	f000 fa0d 	bl	10008058 <_malloc_r>
10007c3e:	1e05      	subs	r5, r0, #0
10007c40:	d009      	beq.n	10007c56 <__sfmoreglue+0x2a>
10007c42:	2300      	movs	r3, #0
10007c44:	0022      	movs	r2, r4
10007c46:	6003      	str	r3, [r0, #0]
10007c48:	6046      	str	r6, [r0, #4]
10007c4a:	300c      	adds	r0, #12
10007c4c:	60a8      	str	r0, [r5, #8]
10007c4e:	3268      	adds	r2, #104	; 0x68
10007c50:	2100      	movs	r1, #0
10007c52:	f7fc fc55 	bl	10004500 <__wrap_memset>
10007c56:	0028      	movs	r0, r5
10007c58:	bd70      	pop	{r4, r5, r6, pc}
10007c5a:	46c0      	nop			; (mov r8, r8)

10007c5c <__sfp>:
10007c5c:	4b1f      	ldr	r3, [pc, #124]	; (10007cdc <__sfp+0x80>)
10007c5e:	b570      	push	{r4, r5, r6, lr}
10007c60:	681d      	ldr	r5, [r3, #0]
10007c62:	0006      	movs	r6, r0
10007c64:	6bab      	ldr	r3, [r5, #56]	; 0x38
10007c66:	2b00      	cmp	r3, #0
10007c68:	d02a      	beq.n	10007cc0 <__sfp+0x64>
10007c6a:	23b8      	movs	r3, #184	; 0xb8
10007c6c:	009b      	lsls	r3, r3, #2
10007c6e:	469c      	mov	ip, r3
10007c70:	4465      	add	r5, ip
10007c72:	686b      	ldr	r3, [r5, #4]
10007c74:	68ac      	ldr	r4, [r5, #8]
10007c76:	3b01      	subs	r3, #1
10007c78:	d503      	bpl.n	10007c82 <__sfp+0x26>
10007c7a:	e01c      	b.n	10007cb6 <__sfp+0x5a>
10007c7c:	3468      	adds	r4, #104	; 0x68
10007c7e:	3b01      	subs	r3, #1
10007c80:	d319      	bcc.n	10007cb6 <__sfp+0x5a>
10007c82:	210c      	movs	r1, #12
10007c84:	5e62      	ldrsh	r2, [r4, r1]
10007c86:	2a00      	cmp	r2, #0
10007c88:	d1f8      	bne.n	10007c7c <__sfp+0x20>
10007c8a:	2500      	movs	r5, #0
10007c8c:	0020      	movs	r0, r4
10007c8e:	4b14      	ldr	r3, [pc, #80]	; (10007ce0 <__sfp+0x84>)
10007c90:	6665      	str	r5, [r4, #100]	; 0x64
10007c92:	6025      	str	r5, [r4, #0]
10007c94:	6065      	str	r5, [r4, #4]
10007c96:	60a5      	str	r5, [r4, #8]
10007c98:	60e3      	str	r3, [r4, #12]
10007c9a:	6125      	str	r5, [r4, #16]
10007c9c:	6165      	str	r5, [r4, #20]
10007c9e:	61a5      	str	r5, [r4, #24]
10007ca0:	2208      	movs	r2, #8
10007ca2:	2100      	movs	r1, #0
10007ca4:	305c      	adds	r0, #92	; 0x5c
10007ca6:	f7fc fc2b 	bl	10004500 <__wrap_memset>
10007caa:	6325      	str	r5, [r4, #48]	; 0x30
10007cac:	6365      	str	r5, [r4, #52]	; 0x34
10007cae:	6465      	str	r5, [r4, #68]	; 0x44
10007cb0:	64a5      	str	r5, [r4, #72]	; 0x48
10007cb2:	0020      	movs	r0, r4
10007cb4:	bd70      	pop	{r4, r5, r6, pc}
10007cb6:	682c      	ldr	r4, [r5, #0]
10007cb8:	2c00      	cmp	r4, #0
10007cba:	d005      	beq.n	10007cc8 <__sfp+0x6c>
10007cbc:	0025      	movs	r5, r4
10007cbe:	e7d8      	b.n	10007c72 <__sfp+0x16>
10007cc0:	0028      	movs	r0, r5
10007cc2:	f7ff ff3d 	bl	10007b40 <__sinit.part.0>
10007cc6:	e7d0      	b.n	10007c6a <__sfp+0xe>
10007cc8:	2104      	movs	r1, #4
10007cca:	0030      	movs	r0, r6
10007ccc:	f7ff ffae 	bl	10007c2c <__sfmoreglue>
10007cd0:	1e04      	subs	r4, r0, #0
10007cd2:	6028      	str	r0, [r5, #0]
10007cd4:	d1f2      	bne.n	10007cbc <__sfp+0x60>
10007cd6:	230c      	movs	r3, #12
10007cd8:	6033      	str	r3, [r6, #0]
10007cda:	e7ea      	b.n	10007cb2 <__sfp+0x56>
10007cdc:	1000a4e4 	.word	0x1000a4e4
10007ce0:	ffff0001 	.word	0xffff0001

10007ce4 <_cleanup>:
10007ce4:	b510      	push	{r4, lr}
10007ce6:	4b03      	ldr	r3, [pc, #12]	; (10007cf4 <_cleanup+0x10>)
10007ce8:	4903      	ldr	r1, [pc, #12]	; (10007cf8 <_cleanup+0x14>)
10007cea:	6818      	ldr	r0, [r3, #0]
10007cec:	f000 f98e 	bl	1000800c <_fwalk_reent>
10007cf0:	bd10      	pop	{r4, pc}
10007cf2:	46c0      	nop			; (mov r8, r8)
10007cf4:	1000a4e4 	.word	0x1000a4e4
10007cf8:	10008769 	.word	0x10008769

10007cfc <__sinit>:
10007cfc:	6b83      	ldr	r3, [r0, #56]	; 0x38
10007cfe:	b510      	push	{r4, lr}
10007d00:	2b00      	cmp	r3, #0
10007d02:	d101      	bne.n	10007d08 <__sinit+0xc>
10007d04:	f7ff ff1c 	bl	10007b40 <__sinit.part.0>
10007d08:	bd10      	pop	{r4, pc}
10007d0a:	46c0      	nop			; (mov r8, r8)

10007d0c <__sfp_lock_acquire>:
10007d0c:	4770      	bx	lr
10007d0e:	46c0      	nop			; (mov r8, r8)

10007d10 <__sfp_lock_release>:
10007d10:	4770      	bx	lr
10007d12:	46c0      	nop			; (mov r8, r8)

10007d14 <__sinit_lock_acquire>:
10007d14:	4770      	bx	lr
10007d16:	46c0      	nop			; (mov r8, r8)

10007d18 <__sinit_lock_release>:
10007d18:	4770      	bx	lr
10007d1a:	46c0      	nop			; (mov r8, r8)

10007d1c <__fp_lock_all>:
10007d1c:	b510      	push	{r4, lr}
10007d1e:	4b03      	ldr	r3, [pc, #12]	; (10007d2c <__fp_lock_all+0x10>)
10007d20:	4903      	ldr	r1, [pc, #12]	; (10007d30 <__fp_lock_all+0x14>)
10007d22:	6818      	ldr	r0, [r3, #0]
10007d24:	f000 f950 	bl	10007fc8 <_fwalk>
10007d28:	bd10      	pop	{r4, pc}
10007d2a:	46c0      	nop			; (mov r8, r8)
10007d2c:	200003a0 	.word	0x200003a0
10007d30:	10007b2d 	.word	0x10007b2d

10007d34 <__fp_unlock_all>:
10007d34:	b510      	push	{r4, lr}
10007d36:	4b03      	ldr	r3, [pc, #12]	; (10007d44 <__fp_unlock_all+0x10>)
10007d38:	4903      	ldr	r1, [pc, #12]	; (10007d48 <__fp_unlock_all+0x14>)
10007d3a:	6818      	ldr	r0, [r3, #0]
10007d3c:	f000 f944 	bl	10007fc8 <_fwalk>
10007d40:	bd10      	pop	{r4, pc}
10007d42:	46c0      	nop			; (mov r8, r8)
10007d44:	200003a0 	.word	0x200003a0
10007d48:	10007c29 	.word	0x10007c29

10007d4c <_malloc_trim_r>:
10007d4c:	b5f8      	push	{r3, r4, r5, r6, r7, lr}
10007d4e:	000c      	movs	r4, r1
10007d50:	0006      	movs	r6, r0
10007d52:	f000 fc47 	bl	100085e4 <__malloc_lock>
10007d56:	4f20      	ldr	r7, [pc, #128]	; (10007dd8 <_malloc_trim_r+0x8c>)
10007d58:	68bb      	ldr	r3, [r7, #8]
10007d5a:	685d      	ldr	r5, [r3, #4]
10007d5c:	2303      	movs	r3, #3
10007d5e:	439d      	bics	r5, r3
10007d60:	4b1e      	ldr	r3, [pc, #120]	; (10007ddc <_malloc_trim_r+0x90>)
10007d62:	1b2c      	subs	r4, r5, r4
10007d64:	469c      	mov	ip, r3
10007d66:	4464      	add	r4, ip
10007d68:	0b24      	lsrs	r4, r4, #12
10007d6a:	4b1d      	ldr	r3, [pc, #116]	; (10007de0 <_malloc_trim_r+0x94>)
10007d6c:	3c01      	subs	r4, #1
10007d6e:	0324      	lsls	r4, r4, #12
10007d70:	429c      	cmp	r4, r3
10007d72:	dd07      	ble.n	10007d84 <_malloc_trim_r+0x38>
10007d74:	2100      	movs	r1, #0
10007d76:	0030      	movs	r0, r6
10007d78:	f000 fc38 	bl	100085ec <_sbrk_r>
10007d7c:	68bb      	ldr	r3, [r7, #8]
10007d7e:	195b      	adds	r3, r3, r5
10007d80:	4298      	cmp	r0, r3
10007d82:	d004      	beq.n	10007d8e <_malloc_trim_r+0x42>
10007d84:	0030      	movs	r0, r6
10007d86:	f000 fc2f 	bl	100085e8 <__malloc_unlock>
10007d8a:	2000      	movs	r0, #0
10007d8c:	bdf8      	pop	{r3, r4, r5, r6, r7, pc}
10007d8e:	4261      	negs	r1, r4
10007d90:	0030      	movs	r0, r6
10007d92:	f000 fc2b 	bl	100085ec <_sbrk_r>
10007d96:	1c43      	adds	r3, r0, #1
10007d98:	d00d      	beq.n	10007db6 <_malloc_trim_r+0x6a>
10007d9a:	2201      	movs	r2, #1
10007d9c:	68bb      	ldr	r3, [r7, #8]
10007d9e:	1b2d      	subs	r5, r5, r4
10007da0:	4315      	orrs	r5, r2
10007da2:	605d      	str	r5, [r3, #4]
10007da4:	4b0f      	ldr	r3, [pc, #60]	; (10007de4 <_malloc_trim_r+0x98>)
10007da6:	0030      	movs	r0, r6
10007da8:	681a      	ldr	r2, [r3, #0]
10007daa:	1b14      	subs	r4, r2, r4
10007dac:	601c      	str	r4, [r3, #0]
10007dae:	f000 fc1b 	bl	100085e8 <__malloc_unlock>
10007db2:	2001      	movs	r0, #1
10007db4:	e7ea      	b.n	10007d8c <_malloc_trim_r+0x40>
10007db6:	2100      	movs	r1, #0
10007db8:	0030      	movs	r0, r6
10007dba:	f000 fc17 	bl	100085ec <_sbrk_r>
10007dbe:	68ba      	ldr	r2, [r7, #8]
10007dc0:	1a83      	subs	r3, r0, r2
10007dc2:	2b0f      	cmp	r3, #15
10007dc4:	ddde      	ble.n	10007d84 <_malloc_trim_r+0x38>
10007dc6:	4908      	ldr	r1, [pc, #32]	; (10007de8 <_malloc_trim_r+0x9c>)
10007dc8:	6809      	ldr	r1, [r1, #0]
10007dca:	1a40      	subs	r0, r0, r1
10007dcc:	4905      	ldr	r1, [pc, #20]	; (10007de4 <_malloc_trim_r+0x98>)
10007dce:	6008      	str	r0, [r1, #0]
10007dd0:	2101      	movs	r1, #1
10007dd2:	430b      	orrs	r3, r1
10007dd4:	6053      	str	r3, [r2, #4]
10007dd6:	e7d5      	b.n	10007d84 <_malloc_trim_r+0x38>
10007dd8:	200007d8 	.word	0x200007d8
10007ddc:	00000fef 	.word	0x00000fef
10007de0:	00000fff 	.word	0x00000fff
10007de4:	20000d20 	.word	0x20000d20
10007de8:	200007d0 	.word	0x200007d0

10007dec <_free_r>:
10007dec:	b5f0      	push	{r4, r5, r6, r7, lr}
10007dee:	46d6      	mov	lr, sl
10007df0:	464f      	mov	r7, r9
10007df2:	4646      	mov	r6, r8
10007df4:	0005      	movs	r5, r0
10007df6:	b5c0      	push	{r6, r7, lr}
10007df8:	1e0c      	subs	r4, r1, #0
10007dfa:	d05c      	beq.n	10007eb6 <_free_r+0xca>
10007dfc:	f000 fbf2 	bl	100085e4 <__malloc_lock>
10007e00:	0021      	movs	r1, r4
10007e02:	3908      	subs	r1, #8
10007e04:	684f      	ldr	r7, [r1, #4]
10007e06:	2401      	movs	r4, #1
10007e08:	003b      	movs	r3, r7
10007e0a:	2203      	movs	r2, #3
10007e0c:	43a3      	bics	r3, r4
10007e0e:	18c8      	adds	r0, r1, r3
10007e10:	6846      	ldr	r6, [r0, #4]
10007e12:	4396      	bics	r6, r2
10007e14:	46b1      	mov	r9, r6
10007e16:	4e66      	ldr	r6, [pc, #408]	; (10007fb0 <_free_r+0x1c4>)
10007e18:	68b2      	ldr	r2, [r6, #8]
10007e1a:	4282      	cmp	r2, r0
10007e1c:	d100      	bne.n	10007e20 <_free_r+0x34>
10007e1e:	e075      	b.n	10007f0c <_free_r+0x120>
10007e20:	464a      	mov	r2, r9
10007e22:	6042      	str	r2, [r0, #4]
10007e24:	1882      	adds	r2, r0, r2
10007e26:	4694      	mov	ip, r2
10007e28:	423c      	tst	r4, r7
10007e2a:	d129      	bne.n	10007e80 <_free_r+0x94>
10007e2c:	680f      	ldr	r7, [r1, #0]
10007e2e:	1bc9      	subs	r1, r1, r7
10007e30:	688a      	ldr	r2, [r1, #8]
10007e32:	19db      	adds	r3, r3, r7
10007e34:	4690      	mov	r8, r2
10007e36:	4662      	mov	r2, ip
10007e38:	6857      	ldr	r7, [r2, #4]
10007e3a:	2208      	movs	r2, #8
10007e3c:	4694      	mov	ip, r2
10007e3e:	4027      	ands	r7, r4
10007e40:	44b4      	add	ip, r6
10007e42:	46ba      	mov	sl, r7
10007e44:	45e0      	cmp	r8, ip
10007e46:	d056      	beq.n	10007ef6 <_free_r+0x10a>
10007e48:	68ca      	ldr	r2, [r1, #12]
10007e4a:	4694      	mov	ip, r2
10007e4c:	4642      	mov	r2, r8
10007e4e:	4667      	mov	r7, ip
10007e50:	60d7      	str	r7, [r2, #12]
10007e52:	4662      	mov	r2, ip
10007e54:	4647      	mov	r7, r8
10007e56:	6097      	str	r7, [r2, #8]
10007e58:	4652      	mov	r2, sl
10007e5a:	2a00      	cmp	r2, #0
10007e5c:	d113      	bne.n	10007e86 <_free_r+0x9a>
10007e5e:	2201      	movs	r2, #1
10007e60:	444b      	add	r3, r9
10007e62:	18cf      	adds	r7, r1, r3
10007e64:	46bc      	mov	ip, r7
10007e66:	6884      	ldr	r4, [r0, #8]
10007e68:	4f52      	ldr	r7, [pc, #328]	; (10007fb4 <_free_r+0x1c8>)
10007e6a:	431a      	orrs	r2, r3
10007e6c:	42bc      	cmp	r4, r7
10007e6e:	d100      	bne.n	10007e72 <_free_r+0x86>
10007e70:	e07a      	b.n	10007f68 <_free_r+0x17c>
10007e72:	68c0      	ldr	r0, [r0, #12]
10007e74:	60e0      	str	r0, [r4, #12]
10007e76:	6084      	str	r4, [r0, #8]
10007e78:	604a      	str	r2, [r1, #4]
10007e7a:	4662      	mov	r2, ip
10007e7c:	6013      	str	r3, [r2, #0]
10007e7e:	e005      	b.n	10007e8c <_free_r+0xa0>
10007e80:	6857      	ldr	r7, [r2, #4]
10007e82:	4227      	tst	r7, r4
10007e84:	d0eb      	beq.n	10007e5e <_free_r+0x72>
10007e86:	431c      	orrs	r4, r3
10007e88:	604c      	str	r4, [r1, #4]
10007e8a:	6003      	str	r3, [r0, #0]
10007e8c:	4a4a      	ldr	r2, [pc, #296]	; (10007fb8 <_free_r+0x1cc>)
10007e8e:	4293      	cmp	r3, r2
10007e90:	d816      	bhi.n	10007ec0 <_free_r+0xd4>
10007e92:	08db      	lsrs	r3, r3, #3
10007e94:	3aff      	subs	r2, #255	; 0xff
10007e96:	1098      	asrs	r0, r3, #2
10007e98:	3aff      	subs	r2, #255	; 0xff
10007e9a:	4082      	lsls	r2, r0
10007e9c:	6870      	ldr	r0, [r6, #4]
10007e9e:	00db      	lsls	r3, r3, #3
10007ea0:	4302      	orrs	r2, r0
10007ea2:	6072      	str	r2, [r6, #4]
10007ea4:	199e      	adds	r6, r3, r6
10007ea6:	68b3      	ldr	r3, [r6, #8]
10007ea8:	60ce      	str	r6, [r1, #12]
10007eaa:	608b      	str	r3, [r1, #8]
10007eac:	60b1      	str	r1, [r6, #8]
10007eae:	60d9      	str	r1, [r3, #12]
10007eb0:	0028      	movs	r0, r5
10007eb2:	f000 fb99 	bl	100085e8 <__malloc_unlock>
10007eb6:	bc1c      	pop	{r2, r3, r4}
10007eb8:	4690      	mov	r8, r2
10007eba:	4699      	mov	r9, r3
10007ebc:	46a2      	mov	sl, r4
10007ebe:	bdf0      	pop	{r4, r5, r6, r7, pc}
10007ec0:	0a5c      	lsrs	r4, r3, #9
10007ec2:	2c04      	cmp	r4, #4
10007ec4:	d83a      	bhi.n	10007f3c <_free_r+0x150>
10007ec6:	099c      	lsrs	r4, r3, #6
10007ec8:	0020      	movs	r0, r4
10007eca:	3439      	adds	r4, #57	; 0x39
10007ecc:	3038      	adds	r0, #56	; 0x38
10007ece:	00e4      	lsls	r4, r4, #3
10007ed0:	1934      	adds	r4, r6, r4
10007ed2:	3c08      	subs	r4, #8
10007ed4:	68a2      	ldr	r2, [r4, #8]
10007ed6:	2703      	movs	r7, #3
10007ed8:	4294      	cmp	r4, r2
10007eda:	d03e      	beq.n	10007f5a <_free_r+0x16e>
10007edc:	6850      	ldr	r0, [r2, #4]
10007ede:	43b8      	bics	r0, r7
10007ee0:	4298      	cmp	r0, r3
10007ee2:	d902      	bls.n	10007eea <_free_r+0xfe>
10007ee4:	6892      	ldr	r2, [r2, #8]
10007ee6:	4294      	cmp	r4, r2
10007ee8:	d1f8      	bne.n	10007edc <_free_r+0xf0>
10007eea:	68d4      	ldr	r4, [r2, #12]
10007eec:	60cc      	str	r4, [r1, #12]
10007eee:	608a      	str	r2, [r1, #8]
10007ef0:	60a1      	str	r1, [r4, #8]
10007ef2:	60d1      	str	r1, [r2, #12]
10007ef4:	e7dc      	b.n	10007eb0 <_free_r+0xc4>
10007ef6:	2f00      	cmp	r7, #0
10007ef8:	d155      	bne.n	10007fa6 <_free_r+0x1ba>
10007efa:	68c2      	ldr	r2, [r0, #12]
10007efc:	444b      	add	r3, r9
10007efe:	6880      	ldr	r0, [r0, #8]
10007f00:	431c      	orrs	r4, r3
10007f02:	60c2      	str	r2, [r0, #12]
10007f04:	6090      	str	r0, [r2, #8]
10007f06:	604c      	str	r4, [r1, #4]
10007f08:	50cb      	str	r3, [r1, r3]
10007f0a:	e7d1      	b.n	10007eb0 <_free_r+0xc4>
10007f0c:	444b      	add	r3, r9
10007f0e:	423c      	tst	r4, r7
10007f10:	d106      	bne.n	10007f20 <_free_r+0x134>
10007f12:	680a      	ldr	r2, [r1, #0]
10007f14:	1a89      	subs	r1, r1, r2
10007f16:	6888      	ldr	r0, [r1, #8]
10007f18:	189b      	adds	r3, r3, r2
10007f1a:	68ca      	ldr	r2, [r1, #12]
10007f1c:	60c2      	str	r2, [r0, #12]
10007f1e:	6090      	str	r0, [r2, #8]
10007f20:	2201      	movs	r2, #1
10007f22:	431a      	orrs	r2, r3
10007f24:	604a      	str	r2, [r1, #4]
10007f26:	4a25      	ldr	r2, [pc, #148]	; (10007fbc <_free_r+0x1d0>)
10007f28:	60b1      	str	r1, [r6, #8]
10007f2a:	6812      	ldr	r2, [r2, #0]
10007f2c:	429a      	cmp	r2, r3
10007f2e:	d8bf      	bhi.n	10007eb0 <_free_r+0xc4>
10007f30:	4b23      	ldr	r3, [pc, #140]	; (10007fc0 <_free_r+0x1d4>)
10007f32:	0028      	movs	r0, r5
10007f34:	6819      	ldr	r1, [r3, #0]
10007f36:	f7ff ff09 	bl	10007d4c <_malloc_trim_r>
10007f3a:	e7b9      	b.n	10007eb0 <_free_r+0xc4>
10007f3c:	2c14      	cmp	r4, #20
10007f3e:	d907      	bls.n	10007f50 <_free_r+0x164>
10007f40:	2c54      	cmp	r4, #84	; 0x54
10007f42:	d819      	bhi.n	10007f78 <_free_r+0x18c>
10007f44:	0b1c      	lsrs	r4, r3, #12
10007f46:	0020      	movs	r0, r4
10007f48:	346f      	adds	r4, #111	; 0x6f
10007f4a:	306e      	adds	r0, #110	; 0x6e
10007f4c:	00e4      	lsls	r4, r4, #3
10007f4e:	e7bf      	b.n	10007ed0 <_free_r+0xe4>
10007f50:	0020      	movs	r0, r4
10007f52:	345c      	adds	r4, #92	; 0x5c
10007f54:	305b      	adds	r0, #91	; 0x5b
10007f56:	00e4      	lsls	r4, r4, #3
10007f58:	e7ba      	b.n	10007ed0 <_free_r+0xe4>
10007f5a:	2301      	movs	r3, #1
10007f5c:	1080      	asrs	r0, r0, #2
10007f5e:	4083      	lsls	r3, r0
10007f60:	6870      	ldr	r0, [r6, #4]
10007f62:	4303      	orrs	r3, r0
10007f64:	6073      	str	r3, [r6, #4]
10007f66:	e7c1      	b.n	10007eec <_free_r+0x100>
10007f68:	60e1      	str	r1, [r4, #12]
10007f6a:	60a1      	str	r1, [r4, #8]
10007f6c:	604a      	str	r2, [r1, #4]
10007f6e:	4662      	mov	r2, ip
10007f70:	60cc      	str	r4, [r1, #12]
10007f72:	608c      	str	r4, [r1, #8]
10007f74:	6013      	str	r3, [r2, #0]
10007f76:	e79b      	b.n	10007eb0 <_free_r+0xc4>
10007f78:	20aa      	movs	r0, #170	; 0xaa
10007f7a:	0040      	lsls	r0, r0, #1
10007f7c:	4284      	cmp	r4, r0
10007f7e:	d805      	bhi.n	10007f8c <_free_r+0x1a0>
10007f80:	0bdc      	lsrs	r4, r3, #15
10007f82:	0020      	movs	r0, r4
10007f84:	3478      	adds	r4, #120	; 0x78
10007f86:	3077      	adds	r0, #119	; 0x77
10007f88:	00e4      	lsls	r4, r4, #3
10007f8a:	e7a1      	b.n	10007ed0 <_free_r+0xe4>
10007f8c:	480d      	ldr	r0, [pc, #52]	; (10007fc4 <_free_r+0x1d8>)
10007f8e:	4284      	cmp	r4, r0
10007f90:	d805      	bhi.n	10007f9e <_free_r+0x1b2>
10007f92:	0c9c      	lsrs	r4, r3, #18
10007f94:	0020      	movs	r0, r4
10007f96:	347d      	adds	r4, #125	; 0x7d
10007f98:	307c      	adds	r0, #124	; 0x7c
10007f9a:	00e4      	lsls	r4, r4, #3
10007f9c:	e798      	b.n	10007ed0 <_free_r+0xe4>
10007f9e:	24fe      	movs	r4, #254	; 0xfe
10007fa0:	207e      	movs	r0, #126	; 0x7e
10007fa2:	00a4      	lsls	r4, r4, #2
10007fa4:	e794      	b.n	10007ed0 <_free_r+0xe4>
10007fa6:	431c      	orrs	r4, r3
10007fa8:	604c      	str	r4, [r1, #4]
10007faa:	6003      	str	r3, [r0, #0]
10007fac:	e780      	b.n	10007eb0 <_free_r+0xc4>
10007fae:	46c0      	nop			; (mov r8, r8)
10007fb0:	200007d8 	.word	0x200007d8
10007fb4:	200007e0 	.word	0x200007e0
10007fb8:	000001ff 	.word	0x000001ff
10007fbc:	200007d4 	.word	0x200007d4
10007fc0:	20000d1c 	.word	0x20000d1c
10007fc4:	00000554 	.word	0x00000554

10007fc8 <_fwalk>:
10007fc8:	23b8      	movs	r3, #184	; 0xb8
10007fca:	b5f0      	push	{r4, r5, r6, r7, lr}
10007fcc:	46c6      	mov	lr, r8
10007fce:	009b      	lsls	r3, r3, #2
10007fd0:	18c7      	adds	r7, r0, r3
10007fd2:	b500      	push	{lr}
10007fd4:	4688      	mov	r8, r1
10007fd6:	2600      	movs	r6, #0
10007fd8:	2f00      	cmp	r7, #0
10007fda:	d013      	beq.n	10008004 <_fwalk+0x3c>
10007fdc:	687b      	ldr	r3, [r7, #4]
10007fde:	68bc      	ldr	r4, [r7, #8]
10007fe0:	1e5d      	subs	r5, r3, #1
10007fe2:	d40c      	bmi.n	10007ffe <_fwalk+0x36>
10007fe4:	89a3      	ldrh	r3, [r4, #12]
10007fe6:	2b01      	cmp	r3, #1
10007fe8:	d906      	bls.n	10007ff8 <_fwalk+0x30>
10007fea:	220e      	movs	r2, #14
10007fec:	5ea3      	ldrsh	r3, [r4, r2]
10007fee:	3301      	adds	r3, #1
10007ff0:	d002      	beq.n	10007ff8 <_fwalk+0x30>
10007ff2:	0020      	movs	r0, r4
10007ff4:	47c0      	blx	r8
10007ff6:	4306      	orrs	r6, r0
10007ff8:	3468      	adds	r4, #104	; 0x68
10007ffa:	3d01      	subs	r5, #1
10007ffc:	d2f2      	bcs.n	10007fe4 <_fwalk+0x1c>
10007ffe:	683f      	ldr	r7, [r7, #0]
10008000:	2f00      	cmp	r7, #0
10008002:	d1eb      	bne.n	10007fdc <_fwalk+0x14>
10008004:	0030      	movs	r0, r6
10008006:	bc04      	pop	{r2}
10008008:	4690      	mov	r8, r2
1000800a:	bdf0      	pop	{r4, r5, r6, r7, pc}

1000800c <_fwalk_reent>:
1000800c:	b5f8      	push	{r3, r4, r5, r6, r7, lr}
1000800e:	4647      	mov	r7, r8
10008010:	46ce      	mov	lr, r9
10008012:	b580      	push	{r7, lr}
10008014:	27b8      	movs	r7, #184	; 0xb8
10008016:	4680      	mov	r8, r0
10008018:	00bf      	lsls	r7, r7, #2
1000801a:	4447      	add	r7, r8
1000801c:	4689      	mov	r9, r1
1000801e:	2600      	movs	r6, #0
10008020:	2f00      	cmp	r7, #0
10008022:	d014      	beq.n	1000804e <_fwalk_reent+0x42>
10008024:	687b      	ldr	r3, [r7, #4]
10008026:	68bc      	ldr	r4, [r7, #8]
10008028:	1e5d      	subs	r5, r3, #1
1000802a:	d40d      	bmi.n	10008048 <_fwalk_reent+0x3c>
1000802c:	89a3      	ldrh	r3, [r4, #12]
1000802e:	2b01      	cmp	r3, #1
10008030:	d907      	bls.n	10008042 <_fwalk_reent+0x36>
10008032:	220e      	movs	r2, #14
10008034:	5ea3      	ldrsh	r3, [r4, r2]
10008036:	3301      	adds	r3, #1
10008038:	d003      	beq.n	10008042 <_fwalk_reent+0x36>
1000803a:	0021      	movs	r1, r4
1000803c:	4640      	mov	r0, r8
1000803e:	47c8      	blx	r9
10008040:	4306      	orrs	r6, r0
10008042:	3468      	adds	r4, #104	; 0x68
10008044:	3d01      	subs	r5, #1
10008046:	d2f1      	bcs.n	1000802c <_fwalk_reent+0x20>
10008048:	683f      	ldr	r7, [r7, #0]
1000804a:	2f00      	cmp	r7, #0
1000804c:	d1ea      	bne.n	10008024 <_fwalk_reent+0x18>
1000804e:	0030      	movs	r0, r6
10008050:	bc0c      	pop	{r2, r3}
10008052:	4690      	mov	r8, r2
10008054:	4699      	mov	r9, r3
10008056:	bdf8      	pop	{r3, r4, r5, r6, r7, pc}

10008058 <_malloc_r>:
10008058:	b5f0      	push	{r4, r5, r6, r7, lr}
1000805a:	4657      	mov	r7, sl
1000805c:	4645      	mov	r5, r8
1000805e:	46de      	mov	lr, fp
10008060:	464e      	mov	r6, r9
10008062:	b5e0      	push	{r5, r6, r7, lr}
10008064:	000d      	movs	r5, r1
10008066:	350b      	adds	r5, #11
10008068:	b083      	sub	sp, #12
1000806a:	0007      	movs	r7, r0
1000806c:	2d16      	cmp	r5, #22
1000806e:	d822      	bhi.n	100080b6 <_malloc_r+0x5e>
10008070:	2910      	cmp	r1, #16
10008072:	d900      	bls.n	10008076 <_malloc_r+0x1e>
10008074:	e0bb      	b.n	100081ee <_malloc_r+0x196>
10008076:	f000 fab5 	bl	100085e4 <__malloc_lock>
1000807a:	2510      	movs	r5, #16
1000807c:	2318      	movs	r3, #24
1000807e:	2002      	movs	r0, #2
10008080:	4ed1      	ldr	r6, [pc, #836]	; (100083c8 <_malloc_r+0x370>)
10008082:	18f3      	adds	r3, r6, r3
10008084:	001a      	movs	r2, r3
10008086:	685c      	ldr	r4, [r3, #4]
10008088:	3a08      	subs	r2, #8
1000808a:	4294      	cmp	r4, r2
1000808c:	d100      	bne.n	10008090 <_malloc_r+0x38>
1000808e:	e0be      	b.n	1000820e <_malloc_r+0x1b6>
10008090:	2303      	movs	r3, #3
10008092:	6862      	ldr	r2, [r4, #4]
10008094:	439a      	bics	r2, r3
10008096:	0013      	movs	r3, r2
10008098:	68e2      	ldr	r2, [r4, #12]
1000809a:	68a1      	ldr	r1, [r4, #8]
1000809c:	60ca      	str	r2, [r1, #12]
1000809e:	6091      	str	r1, [r2, #8]
100080a0:	2201      	movs	r2, #1
100080a2:	18e3      	adds	r3, r4, r3
100080a4:	6859      	ldr	r1, [r3, #4]
100080a6:	0038      	movs	r0, r7
100080a8:	430a      	orrs	r2, r1
100080aa:	605a      	str	r2, [r3, #4]
100080ac:	f000 fa9c 	bl	100085e8 <__malloc_unlock>
100080b0:	0020      	movs	r0, r4
100080b2:	3008      	adds	r0, #8
100080b4:	e09e      	b.n	100081f4 <_malloc_r+0x19c>
100080b6:	2307      	movs	r3, #7
100080b8:	439d      	bics	r5, r3
100080ba:	d500      	bpl.n	100080be <_malloc_r+0x66>
100080bc:	e097      	b.n	100081ee <_malloc_r+0x196>
100080be:	42a9      	cmp	r1, r5
100080c0:	d900      	bls.n	100080c4 <_malloc_r+0x6c>
100080c2:	e094      	b.n	100081ee <_malloc_r+0x196>
100080c4:	f000 fa8e 	bl	100085e4 <__malloc_lock>
100080c8:	23f8      	movs	r3, #248	; 0xf8
100080ca:	33ff      	adds	r3, #255	; 0xff
100080cc:	429d      	cmp	r5, r3
100080ce:	d800      	bhi.n	100080d2 <_malloc_r+0x7a>
100080d0:	e1ad      	b.n	1000842e <_malloc_r+0x3d6>
100080d2:	0a68      	lsrs	r0, r5, #9
100080d4:	d100      	bne.n	100080d8 <_malloc_r+0x80>
100080d6:	e094      	b.n	10008202 <_malloc_r+0x1aa>
100080d8:	2804      	cmp	r0, #4
100080da:	d900      	bls.n	100080de <_malloc_r+0x86>
100080dc:	e180      	b.n	100083e0 <_malloc_r+0x388>
100080de:	2338      	movs	r3, #56	; 0x38
100080e0:	4698      	mov	r8, r3
100080e2:	09a8      	lsrs	r0, r5, #6
100080e4:	4480      	add	r8, r0
100080e6:	3039      	adds	r0, #57	; 0x39
100080e8:	00c1      	lsls	r1, r0, #3
100080ea:	4eb7      	ldr	r6, [pc, #732]	; (100083c8 <_malloc_r+0x370>)
100080ec:	1871      	adds	r1, r6, r1
100080ee:	3908      	subs	r1, #8
100080f0:	68cc      	ldr	r4, [r1, #12]
100080f2:	42a1      	cmp	r1, r4
100080f4:	d018      	beq.n	10008128 <_malloc_r+0xd0>
100080f6:	2303      	movs	r3, #3
100080f8:	6862      	ldr	r2, [r4, #4]
100080fa:	439a      	bics	r2, r3
100080fc:	0013      	movs	r3, r2
100080fe:	1b52      	subs	r2, r2, r5
10008100:	2a0f      	cmp	r2, #15
10008102:	dd00      	ble.n	10008106 <_malloc_r+0xae>
10008104:	e136      	b.n	10008374 <_malloc_r+0x31c>
10008106:	2a00      	cmp	r2, #0
10008108:	dac6      	bge.n	10008098 <_malloc_r+0x40>
1000810a:	2303      	movs	r3, #3
1000810c:	469c      	mov	ip, r3
1000810e:	e008      	b.n	10008122 <_malloc_r+0xca>
10008110:	4662      	mov	r2, ip
10008112:	6863      	ldr	r3, [r4, #4]
10008114:	4393      	bics	r3, r2
10008116:	1b5a      	subs	r2, r3, r5
10008118:	2a0f      	cmp	r2, #15
1000811a:	dd00      	ble.n	1000811e <_malloc_r+0xc6>
1000811c:	e12a      	b.n	10008374 <_malloc_r+0x31c>
1000811e:	2a00      	cmp	r2, #0
10008120:	daba      	bge.n	10008098 <_malloc_r+0x40>
10008122:	68e4      	ldr	r4, [r4, #12]
10008124:	42a1      	cmp	r1, r4
10008126:	d1f3      	bne.n	10008110 <_malloc_r+0xb8>
10008128:	0032      	movs	r2, r6
1000812a:	6934      	ldr	r4, [r6, #16]
1000812c:	3208      	adds	r2, #8
1000812e:	4294      	cmp	r4, r2
10008130:	d100      	bne.n	10008134 <_malloc_r+0xdc>
10008132:	e077      	b.n	10008224 <_malloc_r+0x1cc>
10008134:	2303      	movs	r3, #3
10008136:	6861      	ldr	r1, [r4, #4]
10008138:	4399      	bics	r1, r3
1000813a:	4689      	mov	r9, r1
1000813c:	000b      	movs	r3, r1
1000813e:	1b49      	subs	r1, r1, r5
10008140:	290f      	cmp	r1, #15
10008142:	dd00      	ble.n	10008146 <_malloc_r+0xee>
10008144:	e177      	b.n	10008436 <_malloc_r+0x3de>
10008146:	6172      	str	r2, [r6, #20]
10008148:	6132      	str	r2, [r6, #16]
1000814a:	2900      	cmp	r1, #0
1000814c:	daa8      	bge.n	100080a0 <_malloc_r+0x48>
1000814e:	4a9f      	ldr	r2, [pc, #636]	; (100083cc <_malloc_r+0x374>)
10008150:	4591      	cmp	r9, r2
10008152:	d900      	bls.n	10008156 <_malloc_r+0xfe>
10008154:	e110      	b.n	10008378 <_malloc_r+0x320>
10008156:	08da      	lsrs	r2, r3, #3
10008158:	2301      	movs	r3, #1
1000815a:	1091      	asrs	r1, r2, #2
1000815c:	408b      	lsls	r3, r1
1000815e:	00d2      	lsls	r2, r2, #3
10008160:	6871      	ldr	r1, [r6, #4]
10008162:	1992      	adds	r2, r2, r6
10008164:	430b      	orrs	r3, r1
10008166:	6891      	ldr	r1, [r2, #8]
10008168:	6073      	str	r3, [r6, #4]
1000816a:	60e2      	str	r2, [r4, #12]
1000816c:	60a1      	str	r1, [r4, #8]
1000816e:	6094      	str	r4, [r2, #8]
10008170:	60cc      	str	r4, [r1, #12]
10008172:	2101      	movs	r1, #1
10008174:	1082      	asrs	r2, r0, #2
10008176:	4091      	lsls	r1, r2
10008178:	4299      	cmp	r1, r3
1000817a:	d859      	bhi.n	10008230 <_malloc_r+0x1d8>
1000817c:	420b      	tst	r3, r1
1000817e:	d105      	bne.n	1000818c <_malloc_r+0x134>
10008180:	2203      	movs	r2, #3
10008182:	4390      	bics	r0, r2
10008184:	0049      	lsls	r1, r1, #1
10008186:	3004      	adds	r0, #4
10008188:	420b      	tst	r3, r1
1000818a:	d0fb      	beq.n	10008184 <_malloc_r+0x12c>
1000818c:	2303      	movs	r3, #3
1000818e:	4698      	mov	r8, r3
10008190:	00c3      	lsls	r3, r0, #3
10008192:	4699      	mov	r9, r3
10008194:	44b1      	add	r9, r6
10008196:	46cc      	mov	ip, r9
10008198:	4682      	mov	sl, r0
1000819a:	4663      	mov	r3, ip
1000819c:	68dc      	ldr	r4, [r3, #12]
1000819e:	45a4      	cmp	ip, r4
100081a0:	d107      	bne.n	100081b2 <_malloc_r+0x15a>
100081a2:	e129      	b.n	100083f8 <_malloc_r+0x3a0>
100081a4:	2a00      	cmp	r2, #0
100081a6:	db00      	blt.n	100081aa <_malloc_r+0x152>
100081a8:	e132      	b.n	10008410 <_malloc_r+0x3b8>
100081aa:	68e4      	ldr	r4, [r4, #12]
100081ac:	45a4      	cmp	ip, r4
100081ae:	d100      	bne.n	100081b2 <_malloc_r+0x15a>
100081b0:	e122      	b.n	100083f8 <_malloc_r+0x3a0>
100081b2:	4642      	mov	r2, r8
100081b4:	6863      	ldr	r3, [r4, #4]
100081b6:	4393      	bics	r3, r2
100081b8:	1b5a      	subs	r2, r3, r5
100081ba:	2a0f      	cmp	r2, #15
100081bc:	ddf2      	ble.n	100081a4 <_malloc_r+0x14c>
100081be:	2001      	movs	r0, #1
100081c0:	4680      	mov	r8, r0
100081c2:	1961      	adds	r1, r4, r5
100081c4:	4305      	orrs	r5, r0
100081c6:	6065      	str	r5, [r4, #4]
100081c8:	68a0      	ldr	r0, [r4, #8]
100081ca:	68e5      	ldr	r5, [r4, #12]
100081cc:	3608      	adds	r6, #8
100081ce:	60c5      	str	r5, [r0, #12]
100081d0:	60a8      	str	r0, [r5, #8]
100081d2:	4640      	mov	r0, r8
100081d4:	60f1      	str	r1, [r6, #12]
100081d6:	60b1      	str	r1, [r6, #8]
100081d8:	4310      	orrs	r0, r2
100081da:	6048      	str	r0, [r1, #4]
100081dc:	60ce      	str	r6, [r1, #12]
100081de:	608e      	str	r6, [r1, #8]
100081e0:	0038      	movs	r0, r7
100081e2:	50e2      	str	r2, [r4, r3]
100081e4:	f000 fa00 	bl	100085e8 <__malloc_unlock>
100081e8:	0020      	movs	r0, r4
100081ea:	3008      	adds	r0, #8
100081ec:	e002      	b.n	100081f4 <_malloc_r+0x19c>
100081ee:	230c      	movs	r3, #12
100081f0:	2000      	movs	r0, #0
100081f2:	603b      	str	r3, [r7, #0]
100081f4:	b003      	add	sp, #12
100081f6:	bc3c      	pop	{r2, r3, r4, r5}
100081f8:	4690      	mov	r8, r2
100081fa:	4699      	mov	r9, r3
100081fc:	46a2      	mov	sl, r4
100081fe:	46ab      	mov	fp, r5
10008200:	bdf0      	pop	{r4, r5, r6, r7, pc}
10008202:	2180      	movs	r1, #128	; 0x80
10008204:	233f      	movs	r3, #63	; 0x3f
10008206:	0089      	lsls	r1, r1, #2
10008208:	2040      	movs	r0, #64	; 0x40
1000820a:	4698      	mov	r8, r3
1000820c:	e76d      	b.n	100080ea <_malloc_r+0x92>
1000820e:	68dc      	ldr	r4, [r3, #12]
10008210:	3002      	adds	r0, #2
10008212:	42a3      	cmp	r3, r4
10008214:	d000      	beq.n	10008218 <_malloc_r+0x1c0>
10008216:	e73b      	b.n	10008090 <_malloc_r+0x38>
10008218:	0032      	movs	r2, r6
1000821a:	6934      	ldr	r4, [r6, #16]
1000821c:	3208      	adds	r2, #8
1000821e:	4294      	cmp	r4, r2
10008220:	d000      	beq.n	10008224 <_malloc_r+0x1cc>
10008222:	e787      	b.n	10008134 <_malloc_r+0xdc>
10008224:	2101      	movs	r1, #1
10008226:	6873      	ldr	r3, [r6, #4]
10008228:	1082      	asrs	r2, r0, #2
1000822a:	4091      	lsls	r1, r2
1000822c:	4299      	cmp	r1, r3
1000822e:	d9a5      	bls.n	1000817c <_malloc_r+0x124>
10008230:	2303      	movs	r3, #3
10008232:	68b4      	ldr	r4, [r6, #8]
10008234:	6862      	ldr	r2, [r4, #4]
10008236:	439a      	bics	r2, r3
10008238:	4690      	mov	r8, r2
1000823a:	42aa      	cmp	r2, r5
1000823c:	d303      	bcc.n	10008246 <_malloc_r+0x1ee>
1000823e:	1b53      	subs	r3, r2, r5
10008240:	2b0f      	cmp	r3, #15
10008242:	dd00      	ble.n	10008246 <_malloc_r+0x1ee>
10008244:	e088      	b.n	10008358 <_malloc_r+0x300>
10008246:	0023      	movs	r3, r4
10008248:	4443      	add	r3, r8
1000824a:	4a61      	ldr	r2, [pc, #388]	; (100083d0 <_malloc_r+0x378>)
1000824c:	9301      	str	r3, [sp, #4]
1000824e:	4b61      	ldr	r3, [pc, #388]	; (100083d4 <_malloc_r+0x37c>)
10008250:	4693      	mov	fp, r2
10008252:	469a      	mov	sl, r3
10008254:	6812      	ldr	r2, [r2, #0]
10008256:	681b      	ldr	r3, [r3, #0]
10008258:	18eb      	adds	r3, r5, r3
1000825a:	3201      	adds	r2, #1
1000825c:	d100      	bne.n	10008260 <_malloc_r+0x208>
1000825e:	e139      	b.n	100084d4 <_malloc_r+0x47c>
10008260:	4a5d      	ldr	r2, [pc, #372]	; (100083d8 <_malloc_r+0x380>)
10008262:	4694      	mov	ip, r2
10008264:	4463      	add	r3, ip
10008266:	0b1b      	lsrs	r3, r3, #12
10008268:	031b      	lsls	r3, r3, #12
1000826a:	9300      	str	r3, [sp, #0]
1000826c:	9900      	ldr	r1, [sp, #0]
1000826e:	0038      	movs	r0, r7
10008270:	f000 f9bc 	bl	100085ec <_sbrk_r>
10008274:	0003      	movs	r3, r0
10008276:	4681      	mov	r9, r0
10008278:	3301      	adds	r3, #1
1000827a:	d100      	bne.n	1000827e <_malloc_r+0x226>
1000827c:	e0f6      	b.n	1000846c <_malloc_r+0x414>
1000827e:	9b01      	ldr	r3, [sp, #4]
10008280:	4283      	cmp	r3, r0
10008282:	d900      	bls.n	10008286 <_malloc_r+0x22e>
10008284:	e0f0      	b.n	10008468 <_malloc_r+0x410>
10008286:	4651      	mov	r1, sl
10008288:	6849      	ldr	r1, [r1, #4]
1000828a:	9b00      	ldr	r3, [sp, #0]
1000828c:	468c      	mov	ip, r1
1000828e:	4651      	mov	r1, sl
10008290:	4463      	add	r3, ip
10008292:	604b      	str	r3, [r1, #4]
10008294:	9901      	ldr	r1, [sp, #4]
10008296:	001a      	movs	r2, r3
10008298:	4549      	cmp	r1, r9
1000829a:	d100      	bne.n	1000829e <_malloc_r+0x246>
1000829c:	e14f      	b.n	1000853e <_malloc_r+0x4e6>
1000829e:	465b      	mov	r3, fp
100082a0:	681b      	ldr	r3, [r3, #0]
100082a2:	3301      	adds	r3, #1
100082a4:	d100      	bne.n	100082a8 <_malloc_r+0x250>
100082a6:	e154      	b.n	10008552 <_malloc_r+0x4fa>
100082a8:	464b      	mov	r3, r9
100082aa:	9901      	ldr	r1, [sp, #4]
100082ac:	1a5b      	subs	r3, r3, r1
100082ae:	189a      	adds	r2, r3, r2
100082b0:	4653      	mov	r3, sl
100082b2:	605a      	str	r2, [r3, #4]
100082b4:	2307      	movs	r3, #7
100082b6:	464a      	mov	r2, r9
100082b8:	401a      	ands	r2, r3
100082ba:	9201      	str	r2, [sp, #4]
100082bc:	d100      	bne.n	100082c0 <_malloc_r+0x268>
100082be:	e113      	b.n	100084e8 <_malloc_r+0x490>
100082c0:	2108      	movs	r1, #8
100082c2:	464b      	mov	r3, r9
100082c4:	4689      	mov	r9, r1
100082c6:	1a9b      	subs	r3, r3, r2
100082c8:	4499      	add	r9, r3
100082ca:	9900      	ldr	r1, [sp, #0]
100082cc:	4b43      	ldr	r3, [pc, #268]	; (100083dc <_malloc_r+0x384>)
100082ce:	4449      	add	r1, r9
100082d0:	1a9b      	subs	r3, r3, r2
100082d2:	1a5b      	subs	r3, r3, r1
100082d4:	051b      	lsls	r3, r3, #20
100082d6:	0d1b      	lsrs	r3, r3, #20
100082d8:	9100      	str	r1, [sp, #0]
100082da:	0038      	movs	r0, r7
100082dc:	0019      	movs	r1, r3
100082de:	469b      	mov	fp, r3
100082e0:	f000 f984 	bl	100085ec <_sbrk_r>
100082e4:	1c43      	adds	r3, r0, #1
100082e6:	d100      	bne.n	100082ea <_malloc_r+0x292>
100082e8:	e14f      	b.n	1000858a <_malloc_r+0x532>
100082ea:	464b      	mov	r3, r9
100082ec:	1ac0      	subs	r0, r0, r3
100082ee:	0003      	movs	r3, r0
100082f0:	445b      	add	r3, fp
100082f2:	9300      	str	r3, [sp, #0]
100082f4:	4653      	mov	r3, sl
100082f6:	4652      	mov	r2, sl
100082f8:	685b      	ldr	r3, [r3, #4]
100082fa:	2101      	movs	r1, #1
100082fc:	445b      	add	r3, fp
100082fe:	6053      	str	r3, [r2, #4]
10008300:	464a      	mov	r2, r9
10008302:	4648      	mov	r0, r9
10008304:	60b2      	str	r2, [r6, #8]
10008306:	9a00      	ldr	r2, [sp, #0]
10008308:	430a      	orrs	r2, r1
1000830a:	6042      	str	r2, [r0, #4]
1000830c:	42b4      	cmp	r4, r6
1000830e:	d100      	bne.n	10008312 <_malloc_r+0x2ba>
10008310:	e123      	b.n	1000855a <_malloc_r+0x502>
10008312:	4642      	mov	r2, r8
10008314:	2a0f      	cmp	r2, #15
10008316:	d800      	bhi.n	1000831a <_malloc_r+0x2c2>
10008318:	e121      	b.n	1000855e <_malloc_r+0x506>
1000831a:	2007      	movs	r0, #7
1000831c:	3a0c      	subs	r2, #12
1000831e:	4382      	bics	r2, r0
10008320:	6860      	ldr	r0, [r4, #4]
10008322:	4001      	ands	r1, r0
10008324:	2005      	movs	r0, #5
10008326:	4311      	orrs	r1, r2
10008328:	6061      	str	r1, [r4, #4]
1000832a:	18a1      	adds	r1, r4, r2
1000832c:	6048      	str	r0, [r1, #4]
1000832e:	6088      	str	r0, [r1, #8]
10008330:	2a0f      	cmp	r2, #15
10008332:	d900      	bls.n	10008336 <_malloc_r+0x2de>
10008334:	e134      	b.n	100085a0 <_malloc_r+0x548>
10008336:	464a      	mov	r2, r9
10008338:	464c      	mov	r4, r9
1000833a:	6852      	ldr	r2, [r2, #4]
1000833c:	4651      	mov	r1, sl
1000833e:	6ac9      	ldr	r1, [r1, #44]	; 0x2c
10008340:	4299      	cmp	r1, r3
10008342:	d201      	bcs.n	10008348 <_malloc_r+0x2f0>
10008344:	4651      	mov	r1, sl
10008346:	62cb      	str	r3, [r1, #44]	; 0x2c
10008348:	4651      	mov	r1, sl
1000834a:	6b09      	ldr	r1, [r1, #48]	; 0x30
1000834c:	4299      	cmp	r1, r3
1000834e:	d300      	bcc.n	10008352 <_malloc_r+0x2fa>
10008350:	e08e      	b.n	10008470 <_malloc_r+0x418>
10008352:	4651      	mov	r1, sl
10008354:	630b      	str	r3, [r1, #48]	; 0x30
10008356:	e08b      	b.n	10008470 <_malloc_r+0x418>
10008358:	2201      	movs	r2, #1
1000835a:	0029      	movs	r1, r5
1000835c:	4313      	orrs	r3, r2
1000835e:	4311      	orrs	r1, r2
10008360:	1965      	adds	r5, r4, r5
10008362:	6061      	str	r1, [r4, #4]
10008364:	0038      	movs	r0, r7
10008366:	60b5      	str	r5, [r6, #8]
10008368:	606b      	str	r3, [r5, #4]
1000836a:	f000 f93d 	bl	100085e8 <__malloc_unlock>
1000836e:	0020      	movs	r0, r4
10008370:	3008      	adds	r0, #8
10008372:	e73f      	b.n	100081f4 <_malloc_r+0x19c>
10008374:	4640      	mov	r0, r8
10008376:	e6d7      	b.n	10008128 <_malloc_r+0xd0>
10008378:	0a5a      	lsrs	r2, r3, #9
1000837a:	2a04      	cmp	r2, #4
1000837c:	d96e      	bls.n	1000845c <_malloc_r+0x404>
1000837e:	2a14      	cmp	r2, #20
10008380:	d900      	bls.n	10008384 <_malloc_r+0x32c>
10008382:	e0c1      	b.n	10008508 <_malloc_r+0x4b0>
10008384:	0011      	movs	r1, r2
10008386:	325c      	adds	r2, #92	; 0x5c
10008388:	315b      	adds	r1, #91	; 0x5b
1000838a:	00d2      	lsls	r2, r2, #3
1000838c:	2308      	movs	r3, #8
1000838e:	425b      	negs	r3, r3
10008390:	469c      	mov	ip, r3
10008392:	18b2      	adds	r2, r6, r2
10008394:	4494      	add	ip, r2
10008396:	4663      	mov	r3, ip
10008398:	689a      	ldr	r2, [r3, #8]
1000839a:	2303      	movs	r3, #3
1000839c:	4698      	mov	r8, r3
1000839e:	4594      	cmp	ip, r2
100083a0:	d100      	bne.n	100083a4 <_malloc_r+0x34c>
100083a2:	e09a      	b.n	100084da <_malloc_r+0x482>
100083a4:	4643      	mov	r3, r8
100083a6:	6851      	ldr	r1, [r2, #4]
100083a8:	4399      	bics	r1, r3
100083aa:	4549      	cmp	r1, r9
100083ac:	d902      	bls.n	100083b4 <_malloc_r+0x35c>
100083ae:	6892      	ldr	r2, [r2, #8]
100083b0:	4594      	cmp	ip, r2
100083b2:	d1f7      	bne.n	100083a4 <_malloc_r+0x34c>
100083b4:	68d3      	ldr	r3, [r2, #12]
100083b6:	469c      	mov	ip, r3
100083b8:	6873      	ldr	r3, [r6, #4]
100083ba:	4661      	mov	r1, ip
100083bc:	60a2      	str	r2, [r4, #8]
100083be:	60e1      	str	r1, [r4, #12]
100083c0:	608c      	str	r4, [r1, #8]
100083c2:	60d4      	str	r4, [r2, #12]
100083c4:	e6d5      	b.n	10008172 <_malloc_r+0x11a>
100083c6:	46c0      	nop			; (mov r8, r8)
100083c8:	200007d8 	.word	0x200007d8
100083cc:	000001ff 	.word	0x000001ff
100083d0:	200007d0 	.word	0x200007d0
100083d4:	20000d1c 	.word	0x20000d1c
100083d8:	0000100f 	.word	0x0000100f
100083dc:	00001008 	.word	0x00001008
100083e0:	2814      	cmp	r0, #20
100083e2:	d952      	bls.n	1000848a <_malloc_r+0x432>
100083e4:	2854      	cmp	r0, #84	; 0x54
100083e6:	d900      	bls.n	100083ea <_malloc_r+0x392>
100083e8:	e096      	b.n	10008518 <_malloc_r+0x4c0>
100083ea:	236e      	movs	r3, #110	; 0x6e
100083ec:	4698      	mov	r8, r3
100083ee:	0b28      	lsrs	r0, r5, #12
100083f0:	4480      	add	r8, r0
100083f2:	306f      	adds	r0, #111	; 0x6f
100083f4:	00c1      	lsls	r1, r0, #3
100083f6:	e678      	b.n	100080ea <_malloc_r+0x92>
100083f8:	2308      	movs	r3, #8
100083fa:	469b      	mov	fp, r3
100083fc:	3b07      	subs	r3, #7
100083fe:	44dc      	add	ip, fp
10008400:	469b      	mov	fp, r3
10008402:	44da      	add	sl, fp
10008404:	4643      	mov	r3, r8
10008406:	4652      	mov	r2, sl
10008408:	4213      	tst	r3, r2
1000840a:	d000      	beq.n	1000840e <_malloc_r+0x3b6>
1000840c:	e6c5      	b.n	1000819a <_malloc_r+0x142>
1000840e:	e04c      	b.n	100084aa <_malloc_r+0x452>
10008410:	2201      	movs	r2, #1
10008412:	18e3      	adds	r3, r4, r3
10008414:	6859      	ldr	r1, [r3, #4]
10008416:	0038      	movs	r0, r7
10008418:	430a      	orrs	r2, r1
1000841a:	605a      	str	r2, [r3, #4]
1000841c:	68e3      	ldr	r3, [r4, #12]
1000841e:	68a2      	ldr	r2, [r4, #8]
10008420:	60d3      	str	r3, [r2, #12]
10008422:	609a      	str	r2, [r3, #8]
10008424:	f000 f8e0 	bl	100085e8 <__malloc_unlock>
10008428:	0020      	movs	r0, r4
1000842a:	3008      	adds	r0, #8
1000842c:	e6e2      	b.n	100081f4 <_malloc_r+0x19c>
1000842e:	002b      	movs	r3, r5
10008430:	08e8      	lsrs	r0, r5, #3
10008432:	3308      	adds	r3, #8
10008434:	e624      	b.n	10008080 <_malloc_r+0x28>
10008436:	2301      	movs	r3, #1
10008438:	1960      	adds	r0, r4, r5
1000843a:	431d      	orrs	r5, r3
1000843c:	6065      	str	r5, [r4, #4]
1000843e:	6170      	str	r0, [r6, #20]
10008440:	6130      	str	r0, [r6, #16]
10008442:	60c2      	str	r2, [r0, #12]
10008444:	6082      	str	r2, [r0, #8]
10008446:	001a      	movs	r2, r3
10008448:	464b      	mov	r3, r9
1000844a:	430a      	orrs	r2, r1
1000844c:	6042      	str	r2, [r0, #4]
1000844e:	0038      	movs	r0, r7
10008450:	50e1      	str	r1, [r4, r3]
10008452:	f000 f8c9 	bl	100085e8 <__malloc_unlock>
10008456:	0020      	movs	r0, r4
10008458:	3008      	adds	r0, #8
1000845a:	e6cb      	b.n	100081f4 <_malloc_r+0x19c>
1000845c:	099a      	lsrs	r2, r3, #6
1000845e:	0011      	movs	r1, r2
10008460:	3239      	adds	r2, #57	; 0x39
10008462:	3138      	adds	r1, #56	; 0x38
10008464:	00d2      	lsls	r2, r2, #3
10008466:	e791      	b.n	1000838c <_malloc_r+0x334>
10008468:	42b4      	cmp	r4, r6
1000846a:	d060      	beq.n	1000852e <_malloc_r+0x4d6>
1000846c:	68b4      	ldr	r4, [r6, #8]
1000846e:	6862      	ldr	r2, [r4, #4]
10008470:	2303      	movs	r3, #3
10008472:	439a      	bics	r2, r3
10008474:	1b53      	subs	r3, r2, r5
10008476:	42aa      	cmp	r2, r5
10008478:	d302      	bcc.n	10008480 <_malloc_r+0x428>
1000847a:	2b0f      	cmp	r3, #15
1000847c:	dd00      	ble.n	10008480 <_malloc_r+0x428>
1000847e:	e76b      	b.n	10008358 <_malloc_r+0x300>
10008480:	0038      	movs	r0, r7
10008482:	f000 f8b1 	bl	100085e8 <__malloc_unlock>
10008486:	2000      	movs	r0, #0
10008488:	e6b4      	b.n	100081f4 <_malloc_r+0x19c>
1000848a:	235b      	movs	r3, #91	; 0x5b
1000848c:	4698      	mov	r8, r3
1000848e:	4480      	add	r8, r0
10008490:	305c      	adds	r0, #92	; 0x5c
10008492:	00c1      	lsls	r1, r0, #3
10008494:	e629      	b.n	100080ea <_malloc_r+0x92>
10008496:	2308      	movs	r3, #8
10008498:	425b      	negs	r3, r3
1000849a:	469c      	mov	ip, r3
1000849c:	44e1      	add	r9, ip
1000849e:	464b      	mov	r3, r9
100084a0:	689b      	ldr	r3, [r3, #8]
100084a2:	3801      	subs	r0, #1
100084a4:	454b      	cmp	r3, r9
100084a6:	d000      	beq.n	100084aa <_malloc_r+0x452>
100084a8:	e097      	b.n	100085da <_malloc_r+0x582>
100084aa:	4643      	mov	r3, r8
100084ac:	4203      	tst	r3, r0
100084ae:	d1f2      	bne.n	10008496 <_malloc_r+0x43e>
100084b0:	6873      	ldr	r3, [r6, #4]
100084b2:	438b      	bics	r3, r1
100084b4:	6073      	str	r3, [r6, #4]
100084b6:	0049      	lsls	r1, r1, #1
100084b8:	4299      	cmp	r1, r3
100084ba:	d900      	bls.n	100084be <_malloc_r+0x466>
100084bc:	e6b8      	b.n	10008230 <_malloc_r+0x1d8>
100084be:	2900      	cmp	r1, #0
100084c0:	d104      	bne.n	100084cc <_malloc_r+0x474>
100084c2:	e6b5      	b.n	10008230 <_malloc_r+0x1d8>
100084c4:	2204      	movs	r2, #4
100084c6:	4694      	mov	ip, r2
100084c8:	0049      	lsls	r1, r1, #1
100084ca:	44e2      	add	sl, ip
100084cc:	420b      	tst	r3, r1
100084ce:	d0f9      	beq.n	100084c4 <_malloc_r+0x46c>
100084d0:	4650      	mov	r0, sl
100084d2:	e65d      	b.n	10008190 <_malloc_r+0x138>
100084d4:	3310      	adds	r3, #16
100084d6:	9300      	str	r3, [sp, #0]
100084d8:	e6c8      	b.n	1000826c <_malloc_r+0x214>
100084da:	1089      	asrs	r1, r1, #2
100084dc:	3b02      	subs	r3, #2
100084de:	408b      	lsls	r3, r1
100084e0:	6871      	ldr	r1, [r6, #4]
100084e2:	430b      	orrs	r3, r1
100084e4:	6073      	str	r3, [r6, #4]
100084e6:	e768      	b.n	100083ba <_malloc_r+0x362>
100084e8:	9b00      	ldr	r3, [sp, #0]
100084ea:	0038      	movs	r0, r7
100084ec:	444b      	add	r3, r9
100084ee:	051b      	lsls	r3, r3, #20
100084f0:	425b      	negs	r3, r3
100084f2:	0d1b      	lsrs	r3, r3, #20
100084f4:	0019      	movs	r1, r3
100084f6:	469b      	mov	fp, r3
100084f8:	f000 f878 	bl	100085ec <_sbrk_r>
100084fc:	1c43      	adds	r3, r0, #1
100084fe:	d000      	beq.n	10008502 <_malloc_r+0x4aa>
10008500:	e6f3      	b.n	100082ea <_malloc_r+0x292>
10008502:	2300      	movs	r3, #0
10008504:	469b      	mov	fp, r3
10008506:	e6f5      	b.n	100082f4 <_malloc_r+0x29c>
10008508:	2a54      	cmp	r2, #84	; 0x54
1000850a:	d82a      	bhi.n	10008562 <_malloc_r+0x50a>
1000850c:	0b1a      	lsrs	r2, r3, #12
1000850e:	0011      	movs	r1, r2
10008510:	326f      	adds	r2, #111	; 0x6f
10008512:	316e      	adds	r1, #110	; 0x6e
10008514:	00d2      	lsls	r2, r2, #3
10008516:	e739      	b.n	1000838c <_malloc_r+0x334>
10008518:	23aa      	movs	r3, #170	; 0xaa
1000851a:	005b      	lsls	r3, r3, #1
1000851c:	4298      	cmp	r0, r3
1000851e:	d82a      	bhi.n	10008576 <_malloc_r+0x51e>
10008520:	3bdd      	subs	r3, #221	; 0xdd
10008522:	4698      	mov	r8, r3
10008524:	0be8      	lsrs	r0, r5, #15
10008526:	4480      	add	r8, r0
10008528:	3078      	adds	r0, #120	; 0x78
1000852a:	00c1      	lsls	r1, r0, #3
1000852c:	e5dd      	b.n	100080ea <_malloc_r+0x92>
1000852e:	4653      	mov	r3, sl
10008530:	685b      	ldr	r3, [r3, #4]
10008532:	9a00      	ldr	r2, [sp, #0]
10008534:	469c      	mov	ip, r3
10008536:	4653      	mov	r3, sl
10008538:	4462      	add	r2, ip
1000853a:	605a      	str	r2, [r3, #4]
1000853c:	e6af      	b.n	1000829e <_malloc_r+0x246>
1000853e:	0509      	lsls	r1, r1, #20
10008540:	d000      	beq.n	10008544 <_malloc_r+0x4ec>
10008542:	e6ac      	b.n	1000829e <_malloc_r+0x246>
10008544:	9a00      	ldr	r2, [sp, #0]
10008546:	68b4      	ldr	r4, [r6, #8]
10008548:	4442      	add	r2, r8
1000854a:	3101      	adds	r1, #1
1000854c:	430a      	orrs	r2, r1
1000854e:	6062      	str	r2, [r4, #4]
10008550:	e6f4      	b.n	1000833c <_malloc_r+0x2e4>
10008552:	465b      	mov	r3, fp
10008554:	464a      	mov	r2, r9
10008556:	601a      	str	r2, [r3, #0]
10008558:	e6ac      	b.n	100082b4 <_malloc_r+0x25c>
1000855a:	464c      	mov	r4, r9
1000855c:	e6ee      	b.n	1000833c <_malloc_r+0x2e4>
1000855e:	6041      	str	r1, [r0, #4]
10008560:	e78e      	b.n	10008480 <_malloc_r+0x428>
10008562:	21aa      	movs	r1, #170	; 0xaa
10008564:	0049      	lsls	r1, r1, #1
10008566:	428a      	cmp	r2, r1
10008568:	d824      	bhi.n	100085b4 <_malloc_r+0x55c>
1000856a:	0bda      	lsrs	r2, r3, #15
1000856c:	0011      	movs	r1, r2
1000856e:	3278      	adds	r2, #120	; 0x78
10008570:	3177      	adds	r1, #119	; 0x77
10008572:	00d2      	lsls	r2, r2, #3
10008574:	e70a      	b.n	1000838c <_malloc_r+0x334>
10008576:	4b1a      	ldr	r3, [pc, #104]	; (100085e0 <_malloc_r+0x588>)
10008578:	4298      	cmp	r0, r3
1000857a:	d824      	bhi.n	100085c6 <_malloc_r+0x56e>
1000857c:	237c      	movs	r3, #124	; 0x7c
1000857e:	4698      	mov	r8, r3
10008580:	0ca8      	lsrs	r0, r5, #18
10008582:	4480      	add	r8, r0
10008584:	307d      	adds	r0, #125	; 0x7d
10008586:	00c1      	lsls	r1, r0, #3
10008588:	e5af      	b.n	100080ea <_malloc_r+0x92>
1000858a:	9a00      	ldr	r2, [sp, #0]
1000858c:	9b01      	ldr	r3, [sp, #4]
1000858e:	4694      	mov	ip, r2
10008590:	464a      	mov	r2, r9
10008592:	3b08      	subs	r3, #8
10008594:	4463      	add	r3, ip
10008596:	1a9b      	subs	r3, r3, r2
10008598:	9300      	str	r3, [sp, #0]
1000859a:	2300      	movs	r3, #0
1000859c:	469b      	mov	fp, r3
1000859e:	e6a9      	b.n	100082f4 <_malloc_r+0x29c>
100085a0:	0021      	movs	r1, r4
100085a2:	0038      	movs	r0, r7
100085a4:	3108      	adds	r1, #8
100085a6:	f7ff fc21 	bl	10007dec <_free_r>
100085aa:	4653      	mov	r3, sl
100085ac:	68b4      	ldr	r4, [r6, #8]
100085ae:	685b      	ldr	r3, [r3, #4]
100085b0:	6862      	ldr	r2, [r4, #4]
100085b2:	e6c3      	b.n	1000833c <_malloc_r+0x2e4>
100085b4:	490a      	ldr	r1, [pc, #40]	; (100085e0 <_malloc_r+0x588>)
100085b6:	428a      	cmp	r2, r1
100085b8:	d80b      	bhi.n	100085d2 <_malloc_r+0x57a>
100085ba:	0c9a      	lsrs	r2, r3, #18
100085bc:	0011      	movs	r1, r2
100085be:	327d      	adds	r2, #125	; 0x7d
100085c0:	317c      	adds	r1, #124	; 0x7c
100085c2:	00d2      	lsls	r2, r2, #3
100085c4:	e6e2      	b.n	1000838c <_malloc_r+0x334>
100085c6:	21fe      	movs	r1, #254	; 0xfe
100085c8:	237e      	movs	r3, #126	; 0x7e
100085ca:	0089      	lsls	r1, r1, #2
100085cc:	207f      	movs	r0, #127	; 0x7f
100085ce:	4698      	mov	r8, r3
100085d0:	e58b      	b.n	100080ea <_malloc_r+0x92>
100085d2:	22fe      	movs	r2, #254	; 0xfe
100085d4:	217e      	movs	r1, #126	; 0x7e
100085d6:	0092      	lsls	r2, r2, #2
100085d8:	e6d8      	b.n	1000838c <_malloc_r+0x334>
100085da:	6873      	ldr	r3, [r6, #4]
100085dc:	e76b      	b.n	100084b6 <_malloc_r+0x45e>
100085de:	46c0      	nop			; (mov r8, r8)
100085e0:	00000554 	.word	0x00000554

100085e4 <__malloc_lock>:
100085e4:	4770      	bx	lr
100085e6:	46c0      	nop			; (mov r8, r8)

100085e8 <__malloc_unlock>:
100085e8:	4770      	bx	lr
100085ea:	46c0      	nop			; (mov r8, r8)

100085ec <_sbrk_r>:
100085ec:	2300      	movs	r3, #0
100085ee:	b570      	push	{r4, r5, r6, lr}
100085f0:	4c06      	ldr	r4, [pc, #24]	; (1000860c <_sbrk_r+0x20>)
100085f2:	0005      	movs	r5, r0
100085f4:	0008      	movs	r0, r1
100085f6:	6023      	str	r3, [r4, #0]
100085f8:	f7f9 fd1e 	bl	10002038 <_sbrk>
100085fc:	1c43      	adds	r3, r0, #1
100085fe:	d000      	beq.n	10008602 <_sbrk_r+0x16>
10008600:	bd70      	pop	{r4, r5, r6, pc}
10008602:	6823      	ldr	r3, [r4, #0]
10008604:	2b00      	cmp	r3, #0
10008606:	d0fb      	beq.n	10008600 <_sbrk_r+0x14>
10008608:	602b      	str	r3, [r5, #0]
1000860a:	e7f9      	b.n	10008600 <_sbrk_r+0x14>
1000860c:	20002114 	.word	0x20002114

10008610 <__sread>:
10008610:	b570      	push	{r4, r5, r6, lr}
10008612:	000c      	movs	r4, r1
10008614:	250e      	movs	r5, #14
10008616:	5f49      	ldrsh	r1, [r1, r5]
10008618:	f000 f910 	bl	1000883c <_read_r>
1000861c:	2800      	cmp	r0, #0
1000861e:	db03      	blt.n	10008628 <__sread+0x18>
10008620:	6d23      	ldr	r3, [r4, #80]	; 0x50
10008622:	181b      	adds	r3, r3, r0
10008624:	6523      	str	r3, [r4, #80]	; 0x50
10008626:	bd70      	pop	{r4, r5, r6, pc}
10008628:	89a3      	ldrh	r3, [r4, #12]
1000862a:	4a02      	ldr	r2, [pc, #8]	; (10008634 <__sread+0x24>)
1000862c:	4013      	ands	r3, r2
1000862e:	81a3      	strh	r3, [r4, #12]
10008630:	e7f9      	b.n	10008626 <__sread+0x16>
10008632:	46c0      	nop			; (mov r8, r8)
10008634:	ffffefff 	.word	0xffffefff

10008638 <__seofread>:
10008638:	2000      	movs	r0, #0
1000863a:	4770      	bx	lr

1000863c <__swrite>:
1000863c:	b5f8      	push	{r3, r4, r5, r6, r7, lr}
1000863e:	0016      	movs	r6, r2
10008640:	001f      	movs	r7, r3
10008642:	220c      	movs	r2, #12
10008644:	5e8b      	ldrsh	r3, [r1, r2]
10008646:	000c      	movs	r4, r1
10008648:	0005      	movs	r5, r0
1000864a:	220e      	movs	r2, #14
1000864c:	5e89      	ldrsh	r1, [r1, r2]
1000864e:	05da      	lsls	r2, r3, #23
10008650:	d408      	bmi.n	10008664 <__swrite+0x28>
10008652:	4a09      	ldr	r2, [pc, #36]	; (10008678 <__swrite+0x3c>)
10008654:	0028      	movs	r0, r5
10008656:	4013      	ands	r3, r2
10008658:	81a3      	strh	r3, [r4, #12]
1000865a:	0032      	movs	r2, r6
1000865c:	003b      	movs	r3, r7
1000865e:	f000 f85d 	bl	1000871c <_write_r>
10008662:	bdf8      	pop	{r3, r4, r5, r6, r7, pc}
10008664:	2200      	movs	r2, #0
10008666:	2302      	movs	r3, #2
10008668:	f000 f8d4 	bl	10008814 <_lseek_r>
1000866c:	220c      	movs	r2, #12
1000866e:	5ea3      	ldrsh	r3, [r4, r2]
10008670:	220e      	movs	r2, #14
10008672:	5ea1      	ldrsh	r1, [r4, r2]
10008674:	e7ed      	b.n	10008652 <__swrite+0x16>
10008676:	46c0      	nop			; (mov r8, r8)
10008678:	ffffefff 	.word	0xffffefff

1000867c <__sseek>:
1000867c:	b570      	push	{r4, r5, r6, lr}
1000867e:	000c      	movs	r4, r1
10008680:	250e      	movs	r5, #14
10008682:	5f49      	ldrsh	r1, [r1, r5]
10008684:	f000 f8c6 	bl	10008814 <_lseek_r>
10008688:	1c43      	adds	r3, r0, #1
1000868a:	d006      	beq.n	1000869a <__sseek+0x1e>
1000868c:	2380      	movs	r3, #128	; 0x80
1000868e:	89a2      	ldrh	r2, [r4, #12]
10008690:	015b      	lsls	r3, r3, #5
10008692:	4313      	orrs	r3, r2
10008694:	81a3      	strh	r3, [r4, #12]
10008696:	6520      	str	r0, [r4, #80]	; 0x50
10008698:	bd70      	pop	{r4, r5, r6, pc}
1000869a:	89a3      	ldrh	r3, [r4, #12]
1000869c:	4a01      	ldr	r2, [pc, #4]	; (100086a4 <__sseek+0x28>)
1000869e:	4013      	ands	r3, r2
100086a0:	81a3      	strh	r3, [r4, #12]
100086a2:	e7f9      	b.n	10008698 <__sseek+0x1c>
100086a4:	ffffefff 	.word	0xffffefff

100086a8 <__sclose>:
100086a8:	b510      	push	{r4, lr}
100086aa:	230e      	movs	r3, #14
100086ac:	5ec9      	ldrsh	r1, [r1, r3]
100086ae:	f000 f849 	bl	10008744 <_close_r>
100086b2:	bd10      	pop	{r4, pc}

100086b4 <strlen>:
100086b4:	b510      	push	{r4, lr}
100086b6:	0783      	lsls	r3, r0, #30
100086b8:	d027      	beq.n	1000870a <strlen+0x56>
100086ba:	7803      	ldrb	r3, [r0, #0]
100086bc:	2b00      	cmp	r3, #0
100086be:	d026      	beq.n	1000870e <strlen+0x5a>
100086c0:	0003      	movs	r3, r0
100086c2:	2103      	movs	r1, #3
100086c4:	e002      	b.n	100086cc <strlen+0x18>
100086c6:	781a      	ldrb	r2, [r3, #0]
100086c8:	2a00      	cmp	r2, #0
100086ca:	d01c      	beq.n	10008706 <strlen+0x52>
100086cc:	3301      	adds	r3, #1
100086ce:	420b      	tst	r3, r1
100086d0:	d1f9      	bne.n	100086c6 <strlen+0x12>
100086d2:	6819      	ldr	r1, [r3, #0]
100086d4:	4a0f      	ldr	r2, [pc, #60]	; (10008714 <strlen+0x60>)
100086d6:	4c10      	ldr	r4, [pc, #64]	; (10008718 <strlen+0x64>)
100086d8:	188a      	adds	r2, r1, r2
100086da:	438a      	bics	r2, r1
100086dc:	4222      	tst	r2, r4
100086de:	d10f      	bne.n	10008700 <strlen+0x4c>
100086e0:	3304      	adds	r3, #4
100086e2:	6819      	ldr	r1, [r3, #0]
100086e4:	4a0b      	ldr	r2, [pc, #44]	; (10008714 <strlen+0x60>)
100086e6:	188a      	adds	r2, r1, r2
100086e8:	438a      	bics	r2, r1
100086ea:	4222      	tst	r2, r4
100086ec:	d108      	bne.n	10008700 <strlen+0x4c>
100086ee:	3304      	adds	r3, #4
100086f0:	6819      	ldr	r1, [r3, #0]
100086f2:	4a08      	ldr	r2, [pc, #32]	; (10008714 <strlen+0x60>)
100086f4:	188a      	adds	r2, r1, r2
100086f6:	438a      	bics	r2, r1
100086f8:	4222      	tst	r2, r4
100086fa:	d0f1      	beq.n	100086e0 <strlen+0x2c>
100086fc:	e000      	b.n	10008700 <strlen+0x4c>
100086fe:	3301      	adds	r3, #1
10008700:	781a      	ldrb	r2, [r3, #0]
10008702:	2a00      	cmp	r2, #0
10008704:	d1fb      	bne.n	100086fe <strlen+0x4a>
10008706:	1a18      	subs	r0, r3, r0
10008708:	bd10      	pop	{r4, pc}
1000870a:	0003      	movs	r3, r0
1000870c:	e7e1      	b.n	100086d2 <strlen+0x1e>
1000870e:	2000      	movs	r0, #0
10008710:	e7fa      	b.n	10008708 <strlen+0x54>
10008712:	46c0      	nop			; (mov r8, r8)
10008714:	fefefeff 	.word	0xfefefeff
10008718:	80808080 	.word	0x80808080

1000871c <_write_r>:
1000871c:	b570      	push	{r4, r5, r6, lr}
1000871e:	0005      	movs	r5, r0
10008720:	0008      	movs	r0, r1
10008722:	0011      	movs	r1, r2
10008724:	2200      	movs	r2, #0
10008726:	4c06      	ldr	r4, [pc, #24]	; (10008740 <_write_r+0x24>)
10008728:	6022      	str	r2, [r4, #0]
1000872a:	001a      	movs	r2, r3
1000872c:	f7fc f836 	bl	1000479c <_write>
10008730:	1c43      	adds	r3, r0, #1
10008732:	d000      	beq.n	10008736 <_write_r+0x1a>
10008734:	bd70      	pop	{r4, r5, r6, pc}
10008736:	6823      	ldr	r3, [r4, #0]
10008738:	2b00      	cmp	r3, #0
1000873a:	d0fb      	beq.n	10008734 <_write_r+0x18>
1000873c:	602b      	str	r3, [r5, #0]
1000873e:	e7f9      	b.n	10008734 <_write_r+0x18>
10008740:	20002114 	.word	0x20002114

10008744 <_close_r>:
10008744:	2300      	movs	r3, #0
10008746:	b570      	push	{r4, r5, r6, lr}
10008748:	4c06      	ldr	r4, [pc, #24]	; (10008764 <_close_r+0x20>)
1000874a:	0005      	movs	r5, r0
1000874c:	0008      	movs	r0, r1
1000874e:	6023      	str	r3, [r4, #0]
10008750:	f000 f888 	bl	10008864 <_close>
10008754:	1c43      	adds	r3, r0, #1
10008756:	d000      	beq.n	1000875a <_close_r+0x16>
10008758:	bd70      	pop	{r4, r5, r6, pc}
1000875a:	6823      	ldr	r3, [r4, #0]
1000875c:	2b00      	cmp	r3, #0
1000875e:	d0fb      	beq.n	10008758 <_close_r+0x14>
10008760:	602b      	str	r3, [r5, #0]
10008762:	e7f9      	b.n	10008758 <_close_r+0x14>
10008764:	20002114 	.word	0x20002114

10008768 <_fclose_r>:
10008768:	b570      	push	{r4, r5, r6, lr}
1000876a:	0005      	movs	r5, r0
1000876c:	1e0c      	subs	r4, r1, #0
1000876e:	d008      	beq.n	10008782 <_fclose_r+0x1a>
10008770:	2800      	cmp	r0, #0
10008772:	d002      	beq.n	1000877a <_fclose_r+0x12>
10008774:	6b83      	ldr	r3, [r0, #56]	; 0x38
10008776:	2b00      	cmp	r3, #0
10008778:	d031      	beq.n	100087de <_fclose_r+0x76>
1000877a:	220c      	movs	r2, #12
1000877c:	5ea3      	ldrsh	r3, [r4, r2]
1000877e:	2b00      	cmp	r3, #0
10008780:	d102      	bne.n	10008788 <_fclose_r+0x20>
10008782:	2600      	movs	r6, #0
10008784:	0030      	movs	r0, r6
10008786:	bd70      	pop	{r4, r5, r6, pc}
10008788:	0021      	movs	r1, r4
1000878a:	0028      	movs	r0, r5
1000878c:	f7ff f8f4 	bl	10007978 <__sflush_r>
10008790:	6ae3      	ldr	r3, [r4, #44]	; 0x2c
10008792:	0006      	movs	r6, r0
10008794:	2b00      	cmp	r3, #0
10008796:	d004      	beq.n	100087a2 <_fclose_r+0x3a>
10008798:	69e1      	ldr	r1, [r4, #28]
1000879a:	0028      	movs	r0, r5
1000879c:	4798      	blx	r3
1000879e:	2800      	cmp	r0, #0
100087a0:	db24      	blt.n	100087ec <_fclose_r+0x84>
100087a2:	89a3      	ldrh	r3, [r4, #12]
100087a4:	061b      	lsls	r3, r3, #24
100087a6:	d426      	bmi.n	100087f6 <_fclose_r+0x8e>
100087a8:	6b21      	ldr	r1, [r4, #48]	; 0x30
100087aa:	2900      	cmp	r1, #0
100087ac:	d008      	beq.n	100087c0 <_fclose_r+0x58>
100087ae:	0023      	movs	r3, r4
100087b0:	3340      	adds	r3, #64	; 0x40
100087b2:	4299      	cmp	r1, r3
100087b4:	d002      	beq.n	100087bc <_fclose_r+0x54>
100087b6:	0028      	movs	r0, r5
100087b8:	f7ff fb18 	bl	10007dec <_free_r>
100087bc:	2300      	movs	r3, #0
100087be:	6323      	str	r3, [r4, #48]	; 0x30
100087c0:	6c61      	ldr	r1, [r4, #68]	; 0x44
100087c2:	2900      	cmp	r1, #0
100087c4:	d004      	beq.n	100087d0 <_fclose_r+0x68>
100087c6:	0028      	movs	r0, r5
100087c8:	f7ff fb10 	bl	10007dec <_free_r>
100087cc:	2300      	movs	r3, #0
100087ce:	6463      	str	r3, [r4, #68]	; 0x44
100087d0:	f7ff fa9c 	bl	10007d0c <__sfp_lock_acquire>
100087d4:	2300      	movs	r3, #0
100087d6:	81a3      	strh	r3, [r4, #12]
100087d8:	f7ff fa9a 	bl	10007d10 <__sfp_lock_release>
100087dc:	e7d2      	b.n	10008784 <_fclose_r+0x1c>
100087de:	f7ff fa8d 	bl	10007cfc <__sinit>
100087e2:	220c      	movs	r2, #12
100087e4:	5ea3      	ldrsh	r3, [r4, r2]
100087e6:	2b00      	cmp	r3, #0
100087e8:	d0cb      	beq.n	10008782 <_fclose_r+0x1a>
100087ea:	e7cd      	b.n	10008788 <_fclose_r+0x20>
100087ec:	2601      	movs	r6, #1
100087ee:	89a3      	ldrh	r3, [r4, #12]
100087f0:	4276      	negs	r6, r6
100087f2:	061b      	lsls	r3, r3, #24
100087f4:	d5d8      	bpl.n	100087a8 <_fclose_r+0x40>
100087f6:	6921      	ldr	r1, [r4, #16]
100087f8:	0028      	movs	r0, r5
100087fa:	f7ff faf7 	bl	10007dec <_free_r>
100087fe:	e7d3      	b.n	100087a8 <_fclose_r+0x40>

10008800 <fclose>:
10008800:	b510      	push	{r4, lr}
10008802:	4b03      	ldr	r3, [pc, #12]	; (10008810 <fclose+0x10>)
10008804:	0001      	movs	r1, r0
10008806:	6818      	ldr	r0, [r3, #0]
10008808:	f7ff ffae 	bl	10008768 <_fclose_r>
1000880c:	bd10      	pop	{r4, pc}
1000880e:	46c0      	nop			; (mov r8, r8)
10008810:	200003a0 	.word	0x200003a0

10008814 <_lseek_r>:
10008814:	b570      	push	{r4, r5, r6, lr}
10008816:	0005      	movs	r5, r0
10008818:	0008      	movs	r0, r1
1000881a:	0011      	movs	r1, r2
1000881c:	2200      	movs	r2, #0
1000881e:	4c06      	ldr	r4, [pc, #24]	; (10008838 <_lseek_r+0x24>)
10008820:	6022      	str	r2, [r4, #0]
10008822:	001a      	movs	r2, r3
10008824:	f000 f826 	bl	10008874 <_lseek>
10008828:	1c43      	adds	r3, r0, #1
1000882a:	d000      	beq.n	1000882e <_lseek_r+0x1a>
1000882c:	bd70      	pop	{r4, r5, r6, pc}
1000882e:	6823      	ldr	r3, [r4, #0]
10008830:	2b00      	cmp	r3, #0
10008832:	d0fb      	beq.n	1000882c <_lseek_r+0x18>
10008834:	602b      	str	r3, [r5, #0]
10008836:	e7f9      	b.n	1000882c <_lseek_r+0x18>
10008838:	20002114 	.word	0x20002114

1000883c <_read_r>:
1000883c:	b570      	push	{r4, r5, r6, lr}
1000883e:	0005      	movs	r5, r0
10008840:	0008      	movs	r0, r1
10008842:	0011      	movs	r1, r2
10008844:	2200      	movs	r2, #0
10008846:	4c06      	ldr	r4, [pc, #24]	; (10008860 <_read_r+0x24>)
10008848:	6022      	str	r2, [r4, #0]
1000884a:	001a      	movs	r2, r3
1000884c:	f7fb ff94 	bl	10004778 <_read>
10008850:	1c43      	adds	r3, r0, #1
10008852:	d000      	beq.n	10008856 <_read_r+0x1a>
10008854:	bd70      	pop	{r4, r5, r6, pc}
10008856:	6823      	ldr	r3, [r4, #0]
10008858:	2b00      	cmp	r3, #0
1000885a:	d0fb      	beq.n	10008854 <_read_r+0x18>
1000885c:	602b      	str	r3, [r5, #0]
1000885e:	e7f9      	b.n	10008854 <_read_r+0x18>
10008860:	20002114 	.word	0x20002114

10008864 <_close>:
10008864:	2258      	movs	r2, #88	; 0x58
10008866:	2001      	movs	r0, #1
10008868:	4b01      	ldr	r3, [pc, #4]	; (10008870 <_close+0xc>)
1000886a:	4240      	negs	r0, r0
1000886c:	601a      	str	r2, [r3, #0]
1000886e:	4770      	bx	lr
10008870:	20002114 	.word	0x20002114

10008874 <_lseek>:
10008874:	2258      	movs	r2, #88	; 0x58
10008876:	2001      	movs	r0, #1
10008878:	4b01      	ldr	r3, [pc, #4]	; (10008880 <_lseek+0xc>)
1000887a:	4240      	negs	r0, r0
1000887c:	601a      	str	r2, [r3, #0]
1000887e:	4770      	bx	lr
10008880:	20002114 	.word	0x20002114

10008884 <_fini>:
10008884:	b5f8      	push	{r3, r4, r5, r6, r7, lr}
10008886:	46c0      	nop			; (mov r8, r8)

10008888 <__mutex_exit_veneer>:
10008888:	b401      	push	{r0}
1000888a:	4802      	ldr	r0, [pc, #8]	; (10008894 <__mutex_exit_veneer+0xc>)
1000888c:	4684      	mov	ip, r0
1000888e:	bc01      	pop	{r0}
10008890:	4760      	bx	ip
10008892:	bf00      	nop
10008894:	20000239 	.word	0x20000239

10008898 <____aeabi_ldiv0_veneer>:
10008898:	b401      	push	{r0}
1000889a:	4802      	ldr	r0, [pc, #8]	; (100088a4 <____aeabi_ldiv0_veneer+0xc>)
1000889c:	4684      	mov	ip, r0
1000889e:	bc01      	pop	{r0}
100088a0:	4760      	bx	ip
100088a2:	bf00      	nop
100088a4:	20000285 	.word	0x20000285

100088a8 <____aeabi_idiv0_veneer>:
100088a8:	b401      	push	{r0}
100088aa:	4802      	ldr	r0, [pc, #8]	; (100088b4 <____aeabi_idiv0_veneer+0xc>)
100088ac:	4684      	mov	ip, r0
100088ae:	bc01      	pop	{r0}
100088b0:	4760      	bx	ip
100088b2:	bf00      	nop
100088b4:	20000285 	.word	0x20000285

100088b8 <__mutex_try_enter_veneer>:
100088b8:	b401      	push	{r0}
100088ba:	4802      	ldr	r0, [pc, #8]	; (100088c4 <__mutex_try_enter_veneer+0xc>)
100088bc:	4684      	mov	ip, r0
100088be:	bc01      	pop	{r0}
100088c0:	4760      	bx	ip
100088c2:	bf00      	nop
100088c4:	20000109 	.word	0x20000109

100088c8 <__mutex_enter_timeout_ms_veneer>:
100088c8:	b401      	push	{r0}
100088ca:	4802      	ldr	r0, [pc, #8]	; (100088d4 <__mutex_enter_timeout_ms_veneer+0xc>)
100088cc:	4684      	mov	ip, r0
100088ce:	bc01      	pop	{r0}
100088d0:	4760      	bx	ip
100088d2:	bf00      	nop
100088d4:	200001cd 	.word	0x200001cd

100088d8 <__mutex_enter_blocking_veneer>:
100088d8:	b401      	push	{r0}
100088da:	4802      	ldr	r0, [pc, #8]	; (100088e4 <__mutex_enter_blocking_veneer+0xc>)
100088dc:	4684      	mov	ip, r0
100088de:	bc01      	pop	{r0}
100088e0:	4760      	bx	ip
100088e2:	bf00      	nop
100088e4:	200000c1 	.word	0x200000c1

Disassembly of section .data:

200000c0 <mutex_enter_blocking>:
200000c0:	b510      	push	{r4, lr}
200000c2:	23d0      	movs	r3, #208	; 0xd0
200000c4:	061b      	lsls	r3, r3, #24
200000c6:	2400      	movs	r4, #0
200000c8:	571c      	ldrsb	r4, [r3, r4]
200000ca:	6802      	ldr	r2, [r0, #0]
200000cc:	f3ef 8110 	mrs	r1, PRIMASK
200000d0:	b672      	cpsid	i
200000d2:	6813      	ldr	r3, [r2, #0]
200000d4:	2b00      	cmp	r3, #0
200000d6:	d0fc      	beq.n	200000d2 <mutex_enter_blocking+0x12>
200000d8:	f3bf 8f5f 	dmb	sy
200000dc:	2304      	movs	r3, #4
200000de:	56c3      	ldrsb	r3, [r0, r3]
200000e0:	2b00      	cmp	r3, #0
200000e2:	db08      	blt.n	200000f6 <mutex_enter_blocking+0x36>
200000e4:	6803      	ldr	r3, [r0, #0]
200000e6:	f3bf 8f5f 	dmb	sy
200000ea:	2200      	movs	r2, #0
200000ec:	601a      	str	r2, [r3, #0]
200000ee:	f381 8810 	msr	PRIMASK, r1
200000f2:	bf20      	wfe
200000f4:	e7e9      	b.n	200000ca <mutex_enter_blocking+0xa>
200000f6:	7104      	strb	r4, [r0, #4]
200000f8:	6803      	ldr	r3, [r0, #0]
200000fa:	f3bf 8f5f 	dmb	sy
200000fe:	2200      	movs	r2, #0
20000100:	601a      	str	r2, [r3, #0]
20000102:	f381 8810 	msr	PRIMASK, r1
20000106:	bd10      	pop	{r4, pc}

20000108 <mutex_try_enter>:
20000108:	b510      	push	{r4, lr}
2000010a:	6802      	ldr	r2, [r0, #0]
2000010c:	f3ef 8410 	mrs	r4, PRIMASK
20000110:	b672      	cpsid	i
20000112:	6813      	ldr	r3, [r2, #0]
20000114:	2b00      	cmp	r3, #0
20000116:	d0fc      	beq.n	20000112 <mutex_try_enter+0xa>
20000118:	f3bf 8f5f 	dmb	sy
2000011c:	2304      	movs	r3, #4
2000011e:	56c3      	ldrsb	r3, [r0, r3]
20000120:	2b00      	cmp	r3, #0
20000122:	db0c      	blt.n	2000013e <mutex_try_enter+0x36>
20000124:	2900      	cmp	r1, #0
20000126:	d011      	beq.n	2000014c <mutex_try_enter+0x44>
20000128:	600b      	str	r3, [r1, #0]
2000012a:	2100      	movs	r1, #0
2000012c:	6803      	ldr	r3, [r0, #0]
2000012e:	f3bf 8f5f 	dmb	sy
20000132:	2200      	movs	r2, #0
20000134:	601a      	str	r2, [r3, #0]
20000136:	f384 8810 	msr	PRIMASK, r4
2000013a:	0008      	movs	r0, r1
2000013c:	bd10      	pop	{r4, pc}
2000013e:	23d0      	movs	r3, #208	; 0xd0
20000140:	061b      	lsls	r3, r3, #24
20000142:	781b      	ldrb	r3, [r3, #0]
20000144:	b25b      	sxtb	r3, r3
20000146:	7103      	strb	r3, [r0, #4]
20000148:	2101      	movs	r1, #1
2000014a:	e7ef      	b.n	2000012c <mutex_try_enter+0x24>
2000014c:	2100      	movs	r1, #0
2000014e:	e7ed      	b.n	2000012c <mutex_try_enter+0x24>

20000150 <mutex_enter_block_until>:
20000150:	b5f8      	push	{r3, r4, r5, r6, r7, lr}
20000152:	0004      	movs	r4, r0
20000154:	0016      	movs	r6, r2
20000156:	001f      	movs	r7, r3
20000158:	6803      	ldr	r3, [r0, #0]
2000015a:	2b00      	cmp	r3, #0
2000015c:	d01f      	beq.n	2000019e <mutex_enter_block_until+0x4e>
2000015e:	23d0      	movs	r3, #208	; 0xd0
20000160:	061b      	lsls	r3, r3, #24
20000162:	2500      	movs	r5, #0
20000164:	575d      	ldrsb	r5, [r3, r5]
20000166:	6822      	ldr	r2, [r4, #0]
20000168:	f3ef 8110 	mrs	r1, PRIMASK
2000016c:	b672      	cpsid	i
2000016e:	6813      	ldr	r3, [r2, #0]
20000170:	2b00      	cmp	r3, #0
20000172:	d0fc      	beq.n	2000016e <mutex_enter_block_until+0x1e>
20000174:	f3bf 8f5f 	dmb	sy
20000178:	2304      	movs	r3, #4
2000017a:	56e3      	ldrsb	r3, [r4, r3]
2000017c:	2b00      	cmp	r3, #0
2000017e:	db14      	blt.n	200001aa <mutex_enter_block_until+0x5a>
20000180:	6823      	ldr	r3, [r4, #0]
20000182:	f3bf 8f5f 	dmb	sy
20000186:	2200      	movs	r2, #0
20000188:	601a      	str	r2, [r3, #0]
2000018a:	f381 8810 	msr	PRIMASK, r1
2000018e:	0030      	movs	r0, r6
20000190:	0039      	movs	r1, r7
20000192:	f000 f889 	bl	200002a8 <__best_effort_wfe_or_timeout_veneer>
20000196:	2800      	cmp	r0, #0
20000198:	d0e5      	beq.n	20000166 <mutex_enter_block_until+0x16>
2000019a:	2000      	movs	r0, #0
2000019c:	e00e      	b.n	200001bc <mutex_enter_block_until+0x6c>
2000019e:	4b08      	ldr	r3, [pc, #32]	; (200001c0 <mutex_enter_block_until+0x70>)
200001a0:	4a08      	ldr	r2, [pc, #32]	; (200001c4 <mutex_enter_block_until+0x74>)
200001a2:	217a      	movs	r1, #122	; 0x7a
200001a4:	4808      	ldr	r0, [pc, #32]	; (200001c8 <mutex_enter_block_until+0x78>)
200001a6:	f000 f86f 	bl	20000288 <____assert_func_veneer>
200001aa:	7125      	strb	r5, [r4, #4]
200001ac:	6823      	ldr	r3, [r4, #0]
200001ae:	f3bf 8f5f 	dmb	sy
200001b2:	2200      	movs	r2, #0
200001b4:	601a      	str	r2, [r3, #0]
200001b6:	f381 8810 	msr	PRIMASK, r1
200001ba:	2001      	movs	r0, #1
200001bc:	bdf8      	pop	{r3, r4, r5, r6, r7, pc}
200001be:	46c0      	nop			; (mov r8, r8)
200001c0:	10009564 	.word	0x10009564
200001c4:	100094f4 	.word	0x100094f4
200001c8:	10009520 	.word	0x10009520

200001cc <mutex_enter_timeout_ms>:
200001cc:	b5f0      	push	{r4, r5, r6, r7, lr}
200001ce:	b083      	sub	sp, #12
200001d0:	9000      	str	r0, [sp, #0]
200001d2:	9101      	str	r1, [sp, #4]
200001d4:	f000 f860 	bl	20000298 <__time_us_64_veneer>
200001d8:	0004      	movs	r4, r0
200001da:	1e0d      	subs	r5, r1, #0
200001dc:	db19      	blt.n	20000212 <mutex_enter_timeout_ms+0x46>
200001de:	22fa      	movs	r2, #250	; 0xfa
200001e0:	0092      	lsls	r2, r2, #2
200001e2:	2300      	movs	r3, #0
200001e4:	9801      	ldr	r0, [sp, #4]
200001e6:	2100      	movs	r1, #0
200001e8:	f000 f866 	bl	200002b8 <____wrap___aeabi_lmul_veneer>
200001ec:	0022      	movs	r2, r4
200001ee:	002b      	movs	r3, r5
200001f0:	1812      	adds	r2, r2, r0
200001f2:	414b      	adcs	r3, r1
200001f4:	429d      	cmp	r5, r3
200001f6:	d802      	bhi.n	200001fe <mutex_enter_timeout_ms+0x32>
200001f8:	d104      	bne.n	20000204 <mutex_enter_timeout_ms+0x38>
200001fa:	4294      	cmp	r4, r2
200001fc:	d902      	bls.n	20000204 <mutex_enter_timeout_ms+0x38>
200001fe:	2201      	movs	r2, #1
20000200:	4252      	negs	r2, r2
20000202:	17d3      	asrs	r3, r2, #31
20000204:	2b00      	cmp	r3, #0
20000206:	db0a      	blt.n	2000021e <mutex_enter_timeout_ms+0x52>
20000208:	9800      	ldr	r0, [sp, #0]
2000020a:	f7ff ffa1 	bl	20000150 <mutex_enter_block_until>
2000020e:	b003      	add	sp, #12
20000210:	bdf0      	pop	{r4, r5, r6, r7, pc}
20000212:	4b06      	ldr	r3, [pc, #24]	; (2000022c <mutex_enter_timeout_ms+0x60>)
20000214:	4a06      	ldr	r2, [pc, #24]	; (20000230 <mutex_enter_timeout_ms+0x64>)
20000216:	213f      	movs	r1, #63	; 0x3f
20000218:	4806      	ldr	r0, [pc, #24]	; (20000234 <mutex_enter_timeout_ms+0x68>)
2000021a:	f000 f835 	bl	20000288 <____assert_func_veneer>
2000021e:	4b03      	ldr	r3, [pc, #12]	; (2000022c <mutex_enter_timeout_ms+0x60>)
20000220:	4a03      	ldr	r2, [pc, #12]	; (20000230 <mutex_enter_timeout_ms+0x64>)
20000222:	213f      	movs	r1, #63	; 0x3f
20000224:	4803      	ldr	r0, [pc, #12]	; (20000234 <mutex_enter_timeout_ms+0x68>)
20000226:	f000 f82f 	bl	20000288 <____assert_func_veneer>
2000022a:	46c0      	nop			; (mov r8, r8)
2000022c:	10008b84 	.word	0x10008b84
20000230:	100094dc 	.word	0x100094dc
20000234:	10008ba0 	.word	0x10008ba0

20000238 <mutex_exit>:
20000238:	b510      	push	{r4, lr}
2000023a:	6802      	ldr	r2, [r0, #0]
2000023c:	f3ef 8110 	mrs	r1, PRIMASK
20000240:	b672      	cpsid	i
20000242:	6813      	ldr	r3, [r2, #0]
20000244:	2b00      	cmp	r3, #0
20000246:	d0fc      	beq.n	20000242 <mutex_exit+0xa>
20000248:	f3bf 8f5f 	dmb	sy
2000024c:	2304      	movs	r3, #4
2000024e:	56c3      	ldrsb	r3, [r0, r3]
20000250:	2b00      	cmp	r3, #0
20000252:	db0a      	blt.n	2000026a <mutex_exit+0x32>
20000254:	23ff      	movs	r3, #255	; 0xff
20000256:	7103      	strb	r3, [r0, #4]
20000258:	6803      	ldr	r3, [r0, #0]
2000025a:	f3bf 8f5f 	dmb	sy
2000025e:	2200      	movs	r2, #0
20000260:	601a      	str	r2, [r3, #0]
20000262:	f381 8810 	msr	PRIMASK, r1
20000266:	bf40      	sev
20000268:	bd10      	pop	{r4, pc}
2000026a:	4b03      	ldr	r3, [pc, #12]	; (20000278 <mutex_exit+0x40>)
2000026c:	4a03      	ldr	r2, [pc, #12]	; (2000027c <mutex_exit+0x44>)
2000026e:	21a9      	movs	r1, #169	; 0xa9
20000270:	4803      	ldr	r0, [pc, #12]	; (20000280 <mutex_exit+0x48>)
20000272:	f000 f809 	bl	20000288 <____assert_func_veneer>
20000276:	46c0      	nop			; (mov r8, r8)
20000278:	10009578 	.word	0x10009578
2000027c:	1000950c 	.word	0x1000950c
20000280:	10009520 	.word	0x10009520

20000284 <__aeabi_idiv0>:
20000284:	4770      	bx	lr
20000286:	46c0      	nop			; (mov r8, r8)

20000288 <____assert_func_veneer>:
20000288:	b401      	push	{r0}
2000028a:	4802      	ldr	r0, [pc, #8]	; (20000294 <____assert_func_veneer+0xc>)
2000028c:	4684      	mov	ip, r0
2000028e:	bc01      	pop	{r0}
20000290:	4760      	bx	ip
20000292:	bf00      	nop
20000294:	10002079 	.word	0x10002079

20000298 <__time_us_64_veneer>:
20000298:	b401      	push	{r0}
2000029a:	4802      	ldr	r0, [pc, #8]	; (200002a4 <__time_us_64_veneer+0xc>)
2000029c:	4684      	mov	ip, r0
2000029e:	bc01      	pop	{r0}
200002a0:	4760      	bx	ip
200002a2:	bf00      	nop
200002a4:	10001871 	.word	0x10001871

200002a8 <__best_effort_wfe_or_timeout_veneer>:
200002a8:	b401      	push	{r0}
200002aa:	4802      	ldr	r0, [pc, #8]	; (200002b4 <__best_effort_wfe_or_timeout_veneer+0xc>)
200002ac:	4684      	mov	ip, r0
200002ae:	bc01      	pop	{r0}
200002b0:	4760      	bx	ip
200002b2:	bf00      	nop
200002b4:	1000174d 	.word	0x1000174d

200002b8 <____wrap___aeabi_lmul_veneer>:
200002b8:	b401      	push	{r0}
200002ba:	4802      	ldr	r0, [pc, #8]	; (200002c4 <____wrap___aeabi_lmul_veneer+0xc>)
200002bc:	4684      	mov	ip, r0
200002be:	bc01      	pop	{r0}
200002c0:	4760      	bx	ip
200002c2:	bf00      	nop
200002c4:	1000438d 	.word	0x1000438d

200002c8 <striped_spin_lock_num>:
200002c8:	00000010                                ....

200002cc <irq_handler_chain_slots>:
200002cc:	00000000 	.word	0x00000000
200002d0:	00010000 	.word	0x00010000
	...
200002dc:	00020000 	.word	0x00020000
	...
200002e8:	00030000 	.word	0x00030000
	...
200002f4:	00ff0000 	.word	0x00ff0000
200002f8:	00000000 	.word	0x00000000

200002fc <irq_handler_chain_first_slot>:
200002fc:	b500      	push	{lr}
200002fe:	6848      	ldr	r0, [r1, #4]
20000300:	3101      	adds	r1, #1
20000302:	468e      	mov	lr, r1
20000304:	4700      	bx	r0

20000306 <irq_handler_chain_remove_tail>:
20000306:	4670      	mov	r0, lr
20000308:	3809      	subs	r0, #9
2000030a:	4901      	ldr	r1, [pc, #4]	; (20000310 <irq_handler_chain_remove_tail+0xa>)
2000030c:	4788      	blx	r1
2000030e:	bd00      	pop	{pc}
20000310:	10000bb5 	.word	0x10000bb5

20000314 <default_alarm_pool>:
20000314:	2000032c 00000000 20000c00 2000193c     ,.. ....... <.. 
	...

2000032c <default_alarm_pool_heap>:
2000032c:	2000194c 00000000 00000000 00000010     L.. ............
2000033c:	00000000                                ....

20000340 <aeabi_bits_funcs>:
20000340:	00003350 	.word	0x00003350
20000344:	0000334c 	.word	0x0000334c
20000348:	00003354 	.word	0x00003354
2000034c:	00003352 	.word	0x00003352

20000350 <aeabi_bits_funcs_end>:
20000350:	0000534d 	.word	0x0000534d
20000354:	0000434d 	.word	0x0000434d
20000358:	00003453 	.word	0x00003453
2000035c:	00003443 	.word	0x00003443

20000360 <stdio_uart>:
20000360:	10004889 00000000 100048fd 00000000     .H.......H......
20000370:	00000100                                ....

20000374 <ep_dir_string>:
20000374:	10009f44 10009f48                       D...H...

2000037c <_usbh_qdef>:
2000037c:	20001ec4 000c0010 ffe00000 0000001f     ... ............
	...

200003a0 <_impure_ptr>:
200003a0:	200003a8 00000000                       ... ....

200003a8 <impure_data>:
200003a8:	00000000 20000694 200006fc 20000764     ....... ... d.. 
	...
20000450:	00000001 00000000 abcd330e e66d1234     .........3..4.m.
20000460:	0005deec 0000000b 00000000 00000000     ................
	...

200007d0 <__malloc_sbrk_base>:
200007d0:	ffffffff                                ....

200007d4 <__malloc_trim_threshold>:
200007d4:	00020000                                ....

200007d8 <__malloc_av_>:
	...
200007e0:	200007d8 200007d8 200007e0 200007e0     ... ... ... ... 
200007f0:	200007e8 200007e8 200007f0 200007f0     ... ... ... ... 
20000800:	200007f8 200007f8 20000800 20000800     ... ... ... ... 
20000810:	20000808 20000808 20000810 20000810     ... ... ... ... 
20000820:	20000818 20000818 20000820 20000820     ... ...  ..  .. 
20000830:	20000828 20000828 20000830 20000830     (.. (.. 0.. 0.. 
20000840:	20000838 20000838 20000840 20000840     8.. 8.. @.. @.. 
20000850:	20000848 20000848 20000850 20000850     H.. H.. P.. P.. 
20000860:	20000858 20000858 20000860 20000860     X.. X.. `.. `.. 
20000870:	20000868 20000868 20000870 20000870     h.. h.. p.. p.. 
20000880:	20000878 20000878 20000880 20000880     x.. x.. ... ... 
20000890:	20000888 20000888 20000890 20000890     ... ... ... ... 
200008a0:	20000898 20000898 200008a0 200008a0     ... ... ... ... 
200008b0:	200008a8 200008a8 200008b0 200008b0     ... ... ... ... 
200008c0:	200008b8 200008b8 200008c0 200008c0     ... ... ... ... 
200008d0:	200008c8 200008c8 200008d0 200008d0     ... ... ... ... 
200008e0:	200008d8 200008d8 200008e0 200008e0     ... ... ... ... 
200008f0:	200008e8 200008e8 200008f0 200008f0     ... ... ... ... 
20000900:	200008f8 200008f8 20000900 20000900     ... ... ... ... 
20000910:	20000908 20000908 20000910 20000910     ... ... ... ... 
20000920:	20000918 20000918 20000920 20000920     ... ...  ..  .. 
20000930:	20000928 20000928 20000930 20000930     (.. (.. 0.. 0.. 
20000940:	20000938 20000938 20000940 20000940     8.. 8.. @.. @.. 
20000950:	20000948 20000948 20000950 20000950     H.. H.. P.. P.. 
20000960:	20000958 20000958 20000960 20000960     X.. X.. `.. `.. 
20000970:	20000968 20000968 20000970 20000970     h.. h.. p.. p.. 
20000980:	20000978 20000978 20000980 20000980     x.. x.. ... ... 
20000990:	20000988 20000988 20000990 20000990     ... ... ... ... 
200009a0:	20000998 20000998 200009a0 200009a0     ... ... ... ... 
200009b0:	200009a8 200009a8 200009b0 200009b0     ... ... ... ... 
200009c0:	200009b8 200009b8 200009c0 200009c0     ... ... ... ... 
200009d0:	200009c8 200009c8 200009d0 200009d0     ... ... ... ... 
200009e0:	200009d8 200009d8 200009e0 200009e0     ... ... ... ... 
200009f0:	200009e8 200009e8 200009f0 200009f0     ... ... ... ... 
20000a00:	200009f8 200009f8 20000a00 20000a00     ... ... ... ... 
20000a10:	20000a08 20000a08 20000a10 20000a10     ... ... ... ... 
20000a20:	20000a18 20000a18 20000a20 20000a20     ... ...  ..  .. 
20000a30:	20000a28 20000a28 20000a30 20000a30     (.. (.. 0.. 0.. 
20000a40:	20000a38 20000a38 20000a40 20000a40     8.. 8.. @.. @.. 
20000a50:	20000a48 20000a48 20000a50 20000a50     H.. H.. P.. P.. 
20000a60:	20000a58 20000a58 20000a60 20000a60     X.. X.. `.. `.. 
20000a70:	20000a68 20000a68 20000a70 20000a70     h.. h.. p.. p.. 
20000a80:	20000a78 20000a78 20000a80 20000a80     x.. x.. ... ... 
20000a90:	20000a88 20000a88 20000a90 20000a90     ... ... ... ... 
20000aa0:	20000a98 20000a98 20000aa0 20000aa0     ... ... ... ... 
20000ab0:	20000aa8 20000aa8 20000ab0 20000ab0     ... ... ... ... 
20000ac0:	20000ab8 20000ab8 20000ac0 20000ac0     ... ... ... ... 
20000ad0:	20000ac8 20000ac8 20000ad0 20000ad0     ... ... ... ... 
20000ae0:	20000ad8 20000ad8 20000ae0 20000ae0     ... ... ... ... 
20000af0:	20000ae8 20000ae8 20000af0 20000af0     ... ... ... ... 
20000b00:	20000af8 20000af8 20000b00 20000b00     ... ... ... ... 
20000b10:	20000b08 20000b08 20000b10 20000b10     ... ... ... ... 
20000b20:	20000b18 20000b18 20000b20 20000b20     ... ...  ..  .. 
20000b30:	20000b28 20000b28 20000b30 20000b30     (.. (.. 0.. 0.. 
20000b40:	20000b38 20000b38 20000b40 20000b40     8.. 8.. @.. @.. 
20000b50:	20000b48 20000b48 20000b50 20000b50     H.. H.. P.. P.. 
20000b60:	20000b58 20000b58 20000b60 20000b60     X.. X.. `.. `.. 
20000b70:	20000b68 20000b68 20000b70 20000b70     h.. h.. p.. p.. 
20000b80:	20000b78 20000b78 20000b80 20000b80     x.. x.. ... ... 
20000b90:	20000b88 20000b88 20000b90 20000b90     ... ... ... ... 
20000ba0:	20000b98 20000b98 20000ba0 20000ba0     ... ... ... ... 
20000bb0:	20000ba8 20000ba8 20000bb0 20000bb0     ... ... ... ... 
20000bc0:	20000bb8 20000bb8 20000bc0 20000bc0     ... ... ... ... 
20000bd0:	20000bc8 20000bc8 20000bd0 20000bd0     ... ... ... ... 

20000be0 <print_mutex>:
	...

20000be8 <__mutex_array_end>:
20000be8:	100044f1 	.word	0x100044f1
20000bec:	1000364d 	.word	0x1000364d
20000bf0:	10003d5d 	.word	0x10003d5d
20000bf4:	100043c1 	.word	0x100043c1

20000bf8 <__frame_dummy_init_array_entry>:
20000bf8:	10000339                                9...
