Archive member included to satisfy reference by file (symbol)

/usr/lib/gcc/arm-none-eabi/8.3.1/thumb/v6-m/nofp/libgcc.a(_dvmd_tls.o)
                              CMakeFiles/tinyusb_host_cdc_msc_hid.dir/home/boemmelsebastian/pico/pico-sdk/src/rp2_common/pico_divider/divider.S.obj (__aeabi_idiv0)
/usr/lib/gcc/arm-none-eabi/8.3.1/../../../arm-none-eabi/lib/thumb/v6-m/nofp/libg.a(lib_a-atexit.o)
                              /usr/lib/gcc/arm-none-eabi/8.3.1/../../../arm-none-eabi/lib/thumb/v6-m/nofp/crt0.o (atexit)
/usr/lib/gcc/arm-none-eabi/8.3.1/../../../arm-none-eabi/lib/thumb/v6-m/nofp/libg.a(lib_a-calloc.o)
                              CMakeFiles/tinyusb_host_cdc_msc_hid.dir/home/boemmelsebastian/pico/pico-sdk/src/rp2_common/pico_malloc/pico_malloc.c.obj (calloc)
/usr/lib/gcc/arm-none-eabi/8.3.1/../../../arm-none-eabi/lib/thumb/v6-m/nofp/libg.a(lib_a-callocr.o)
                              /usr/lib/gcc/arm-none-eabi/8.3.1/../../../arm-none-eabi/lib/thumb/v6-m/nofp/libg.a(lib_a-calloc.o) (_calloc_r)
/usr/lib/gcc/arm-none-eabi/8.3.1/../../../arm-none-eabi/lib/thumb/v6-m/nofp/libg.a(lib_a-ctype_.o)
                              CMakeFiles/tinyusb_host_cdc_msc_hid.dir/home/boemmelsebastian/pico/pico-sdk/lib/tinyusb/src/tusb.c.obj (_ctype_)
/usr/lib/gcc/arm-none-eabi/8.3.1/../../../arm-none-eabi/lib/thumb/v6-m/nofp/libg.a(lib_a-fflush.o)
                              CMakeFiles/tinyusb_host_cdc_msc_hid.dir/src/hid_app.c.obj (fflush)
/usr/lib/gcc/arm-none-eabi/8.3.1/../../../arm-none-eabi/lib/thumb/v6-m/nofp/libg.a(lib_a-findfp.o)
                              /usr/lib/gcc/arm-none-eabi/8.3.1/../../../arm-none-eabi/lib/thumb/v6-m/nofp/libg.a(lib_a-fflush.o) (__sinit)
/usr/lib/gcc/arm-none-eabi/8.3.1/../../../arm-none-eabi/lib/thumb/v6-m/nofp/libg.a(lib_a-fini.o)
                              /usr/lib/gcc/arm-none-eabi/8.3.1/../../../arm-none-eabi/lib/thumb/v6-m/nofp/crt0.o (__libc_fini_array)
/usr/lib/gcc/arm-none-eabi/8.3.1/../../../arm-none-eabi/lib/thumb/v6-m/nofp/libg.a(lib_a-freer.o)
                              /usr/lib/gcc/arm-none-eabi/8.3.1/../../../arm-none-eabi/lib/thumb/v6-m/nofp/libg.a(lib_a-fflush.o) (_free_r)
/usr/lib/gcc/arm-none-eabi/8.3.1/../../../arm-none-eabi/lib/thumb/v6-m/nofp/libg.a(lib_a-fwalk.o)
                              /usr/lib/gcc/arm-none-eabi/8.3.1/../../../arm-none-eabi/lib/thumb/v6-m/nofp/libg.a(lib_a-findfp.o) (_fwalk)
/usr/lib/gcc/arm-none-eabi/8.3.1/../../../arm-none-eabi/lib/thumb/v6-m/nofp/libg.a(lib_a-impure.o)
                              /usr/lib/gcc/arm-none-eabi/8.3.1/../../../arm-none-eabi/lib/thumb/v6-m/nofp/libg.a(lib_a-fflush.o) (_global_impure_ptr)
/usr/lib/gcc/arm-none-eabi/8.3.1/../../../arm-none-eabi/lib/thumb/v6-m/nofp/libg.a(lib_a-init.o)
                              /usr/lib/gcc/arm-none-eabi/8.3.1/../../../arm-none-eabi/lib/thumb/v6-m/nofp/crt0.o (__libc_init_array)
/usr/lib/gcc/arm-none-eabi/8.3.1/../../../arm-none-eabi/lib/thumb/v6-m/nofp/libg.a(lib_a-malloc.o)
                              CMakeFiles/tinyusb_host_cdc_msc_hid.dir/home/boemmelsebastian/pico/pico-sdk/src/rp2_common/pico_malloc/pico_malloc.c.obj (malloc)
/usr/lib/gcc/arm-none-eabi/8.3.1/../../../arm-none-eabi/lib/thumb/v6-m/nofp/libg.a(lib_a-mallocr.o)
                              /usr/lib/gcc/arm-none-eabi/8.3.1/../../../arm-none-eabi/lib/thumb/v6-m/nofp/libg.a(lib_a-callocr.o) (_malloc_r)
/usr/lib/gcc/arm-none-eabi/8.3.1/../../../arm-none-eabi/lib/thumb/v6-m/nofp/libg.a(lib_a-mlock.o)
                              /usr/lib/gcc/arm-none-eabi/8.3.1/../../../arm-none-eabi/lib/thumb/v6-m/nofp/libg.a(lib_a-freer.o) (__malloc_lock)
/usr/lib/gcc/arm-none-eabi/8.3.1/../../../arm-none-eabi/lib/thumb/v6-m/nofp/libg.a(lib_a-sbrkr.o)
                              /usr/lib/gcc/arm-none-eabi/8.3.1/../../../arm-none-eabi/lib/thumb/v6-m/nofp/libg.a(lib_a-freer.o) (_sbrk_r)
/usr/lib/gcc/arm-none-eabi/8.3.1/../../../arm-none-eabi/lib/thumb/v6-m/nofp/libg.a(lib_a-stdio.o)
                              /usr/lib/gcc/arm-none-eabi/8.3.1/../../../arm-none-eabi/lib/thumb/v6-m/nofp/libg.a(lib_a-findfp.o) (__sread)
/usr/lib/gcc/arm-none-eabi/8.3.1/../../../arm-none-eabi/lib/thumb/v6-m/nofp/libg.a(lib_a-strlen-stub.o)
                              CMakeFiles/tinyusb_host_cdc_msc_hid.dir/home/boemmelsebastian/pico/pico-sdk/src/rp2_common/pico_stdio/stdio.c.obj (strlen)
/usr/lib/gcc/arm-none-eabi/8.3.1/../../../arm-none-eabi/lib/thumb/v6-m/nofp/libg.a(lib_a-writer.o)
                              /usr/lib/gcc/arm-none-eabi/8.3.1/../../../arm-none-eabi/lib/thumb/v6-m/nofp/libg.a(lib_a-stdio.o) (_write_r)
/usr/lib/gcc/arm-none-eabi/8.3.1/../../../arm-none-eabi/lib/thumb/v6-m/nofp/libg.a(lib_a-__atexit.o)
                              /usr/lib/gcc/arm-none-eabi/8.3.1/../../../arm-none-eabi/lib/thumb/v6-m/nofp/libg.a(lib_a-atexit.o) (__register_exitproc)
/usr/lib/gcc/arm-none-eabi/8.3.1/../../../arm-none-eabi/lib/thumb/v6-m/nofp/libg.a(lib_a-closer.o)
                              /usr/lib/gcc/arm-none-eabi/8.3.1/../../../arm-none-eabi/lib/thumb/v6-m/nofp/libg.a(lib_a-stdio.o) (_close_r)
/usr/lib/gcc/arm-none-eabi/8.3.1/../../../arm-none-eabi/lib/thumb/v6-m/nofp/libg.a(lib_a-fclose.o)
                              /usr/lib/gcc/arm-none-eabi/8.3.1/../../../arm-none-eabi/lib/thumb/v6-m/nofp/libg.a(lib_a-findfp.o) (_fclose_r)
/usr/lib/gcc/arm-none-eabi/8.3.1/../../../arm-none-eabi/lib/thumb/v6-m/nofp/libg.a(lib_a-lseekr.o)
                              /usr/lib/gcc/arm-none-eabi/8.3.1/../../../arm-none-eabi/lib/thumb/v6-m/nofp/libg.a(lib_a-stdio.o) (_lseek_r)
/usr/lib/gcc/arm-none-eabi/8.3.1/../../../arm-none-eabi/lib/thumb/v6-m/nofp/libg.a(lib_a-readr.o)
                              /usr/lib/gcc/arm-none-eabi/8.3.1/../../../arm-none-eabi/lib/thumb/v6-m/nofp/libg.a(lib_a-stdio.o) (_read_r)
/usr/lib/gcc/arm-none-eabi/8.3.1/../../../arm-none-eabi/lib/thumb/v6-m/nofp/libg.a(lib_a-reent.o)
                              /usr/lib/gcc/arm-none-eabi/8.3.1/../../../arm-none-eabi/lib/thumb/v6-m/nofp/libg.a(lib_a-sbrkr.o) (errno)
/usr/lib/gcc/arm-none-eabi/8.3.1/../../../arm-none-eabi/lib/thumb/v6-m/nofp/libnosys.a(close.o)
                              /usr/lib/gcc/arm-none-eabi/8.3.1/../../../arm-none-eabi/lib/thumb/v6-m/nofp/libg.a(lib_a-closer.o) (_close)
/usr/lib/gcc/arm-none-eabi/8.3.1/../../../arm-none-eabi/lib/thumb/v6-m/nofp/libnosys.a(lseek.o)
                              /usr/lib/gcc/arm-none-eabi/8.3.1/../../../arm-none-eabi/lib/thumb/v6-m/nofp/libg.a(lib_a-lseekr.o) (_lseek)

Allocating common symbols
Common symbol       size              file

sf_table            0x100             CMakeFiles/tinyusb_host_cdc_msc_hid.dir/home/boemmelsebastian/pico/pico-sdk/src/rp2_common/pico_float/float_init_rom.c.obj
errno               0x4               /usr/lib/gcc/arm-none-eabi/8.3.1/../../../arm-none-eabi/lib/thumb/v6-m/nofp/libg.a(lib_a-reent.o)
_usbh_qdef_buf      0xc0              CMakeFiles/tinyusb_host_cdc_msc_hid.dir/home/boemmelsebastian/pico/pico-sdk/lib/tinyusb/src/host/usbh.c.obj
_usbh_devices       0x190             CMakeFiles/tinyusb_host_cdc_msc_hid.dir/home/boemmelsebastian/pico/pico-sdk/lib/tinyusb/src/host/usbh.c.obj
sd_table            0x100             CMakeFiles/tinyusb_host_cdc_msc_hid.dir/home/boemmelsebastian/pico/pico-sdk/src/rp2_common/pico_double/double_init_rom.c.obj
uart_char_to_line_feed
                    0x4               CMakeFiles/tinyusb_host_cdc_msc_hid.dir/home/boemmelsebastian/pico/pico-sdk/src/rp2_common/hardware_uart/uart.c.obj

Discarded input sections

 .text          0x0000000000000000        0x0 /usr/lib/gcc/arm-none-eabi/8.3.1/thumb/v6-m/nofp/crti.o
 .data          0x0000000000000000        0x0 /usr/lib/gcc/arm-none-eabi/8.3.1/thumb/v6-m/nofp/crti.o
 .bss           0x0000000000000000        0x0 /usr/lib/gcc/arm-none-eabi/8.3.1/thumb/v6-m/nofp/crti.o
 .data          0x0000000000000000        0x4 /usr/lib/gcc/arm-none-eabi/8.3.1/thumb/v6-m/nofp/crtbegin.o
 .fini_array    0x0000000000000000        0x4 /usr/lib/gcc/arm-none-eabi/8.3.1/thumb/v6-m/nofp/crtbegin.o
 .text          0x0000000000000000       0x74 /usr/lib/gcc/arm-none-eabi/8.3.1/../../../arm-none-eabi/lib/thumb/v6-m/nofp/crt0.o
 .data          0x0000000000000000        0x0 /usr/lib/gcc/arm-none-eabi/8.3.1/../../../arm-none-eabi/lib/thumb/v6-m/nofp/crt0.o
 .bss           0x0000000000000000        0x0 /usr/lib/gcc/arm-none-eabi/8.3.1/../../../arm-none-eabi/lib/thumb/v6-m/nofp/crt0.o
 .ARM.extab     0x0000000000000000        0x0 /usr/lib/gcc/arm-none-eabi/8.3.1/../../../arm-none-eabi/lib/thumb/v6-m/nofp/crt0.o
 .ARM.exidx     0x0000000000000000       0x10 /usr/lib/gcc/arm-none-eabi/8.3.1/../../../arm-none-eabi/lib/thumb/v6-m/nofp/crt0.o
 .debug_line    0x0000000000000000       0x8c /usr/lib/gcc/arm-none-eabi/8.3.1/../../../arm-none-eabi/lib/thumb/v6-m/nofp/crt0.o
 .debug_info    0x0000000000000000       0x26 /usr/lib/gcc/arm-none-eabi/8.3.1/../../../arm-none-eabi/lib/thumb/v6-m/nofp/crt0.o
 .debug_abbrev  0x0000000000000000       0x14 /usr/lib/gcc/arm-none-eabi/8.3.1/../../../arm-none-eabi/lib/thumb/v6-m/nofp/crt0.o
 .debug_aranges
                0x0000000000000000       0x20 /usr/lib/gcc/arm-none-eabi/8.3.1/../../../arm-none-eabi/lib/thumb/v6-m/nofp/crt0.o
 .debug_str     0x0000000000000000       0x97 /usr/lib/gcc/arm-none-eabi/8.3.1/../../../arm-none-eabi/lib/thumb/v6-m/nofp/crt0.o
 .ARM.attributes
                0x0000000000000000       0x1b /usr/lib/gcc/arm-none-eabi/8.3.1/../../../arm-none-eabi/lib/thumb/v6-m/nofp/crt0.o
 .text          0x0000000000000000        0x0 CMakeFiles/tinyusb_host_cdc_msc_hid.dir/src/hid_app.c.obj
 .data          0x0000000000000000        0x0 CMakeFiles/tinyusb_host_cdc_msc_hid.dir/src/hid_app.c.obj
 .bss           0x0000000000000000        0x0 CMakeFiles/tinyusb_host_cdc_msc_hid.dir/src/hid_app.c.obj
 .text          0x0000000000000000        0x0 CMakeFiles/tinyusb_host_cdc_msc_hid.dir/src/main.c.obj
 .data          0x0000000000000000        0x0 CMakeFiles/tinyusb_host_cdc_msc_hid.dir/src/main.c.obj
 .bss           0x0000000000000000        0x0 CMakeFiles/tinyusb_host_cdc_msc_hid.dir/src/main.c.obj
 .text.cdc_task
                0x0000000000000000        0x2 CMakeFiles/tinyusb_host_cdc_msc_hid.dir/src/main.c.obj
 .text          0x0000000000000000        0x0 CMakeFiles/tinyusb_host_cdc_msc_hid.dir/src/msc_app.c.obj
 .data          0x0000000000000000        0x0 CMakeFiles/tinyusb_host_cdc_msc_hid.dir/src/msc_app.c.obj
 .bss           0x0000000000000000        0x0 CMakeFiles/tinyusb_host_cdc_msc_hid.dir/src/msc_app.c.obj
 .text          0x0000000000000000        0x0 CMakeFiles/tinyusb_host_cdc_msc_hid.dir/home/boemmelsebastian/pico/pico-sdk/src/rp2_common/pico_stdlib/stdlib.c.obj
 .data          0x0000000000000000        0x0 CMakeFiles/tinyusb_host_cdc_msc_hid.dir/home/boemmelsebastian/pico/pico-sdk/src/rp2_common/pico_stdlib/stdlib.c.obj
 .bss           0x0000000000000000        0x0 CMakeFiles/tinyusb_host_cdc_msc_hid.dir/home/boemmelsebastian/pico/pico-sdk/src/rp2_common/pico_stdlib/stdlib.c.obj
 .text.set_sys_clock_48mhz
                0x0000000000000000       0x40 CMakeFiles/tinyusb_host_cdc_msc_hid.dir/home/boemmelsebastian/pico/pico-sdk/src/rp2_common/pico_stdlib/stdlib.c.obj
 .text.set_sys_clock_pll
                0x0000000000000000       0x78 CMakeFiles/tinyusb_host_cdc_msc_hid.dir/home/boemmelsebastian/pico/pico-sdk/src/rp2_common/pico_stdlib/stdlib.c.obj
 .text.check_sys_clock_khz
                0x0000000000000000       0xb4 CMakeFiles/tinyusb_host_cdc_msc_hid.dir/home/boemmelsebastian/pico/pico-sdk/src/rp2_common/pico_stdlib/stdlib.c.obj
 .text.setup_default_uart
                0x0000000000000000        0x8 CMakeFiles/tinyusb_host_cdc_msc_hid.dir/home/boemmelsebastian/pico/pico-sdk/src/rp2_common/pico_stdlib/stdlib.c.obj
 .debug_info    0x0000000000000000      0x505 CMakeFiles/tinyusb_host_cdc_msc_hid.dir/home/boemmelsebastian/pico/pico-sdk/src/rp2_common/pico_stdlib/stdlib.c.obj
 .debug_abbrev  0x0000000000000000      0x1c6 CMakeFiles/tinyusb_host_cdc_msc_hid.dir/home/boemmelsebastian/pico/pico-sdk/src/rp2_common/pico_stdlib/stdlib.c.obj
 .debug_loc     0x0000000000000000      0x2d4 CMakeFiles/tinyusb_host_cdc_msc_hid.dir/home/boemmelsebastian/pico/pico-sdk/src/rp2_common/pico_stdlib/stdlib.c.obj
 .debug_aranges
                0x0000000000000000       0x38 CMakeFiles/tinyusb_host_cdc_msc_hid.dir/home/boemmelsebastian/pico/pico-sdk/src/rp2_common/pico_stdlib/stdlib.c.obj
 .debug_ranges  0x0000000000000000       0x98 CMakeFiles/tinyusb_host_cdc_msc_hid.dir/home/boemmelsebastian/pico/pico-sdk/src/rp2_common/pico_stdlib/stdlib.c.obj
 .debug_line    0x0000000000000000      0x539 CMakeFiles/tinyusb_host_cdc_msc_hid.dir/home/boemmelsebastian/pico/pico-sdk/src/rp2_common/pico_stdlib/stdlib.c.obj
 .debug_str     0x0000000000000000      0x415 CMakeFiles/tinyusb_host_cdc_msc_hid.dir/home/boemmelsebastian/pico/pico-sdk/src/rp2_common/pico_stdlib/stdlib.c.obj
 .comment       0x0000000000000000       0x52 CMakeFiles/tinyusb_host_cdc_msc_hid.dir/home/boemmelsebastian/pico/pico-sdk/src/rp2_common/pico_stdlib/stdlib.c.obj
 .debug_frame   0x0000000000000000       0x90 CMakeFiles/tinyusb_host_cdc_msc_hid.dir/home/boemmelsebastian/pico/pico-sdk/src/rp2_common/pico_stdlib/stdlib.c.obj
 .ARM.attributes
                0x0000000000000000       0x2c CMakeFiles/tinyusb_host_cdc_msc_hid.dir/home/boemmelsebastian/pico/pico-sdk/src/rp2_common/pico_stdlib/stdlib.c.obj
 .text          0x0000000000000000        0x0 CMakeFiles/tinyusb_host_cdc_msc_hid.dir/home/boemmelsebastian/pico/pico-sdk/src/rp2_common/hardware_gpio/gpio.c.obj
 .data          0x0000000000000000        0x0 CMakeFiles/tinyusb_host_cdc_msc_hid.dir/home/boemmelsebastian/pico/pico-sdk/src/rp2_common/hardware_gpio/gpio.c.obj
 .bss           0x0000000000000000        0x0 CMakeFiles/tinyusb_host_cdc_msc_hid.dir/home/boemmelsebastian/pico/pico-sdk/src/rp2_common/hardware_gpio/gpio.c.obj
 .text.gpio_get_pad
                0x0000000000000000       0x28 CMakeFiles/tinyusb_host_cdc_msc_hid.dir/home/boemmelsebastian/pico/pico-sdk/src/rp2_common/hardware_gpio/gpio.c.obj
 .text.gpio_get_function
                0x0000000000000000       0x14 CMakeFiles/tinyusb_host_cdc_msc_hid.dir/home/boemmelsebastian/pico/pico-sdk/src/rp2_common/hardware_gpio/gpio.c.obj
 .text.gpio_set_pulls
                0x0000000000000000       0x34 CMakeFiles/tinyusb_host_cdc_msc_hid.dir/home/boemmelsebastian/pico/pico-sdk/src/rp2_common/hardware_gpio/gpio.c.obj
 .text.gpio_set_irqover
                0x0000000000000000       0x24 CMakeFiles/tinyusb_host_cdc_msc_hid.dir/home/boemmelsebastian/pico/pico-sdk/src/rp2_common/hardware_gpio/gpio.c.obj
 .text.gpio_set_inover
                0x0000000000000000       0x24 CMakeFiles/tinyusb_host_cdc_msc_hid.dir/home/boemmelsebastian/pico/pico-sdk/src/rp2_common/hardware_gpio/gpio.c.obj
 .text.gpio_set_outover
                0x0000000000000000       0x24 CMakeFiles/tinyusb_host_cdc_msc_hid.dir/home/boemmelsebastian/pico/pico-sdk/src/rp2_common/hardware_gpio/gpio.c.obj
 .text.gpio_set_oeover
                0x0000000000000000       0x24 CMakeFiles/tinyusb_host_cdc_msc_hid.dir/home/boemmelsebastian/pico/pico-sdk/src/rp2_common/hardware_gpio/gpio.c.obj
 .text.gpio_set_input_hysteresis_enabled
                0x0000000000000000       0x30 CMakeFiles/tinyusb_host_cdc_msc_hid.dir/home/boemmelsebastian/pico/pico-sdk/src/rp2_common/hardware_gpio/gpio.c.obj
 .text.gpio_is_input_hysteresis_enabled
                0x0000000000000000       0x1c CMakeFiles/tinyusb_host_cdc_msc_hid.dir/home/boemmelsebastian/pico/pico-sdk/src/rp2_common/hardware_gpio/gpio.c.obj
 .text.gpio_set_slew_rate
                0x0000000000000000       0x20 CMakeFiles/tinyusb_host_cdc_msc_hid.dir/home/boemmelsebastian/pico/pico-sdk/src/rp2_common/hardware_gpio/gpio.c.obj
 .text.gpio_get_slew_rate
                0x0000000000000000       0x14 CMakeFiles/tinyusb_host_cdc_msc_hid.dir/home/boemmelsebastian/pico/pico-sdk/src/rp2_common/hardware_gpio/gpio.c.obj
 .text.gpio_set_drive_strength
                0x0000000000000000       0x20 CMakeFiles/tinyusb_host_cdc_msc_hid.dir/home/boemmelsebastian/pico/pico-sdk/src/rp2_common/hardware_gpio/gpio.c.obj
 .text.gpio_get_drive_strength
                0x0000000000000000       0x18 CMakeFiles/tinyusb_host_cdc_msc_hid.dir/home/boemmelsebastian/pico/pico-sdk/src/rp2_common/hardware_gpio/gpio.c.obj
 .text.gpio_acknowledge_irq
                0x0000000000000000       0x18 CMakeFiles/tinyusb_host_cdc_msc_hid.dir/home/boemmelsebastian/pico/pico-sdk/src/rp2_common/hardware_gpio/gpio.c.obj
 .text._gpio_set_irq_enabled
                0x0000000000000000       0x34 CMakeFiles/tinyusb_host_cdc_msc_hid.dir/home/boemmelsebastian/pico/pico-sdk/src/rp2_common/hardware_gpio/gpio.c.obj
 .text.gpio_set_irq_enabled
                0x0000000000000000       0x20 CMakeFiles/tinyusb_host_cdc_msc_hid.dir/home/boemmelsebastian/pico/pico-sdk/src/rp2_common/hardware_gpio/gpio.c.obj
 .text.gpio_set_irq_enabled_with_callback
                0x0000000000000000       0x30 CMakeFiles/tinyusb_host_cdc_msc_hid.dir/home/boemmelsebastian/pico/pico-sdk/src/rp2_common/hardware_gpio/gpio.c.obj
 .text.gpio_set_dormant_irq_enabled
                0x0000000000000000       0x10 CMakeFiles/tinyusb_host_cdc_msc_hid.dir/home/boemmelsebastian/pico/pico-sdk/src/rp2_common/hardware_gpio/gpio.c.obj
 .text.gpio_irq_handler
                0x0000000000000000       0x64 CMakeFiles/tinyusb_host_cdc_msc_hid.dir/home/boemmelsebastian/pico/pico-sdk/src/rp2_common/hardware_gpio/gpio.c.obj
 .text.gpio_set_input_enabled
                0x0000000000000000       0x30 CMakeFiles/tinyusb_host_cdc_msc_hid.dir/home/boemmelsebastian/pico/pico-sdk/src/rp2_common/hardware_gpio/gpio.c.obj
 .text.gpio_deinit
                0x0000000000000000        0xa CMakeFiles/tinyusb_host_cdc_msc_hid.dir/home/boemmelsebastian/pico/pico-sdk/src/rp2_common/hardware_gpio/gpio.c.obj
 .text.gpio_init_mask
                0x0000000000000000       0x1e CMakeFiles/tinyusb_host_cdc_msc_hid.dir/home/boemmelsebastian/pico/pico-sdk/src/rp2_common/hardware_gpio/gpio.c.obj
 .text.gpio_debug_pins_init
                0x0000000000000000       0x18 CMakeFiles/tinyusb_host_cdc_msc_hid.dir/home/boemmelsebastian/pico/pico-sdk/src/rp2_common/hardware_gpio/gpio.c.obj
 .bss._callbacks
                0x0000000000000000        0x8 CMakeFiles/tinyusb_host_cdc_msc_hid.dir/home/boemmelsebastian/pico/pico-sdk/src/rp2_common/hardware_gpio/gpio.c.obj
 .text          0x0000000000000000        0x0 CMakeFiles/tinyusb_host_cdc_msc_hid.dir/home/boemmelsebastian/pico/pico-sdk/src/rp2_common/hardware_claim/claim.c.obj
 .data          0x0000000000000000        0x0 CMakeFiles/tinyusb_host_cdc_msc_hid.dir/home/boemmelsebastian/pico/pico-sdk/src/rp2_common/hardware_claim/claim.c.obj
 .bss           0x0000000000000000        0x0 CMakeFiles/tinyusb_host_cdc_msc_hid.dir/home/boemmelsebastian/pico/pico-sdk/src/rp2_common/hardware_claim/claim.c.obj
 .text.hw_is_claimed
                0x0000000000000000       0x16 CMakeFiles/tinyusb_host_cdc_msc_hid.dir/home/boemmelsebastian/pico/pico-sdk/src/rp2_common/hardware_claim/claim.c.obj
 .text.hw_claim_clear
                0x0000000000000000       0x40 CMakeFiles/tinyusb_host_cdc_msc_hid.dir/home/boemmelsebastian/pico/pico-sdk/src/rp2_common/hardware_claim/claim.c.obj
 .rodata.__func__.4474
                0x0000000000000000        0xf CMakeFiles/tinyusb_host_cdc_msc_hid.dir/home/boemmelsebastian/pico/pico-sdk/src/rp2_common/hardware_claim/claim.c.obj
 .rodata.hw_claim_clear.str1.4
                0x0000000000000000       0x6b CMakeFiles/tinyusb_host_cdc_msc_hid.dir/home/boemmelsebastian/pico/pico-sdk/src/rp2_common/hardware_claim/claim.c.obj
 .text          0x0000000000000000        0x0 CMakeFiles/tinyusb_host_cdc_msc_hid.dir/home/boemmelsebastian/pico/pico-sdk/src/rp2_common/pico_platform/platform.c.obj
 .data          0x0000000000000000        0x0 CMakeFiles/tinyusb_host_cdc_msc_hid.dir/home/boemmelsebastian/pico/pico-sdk/src/rp2_common/pico_platform/platform.c.obj
 .bss           0x0000000000000000        0x0 CMakeFiles/tinyusb_host_cdc_msc_hid.dir/home/boemmelsebastian/pico/pico-sdk/src/rp2_common/pico_platform/platform.c.obj
 .text.rp2040_chip_version
                0x0000000000000000       0x4c CMakeFiles/tinyusb_host_cdc_msc_hid.dir/home/boemmelsebastian/pico/pico-sdk/src/rp2_common/pico_platform/platform.c.obj
 .rodata.__func__.4348
                0x0000000000000000       0x14 CMakeFiles/tinyusb_host_cdc_msc_hid.dir/home/boemmelsebastian/pico/pico-sdk/src/rp2_common/pico_platform/platform.c.obj
 .rodata.rp2040_chip_version.str1.4
                0x0000000000000000       0x85 CMakeFiles/tinyusb_host_cdc_msc_hid.dir/home/boemmelsebastian/pico/pico-sdk/src/rp2_common/pico_platform/platform.c.obj
 .text          0x0000000000000000        0x0 CMakeFiles/tinyusb_host_cdc_msc_hid.dir/home/boemmelsebastian/pico/pico-sdk/src/rp2_common/hardware_sync/sync.c.obj
 .data          0x0000000000000000        0x0 CMakeFiles/tinyusb_host_cdc_msc_hid.dir/home/boemmelsebastian/pico/pico-sdk/src/rp2_common/hardware_sync/sync.c.obj
 .bss           0x0000000000000000        0x0 CMakeFiles/tinyusb_host_cdc_msc_hid.dir/home/boemmelsebastian/pico/pico-sdk/src/rp2_common/hardware_sync/sync.c.obj
 .text.spin_lock_init
                0x0000000000000000       0x34 CMakeFiles/tinyusb_host_cdc_msc_hid.dir/home/boemmelsebastian/pico/pico-sdk/src/rp2_common/hardware_sync/sync.c.obj
 .text.spin_lock_claim
                0x0000000000000000       0x18 CMakeFiles/tinyusb_host_cdc_msc_hid.dir/home/boemmelsebastian/pico/pico-sdk/src/rp2_common/hardware_sync/sync.c.obj
 .text.spin_lock_claim_mask
                0x0000000000000000       0x1e CMakeFiles/tinyusb_host_cdc_msc_hid.dir/home/boemmelsebastian/pico/pico-sdk/src/rp2_common/hardware_sync/sync.c.obj
 .text.spin_lock_unclaim
                0x0000000000000000       0x24 CMakeFiles/tinyusb_host_cdc_msc_hid.dir/home/boemmelsebastian/pico/pico-sdk/src/rp2_common/hardware_sync/sync.c.obj
 .text.spin_lock_is_claimed
                0x0000000000000000       0x10 CMakeFiles/tinyusb_host_cdc_msc_hid.dir/home/boemmelsebastian/pico/pico-sdk/src/rp2_common/hardware_sync/sync.c.obj
 .rodata.__func__.4457
                0x0000000000000000        0xf CMakeFiles/tinyusb_host_cdc_msc_hid.dir/home/boemmelsebastian/pico/pico-sdk/src/rp2_common/hardware_sync/sync.c.obj
 .rodata.spin_lock_claim.str1.4
                0x0000000000000000       0x1f CMakeFiles/tinyusb_host_cdc_msc_hid.dir/home/boemmelsebastian/pico/pico-sdk/src/rp2_common/hardware_sync/sync.c.obj
 .rodata.spin_lock_init.str1.4
                0x0000000000000000       0x65 CMakeFiles/tinyusb_host_cdc_msc_hid.dir/home/boemmelsebastian/pico/pico-sdk/src/rp2_common/hardware_sync/sync.c.obj
 .text          0x0000000000000000        0x0 CMakeFiles/tinyusb_host_cdc_msc_hid.dir/home/boemmelsebastian/pico/pico-sdk/src/rp2_common/hardware_uart/uart.c.obj
 .data          0x0000000000000000        0x0 CMakeFiles/tinyusb_host_cdc_msc_hid.dir/home/boemmelsebastian/pico/pico-sdk/src/rp2_common/hardware_uart/uart.c.obj
 .bss           0x0000000000000000        0x0 CMakeFiles/tinyusb_host_cdc_msc_hid.dir/home/boemmelsebastian/pico/pico-sdk/src/rp2_common/hardware_uart/uart.c.obj
 .text.uart_deinit
                0x0000000000000000       0x20 CMakeFiles/tinyusb_host_cdc_msc_hid.dir/home/boemmelsebastian/pico/pico-sdk/src/rp2_common/hardware_uart/uart.c.obj
 .text.uart_is_readable_within_us
                0x0000000000000000       0x20 CMakeFiles/tinyusb_host_cdc_msc_hid.dir/home/boemmelsebastian/pico/pico-sdk/src/rp2_common/hardware_uart/uart.c.obj
 .text          0x0000000000000000        0x0 CMakeFiles/tinyusb_host_cdc_msc_hid.dir/home/boemmelsebastian/pico/pico-sdk/src/rp2_common/hardware_divider/divider.S.obj
 .data          0x0000000000000000        0x0 CMakeFiles/tinyusb_host_cdc_msc_hid.dir/home/boemmelsebastian/pico/pico-sdk/src/rp2_common/hardware_divider/divider.S.obj
 .bss           0x0000000000000000        0x0 CMakeFiles/tinyusb_host_cdc_msc_hid.dir/home/boemmelsebastian/pico/pico-sdk/src/rp2_common/hardware_divider/divider.S.obj
 .text.hw_divider_divmod_s32
                0x0000000000000000       0x18 CMakeFiles/tinyusb_host_cdc_msc_hid.dir/home/boemmelsebastian/pico/pico-sdk/src/rp2_common/hardware_divider/divider.S.obj
 .text.hw_divider_divmod_u32
                0x0000000000000000       0x18 CMakeFiles/tinyusb_host_cdc_msc_hid.dir/home/boemmelsebastian/pico/pico-sdk/src/rp2_common/hardware_divider/divider.S.obj
 .text.hw_divider_save_state
                0x0000000000000000       0x1c CMakeFiles/tinyusb_host_cdc_msc_hid.dir/home/boemmelsebastian/pico/pico-sdk/src/rp2_common/hardware_divider/divider.S.obj
 .text.hw_divider_restore_state
                0x0000000000000000       0x14 CMakeFiles/tinyusb_host_cdc_msc_hid.dir/home/boemmelsebastian/pico/pico-sdk/src/rp2_common/hardware_divider/divider.S.obj
 .debug_line    0x0000000000000000       0xd5 CMakeFiles/tinyusb_host_cdc_msc_hid.dir/home/boemmelsebastian/pico/pico-sdk/src/rp2_common/hardware_divider/divider.S.obj
 .debug_info    0x0000000000000000       0x22 CMakeFiles/tinyusb_host_cdc_msc_hid.dir/home/boemmelsebastian/pico/pico-sdk/src/rp2_common/hardware_divider/divider.S.obj
 .debug_abbrev  0x0000000000000000       0x12 CMakeFiles/tinyusb_host_cdc_msc_hid.dir/home/boemmelsebastian/pico/pico-sdk/src/rp2_common/hardware_divider/divider.S.obj
 .debug_aranges
                0x0000000000000000       0x38 CMakeFiles/tinyusb_host_cdc_msc_hid.dir/home/boemmelsebastian/pico/pico-sdk/src/rp2_common/hardware_divider/divider.S.obj
 .debug_str     0x0000000000000000       0xb8 CMakeFiles/tinyusb_host_cdc_msc_hid.dir/home/boemmelsebastian/pico/pico-sdk/src/rp2_common/hardware_divider/divider.S.obj
 .debug_ranges  0x0000000000000000       0x30 CMakeFiles/tinyusb_host_cdc_msc_hid.dir/home/boemmelsebastian/pico/pico-sdk/src/rp2_common/hardware_divider/divider.S.obj
 .ARM.attributes
                0x0000000000000000       0x22 CMakeFiles/tinyusb_host_cdc_msc_hid.dir/home/boemmelsebastian/pico/pico-sdk/src/rp2_common/hardware_divider/divider.S.obj
 .text          0x0000000000000000        0x0 CMakeFiles/tinyusb_host_cdc_msc_hid.dir/home/boemmelsebastian/pico/pico-sdk/src/common/pico_time/time.c.obj
 .data          0x0000000000000000        0x0 CMakeFiles/tinyusb_host_cdc_msc_hid.dir/home/boemmelsebastian/pico/pico-sdk/src/common/pico_time/time.c.obj
 .bss           0x0000000000000000        0x0 CMakeFiles/tinyusb_host_cdc_msc_hid.dir/home/boemmelsebastian/pico/pico-sdk/src/common/pico_time/time.c.obj
 .text.repeating_timer_callback
                0x0000000000000000       0x40 CMakeFiles/tinyusb_host_cdc_msc_hid.dir/home/boemmelsebastian/pico/pico-sdk/src/common/pico_time/time.c.obj
 .text.alarm_pool_dump_key
                0x0000000000000000       0x70 CMakeFiles/tinyusb_host_cdc_msc_hid.dir/home/boemmelsebastian/pico/pico-sdk/src/common/pico_time/time.c.obj
 .text.alarm_pool_create
                0x0000000000000000       0x40 CMakeFiles/tinyusb_host_cdc_msc_hid.dir/home/boemmelsebastian/pico/pico-sdk/src/common/pico_time/time.c.obj
 .text.alarm_pool_destroy
                0x0000000000000000       0x78 CMakeFiles/tinyusb_host_cdc_msc_hid.dir/home/boemmelsebastian/pico/pico-sdk/src/common/pico_time/time.c.obj
 .text.alarm_pool_hardware_alarm_num
                0x0000000000000000        0x4 CMakeFiles/tinyusb_host_cdc_msc_hid.dir/home/boemmelsebastian/pico/pico-sdk/src/common/pico_time/time.c.obj
 .text.alarm_pool_add_repeating_timer_us
                0x0000000000000000       0x9c CMakeFiles/tinyusb_host_cdc_msc_hid.dir/home/boemmelsebastian/pico/pico-sdk/src/common/pico_time/time.c.obj
 .text.cancel_repeating_timer
                0x0000000000000000       0x1a CMakeFiles/tinyusb_host_cdc_msc_hid.dir/home/boemmelsebastian/pico/pico-sdk/src/common/pico_time/time.c.obj
 .text.alarm_pool_dump
                0x0000000000000000       0x34 CMakeFiles/tinyusb_host_cdc_msc_hid.dir/home/boemmelsebastian/pico/pico-sdk/src/common/pico_time/time.c.obj
 .rodata.__func__.6396
                0x0000000000000000       0x13 CMakeFiles/tinyusb_host_cdc_msc_hid.dir/home/boemmelsebastian/pico/pico-sdk/src/common/pico_time/time.c.obj
 .rodata.__func__.6434
                0x0000000000000000       0x19 CMakeFiles/tinyusb_host_cdc_msc_hid.dir/home/boemmelsebastian/pico/pico-sdk/src/common/pico_time/time.c.obj
 .rodata.alarm_pool_destroy.str1.4
                0x0000000000000000       0x30 CMakeFiles/tinyusb_host_cdc_msc_hid.dir/home/boemmelsebastian/pico/pico-sdk/src/common/pico_time/time.c.obj
 .rodata.nil_time
                0x0000000000000000        0x8 CMakeFiles/tinyusb_host_cdc_msc_hid.dir/home/boemmelsebastian/pico/pico-sdk/src/common/pico_time/time.c.obj
 .text          0x0000000000000000        0x0 CMakeFiles/tinyusb_host_cdc_msc_hid.dir/home/boemmelsebastian/pico/pico-sdk/src/common/pico_time/timeout_helper.c.obj
 .data          0x0000000000000000        0x0 CMakeFiles/tinyusb_host_cdc_msc_hid.dir/home/boemmelsebastian/pico/pico-sdk/src/common/pico_time/timeout_helper.c.obj
 .bss           0x0000000000000000        0x0 CMakeFiles/tinyusb_host_cdc_msc_hid.dir/home/boemmelsebastian/pico/pico-sdk/src/common/pico_time/timeout_helper.c.obj
 .text.check_single_timeout_us
                0x0000000000000000       0x2c CMakeFiles/tinyusb_host_cdc_msc_hid.dir/home/boemmelsebastian/pico/pico-sdk/src/common/pico_time/timeout_helper.c.obj
 .text.check_per_iteration_timeout_us
                0x0000000000000000       0x88 CMakeFiles/tinyusb_host_cdc_msc_hid.dir/home/boemmelsebastian/pico/pico-sdk/src/common/pico_time/timeout_helper.c.obj
 .text.init_single_timeout_until
                0x0000000000000000        0xc CMakeFiles/tinyusb_host_cdc_msc_hid.dir/home/boemmelsebastian/pico/pico-sdk/src/common/pico_time/timeout_helper.c.obj
 .text.init_per_iteration_timeout_us
                0x0000000000000000       0x60 CMakeFiles/tinyusb_host_cdc_msc_hid.dir/home/boemmelsebastian/pico/pico-sdk/src/common/pico_time/timeout_helper.c.obj
 .rodata.__func__.4243
                0x0000000000000000       0x15 CMakeFiles/tinyusb_host_cdc_msc_hid.dir/home/boemmelsebastian/pico/pico-sdk/src/common/pico_time/timeout_helper.c.obj
 .rodata.check_per_iteration_timeout_us.str1.4
                0x0000000000000000       0x6b CMakeFiles/tinyusb_host_cdc_msc_hid.dir/home/boemmelsebastian/pico/pico-sdk/src/common/pico_time/timeout_helper.c.obj
 .debug_info    0x0000000000000000      0x7fb CMakeFiles/tinyusb_host_cdc_msc_hid.dir/home/boemmelsebastian/pico/pico-sdk/src/common/pico_time/timeout_helper.c.obj
 .debug_abbrev  0x0000000000000000      0x256 CMakeFiles/tinyusb_host_cdc_msc_hid.dir/home/boemmelsebastian/pico/pico-sdk/src/common/pico_time/timeout_helper.c.obj
 .debug_loc     0x0000000000000000      0x464 CMakeFiles/tinyusb_host_cdc_msc_hid.dir/home/boemmelsebastian/pico/pico-sdk/src/common/pico_time/timeout_helper.c.obj
 .debug_aranges
                0x0000000000000000       0x38 CMakeFiles/tinyusb_host_cdc_msc_hid.dir/home/boemmelsebastian/pico/pico-sdk/src/common/pico_time/timeout_helper.c.obj
 .debug_ranges  0x0000000000000000      0x148 CMakeFiles/tinyusb_host_cdc_msc_hid.dir/home/boemmelsebastian/pico/pico-sdk/src/common/pico_time/timeout_helper.c.obj
 .debug_line    0x0000000000000000      0x4d6 CMakeFiles/tinyusb_host_cdc_msc_hid.dir/home/boemmelsebastian/pico/pico-sdk/src/common/pico_time/timeout_helper.c.obj
 .debug_str     0x0000000000000000      0x44c CMakeFiles/tinyusb_host_cdc_msc_hid.dir/home/boemmelsebastian/pico/pico-sdk/src/common/pico_time/timeout_helper.c.obj
 .comment       0x0000000000000000       0x52 CMakeFiles/tinyusb_host_cdc_msc_hid.dir/home/boemmelsebastian/pico/pico-sdk/src/common/pico_time/timeout_helper.c.obj
 .debug_frame   0x0000000000000000       0x6c CMakeFiles/tinyusb_host_cdc_msc_hid.dir/home/boemmelsebastian/pico/pico-sdk/src/common/pico_time/timeout_helper.c.obj
 .ARM.attributes
                0x0000000000000000       0x2c CMakeFiles/tinyusb_host_cdc_msc_hid.dir/home/boemmelsebastian/pico/pico-sdk/src/common/pico_time/timeout_helper.c.obj
 .text          0x0000000000000000        0x0 CMakeFiles/tinyusb_host_cdc_msc_hid.dir/home/boemmelsebastian/pico/pico-sdk/src/rp2_common/hardware_timer/timer.c.obj
 .data          0x0000000000000000        0x0 CMakeFiles/tinyusb_host_cdc_msc_hid.dir/home/boemmelsebastian/pico/pico-sdk/src/rp2_common/hardware_timer/timer.c.obj
 .bss           0x0000000000000000        0x0 CMakeFiles/tinyusb_host_cdc_msc_hid.dir/home/boemmelsebastian/pico/pico-sdk/src/rp2_common/hardware_timer/timer.c.obj
 .text.hardware_alarm_unclaim
                0x0000000000000000       0x10 CMakeFiles/tinyusb_host_cdc_msc_hid.dir/home/boemmelsebastian/pico/pico-sdk/src/rp2_common/hardware_timer/timer.c.obj
 .text.hardware_alarm_is_claimed
                0x0000000000000000       0x10 CMakeFiles/tinyusb_host_cdc_msc_hid.dir/home/boemmelsebastian/pico/pico-sdk/src/rp2_common/hardware_timer/timer.c.obj
 .text.busy_wait_us_32
                0x0000000000000000       0x24 CMakeFiles/tinyusb_host_cdc_msc_hid.dir/home/boemmelsebastian/pico/pico-sdk/src/rp2_common/hardware_timer/timer.c.obj
 .text.busy_wait_ms
                0x0000000000000000       0x30 CMakeFiles/tinyusb_host_cdc_msc_hid.dir/home/boemmelsebastian/pico/pico-sdk/src/rp2_common/hardware_timer/timer.c.obj
 .text          0x0000000000000000        0x0 CMakeFiles/tinyusb_host_cdc_msc_hid.dir/home/boemmelsebastian/pico/pico-sdk/src/common/pico_sync/sem.c.obj
 .data          0x0000000000000000        0x0 CMakeFiles/tinyusb_host_cdc_msc_hid.dir/home/boemmelsebastian/pico/pico-sdk/src/common/pico_sync/sem.c.obj
 .bss           0x0000000000000000        0x0 CMakeFiles/tinyusb_host_cdc_msc_hid.dir/home/boemmelsebastian/pico/pico-sdk/src/common/pico_sync/sem.c.obj
 .text.sem_init
                0x0000000000000000       0x1e CMakeFiles/tinyusb_host_cdc_msc_hid.dir/home/boemmelsebastian/pico/pico-sdk/src/common/pico_sync/sem.c.obj
 .time_critical.sem_available
                0x0000000000000000        0x6 CMakeFiles/tinyusb_host_cdc_msc_hid.dir/home/boemmelsebastian/pico/pico-sdk/src/common/pico_sync/sem.c.obj
 .time_critical.sem_acquire_blocking
                0x0000000000000000       0x42 CMakeFiles/tinyusb_host_cdc_msc_hid.dir/home/boemmelsebastian/pico/pico-sdk/src/common/pico_sync/sem.c.obj
 .time_critical.sem_acquire_block_until
                0x0000000000000000       0x58 CMakeFiles/tinyusb_host_cdc_msc_hid.dir/home/boemmelsebastian/pico/pico-sdk/src/common/pico_sync/sem.c.obj
 .time_critical.sem_acquire_timeout_ms
                0x0000000000000000       0x6c CMakeFiles/tinyusb_host_cdc_msc_hid.dir/home/boemmelsebastian/pico/pico-sdk/src/common/pico_sync/sem.c.obj
 .time_critical.sem_acquire_timeout_us
                0x0000000000000000       0x5c CMakeFiles/tinyusb_host_cdc_msc_hid.dir/home/boemmelsebastian/pico/pico-sdk/src/common/pico_sync/sem.c.obj
 .time_critical.sem_release
                0x0000000000000000       0x4a CMakeFiles/tinyusb_host_cdc_msc_hid.dir/home/boemmelsebastian/pico/pico-sdk/src/common/pico_sync/sem.c.obj
 .time_critical.sem_reset
                0x0000000000000000       0x68 CMakeFiles/tinyusb_host_cdc_msc_hid.dir/home/boemmelsebastian/pico/pico-sdk/src/common/pico_sync/sem.c.obj
 .rodata.__func__.4243
                0x0000000000000000       0x15 CMakeFiles/tinyusb_host_cdc_msc_hid.dir/home/boemmelsebastian/pico/pico-sdk/src/common/pico_sync/sem.c.obj
 .rodata.__func__.4695
                0x0000000000000000        0xa CMakeFiles/tinyusb_host_cdc_msc_hid.dir/home/boemmelsebastian/pico/pico-sdk/src/common/pico_sync/sem.c.obj
 .rodata.str1.4
                0x0000000000000000       0xd8 CMakeFiles/tinyusb_host_cdc_msc_hid.dir/home/boemmelsebastian/pico/pico-sdk/src/common/pico_sync/sem.c.obj
 .debug_info    0x0000000000000000     0x120d CMakeFiles/tinyusb_host_cdc_msc_hid.dir/home/boemmelsebastian/pico/pico-sdk/src/common/pico_sync/sem.c.obj
 .debug_abbrev  0x0000000000000000      0x356 CMakeFiles/tinyusb_host_cdc_msc_hid.dir/home/boemmelsebastian/pico/pico-sdk/src/common/pico_sync/sem.c.obj
 .debug_loc     0x0000000000000000      0xa09 CMakeFiles/tinyusb_host_cdc_msc_hid.dir/home/boemmelsebastian/pico/pico-sdk/src/common/pico_sync/sem.c.obj
 .debug_aranges
                0x0000000000000000       0x58 CMakeFiles/tinyusb_host_cdc_msc_hid.dir/home/boemmelsebastian/pico/pico-sdk/src/common/pico_sync/sem.c.obj
 .debug_ranges  0x0000000000000000      0x5c0 CMakeFiles/tinyusb_host_cdc_msc_hid.dir/home/boemmelsebastian/pico/pico-sdk/src/common/pico_sync/sem.c.obj
 .debug_line    0x0000000000000000      0x8e3 CMakeFiles/tinyusb_host_cdc_msc_hid.dir/home/boemmelsebastian/pico/pico-sdk/src/common/pico_sync/sem.c.obj
 .debug_str     0x0000000000000000      0x522 CMakeFiles/tinyusb_host_cdc_msc_hid.dir/home/boemmelsebastian/pico/pico-sdk/src/common/pico_sync/sem.c.obj
 .comment       0x0000000000000000       0x52 CMakeFiles/tinyusb_host_cdc_msc_hid.dir/home/boemmelsebastian/pico/pico-sdk/src/common/pico_sync/sem.c.obj
 .debug_frame   0x0000000000000000       0xd8 CMakeFiles/tinyusb_host_cdc_msc_hid.dir/home/boemmelsebastian/pico/pico-sdk/src/common/pico_sync/sem.c.obj
 .ARM.attributes
                0x0000000000000000       0x2c CMakeFiles/tinyusb_host_cdc_msc_hid.dir/home/boemmelsebastian/pico/pico-sdk/src/common/pico_sync/sem.c.obj
 .text          0x0000000000000000        0x0 CMakeFiles/tinyusb_host_cdc_msc_hid.dir/home/boemmelsebastian/pico/pico-sdk/src/common/pico_sync/lock_core.c.obj
 .data          0x0000000000000000        0x0 CMakeFiles/tinyusb_host_cdc_msc_hid.dir/home/boemmelsebastian/pico/pico-sdk/src/common/pico_sync/lock_core.c.obj
 .bss           0x0000000000000000        0x0 CMakeFiles/tinyusb_host_cdc_msc_hid.dir/home/boemmelsebastian/pico/pico-sdk/src/common/pico_sync/lock_core.c.obj
 .text          0x0000000000000000        0x0 CMakeFiles/tinyusb_host_cdc_msc_hid.dir/home/boemmelsebastian/pico/pico-sdk/src/common/pico_sync/mutex.c.obj
 .data          0x0000000000000000        0x0 CMakeFiles/tinyusb_host_cdc_msc_hid.dir/home/boemmelsebastian/pico/pico-sdk/src/common/pico_sync/mutex.c.obj
 .bss           0x0000000000000000        0x0 CMakeFiles/tinyusb_host_cdc_msc_hid.dir/home/boemmelsebastian/pico/pico-sdk/src/common/pico_sync/mutex.c.obj
 .time_critical.recursive_mutex_enter_blocking
                0x0000000000000000       0x70 CMakeFiles/tinyusb_host_cdc_msc_hid.dir/home/boemmelsebastian/pico/pico-sdk/src/common/pico_sync/mutex.c.obj
 .time_critical.recursive_mutex_try_enter
                0x0000000000000000       0x70 CMakeFiles/tinyusb_host_cdc_msc_hid.dir/home/boemmelsebastian/pico/pico-sdk/src/common/pico_sync/mutex.c.obj
 .time_critical.mutex_enter_timeout_us
                0x0000000000000000       0x5c CMakeFiles/tinyusb_host_cdc_msc_hid.dir/home/boemmelsebastian/pico/pico-sdk/src/common/pico_sync/mutex.c.obj
 .time_critical.recursive_mutex_enter_block_until
                0x0000000000000000       0x9c CMakeFiles/tinyusb_host_cdc_msc_hid.dir/home/boemmelsebastian/pico/pico-sdk/src/common/pico_sync/mutex.c.obj
 .time_critical.recursive_mutex_enter_timeout_ms
                0x0000000000000000       0x6c CMakeFiles/tinyusb_host_cdc_msc_hid.dir/home/boemmelsebastian/pico/pico-sdk/src/common/pico_sync/mutex.c.obj
 .time_critical.recursive_mutex_enter_timeout_us
                0x0000000000000000       0x5c CMakeFiles/tinyusb_host_cdc_msc_hid.dir/home/boemmelsebastian/pico/pico-sdk/src/common/pico_sync/mutex.c.obj
 .time_critical.recursive_mutex_exit
                0x0000000000000000       0x7c CMakeFiles/tinyusb_host_cdc_msc_hid.dir/home/boemmelsebastian/pico/pico-sdk/src/common/pico_sync/mutex.c.obj
 .rodata.__func__.4700
                0x0000000000000000       0x1f CMakeFiles/tinyusb_host_cdc_msc_hid.dir/home/boemmelsebastian/pico/pico-sdk/src/common/pico_sync/mutex.c.obj
 .rodata.__func__.4716
                0x0000000000000000       0x1a CMakeFiles/tinyusb_host_cdc_msc_hid.dir/home/boemmelsebastian/pico/pico-sdk/src/common/pico_sync/mutex.c.obj
 .rodata.__func__.4746
                0x0000000000000000       0x22 CMakeFiles/tinyusb_host_cdc_msc_hid.dir/home/boemmelsebastian/pico/pico-sdk/src/common/pico_sync/mutex.c.obj
 .rodata.__func__.4761
                0x0000000000000000       0x15 CMakeFiles/tinyusb_host_cdc_msc_hid.dir/home/boemmelsebastian/pico/pico-sdk/src/common/pico_sync/mutex.c.obj
 .text          0x0000000000000000        0x0 CMakeFiles/tinyusb_host_cdc_msc_hid.dir/home/boemmelsebastian/pico/pico-sdk/src/common/pico_sync/critical_section.c.obj
 .data          0x0000000000000000        0x0 CMakeFiles/tinyusb_host_cdc_msc_hid.dir/home/boemmelsebastian/pico/pico-sdk/src/common/pico_sync/critical_section.c.obj
 .bss           0x0000000000000000        0x0 CMakeFiles/tinyusb_host_cdc_msc_hid.dir/home/boemmelsebastian/pico/pico-sdk/src/common/pico_sync/critical_section.c.obj
 .text.critical_section_deinit
                0x0000000000000000       0x20 CMakeFiles/tinyusb_host_cdc_msc_hid.dir/home/boemmelsebastian/pico/pico-sdk/src/common/pico_sync/critical_section.c.obj
 .text          0x0000000000000000        0x0 CMakeFiles/tinyusb_host_cdc_msc_hid.dir/home/boemmelsebastian/pico/pico-sdk/src/common/pico_util/datetime.c.obj
 .data          0x0000000000000000        0x0 CMakeFiles/tinyusb_host_cdc_msc_hid.dir/home/boemmelsebastian/pico/pico-sdk/src/common/pico_util/datetime.c.obj
 .bss           0x0000000000000000        0x0 CMakeFiles/tinyusb_host_cdc_msc_hid.dir/home/boemmelsebastian/pico/pico-sdk/src/common/pico_util/datetime.c.obj
 .text.datetime_to_str
                0x0000000000000000       0x64 CMakeFiles/tinyusb_host_cdc_msc_hid.dir/home/boemmelsebastian/pico/pico-sdk/src/common/pico_util/datetime.c.obj
 .rodata.DATETIME_DOWS
                0x0000000000000000       0x1c CMakeFiles/tinyusb_host_cdc_msc_hid.dir/home/boemmelsebastian/pico/pico-sdk/src/common/pico_util/datetime.c.obj
 .rodata.DATETIME_MONTHS
                0x0000000000000000       0x30 CMakeFiles/tinyusb_host_cdc_msc_hid.dir/home/boemmelsebastian/pico/pico-sdk/src/common/pico_util/datetime.c.obj
 .rodata.datetime_to_str.str1.4
                0x0000000000000000       0x19 CMakeFiles/tinyusb_host_cdc_msc_hid.dir/home/boemmelsebastian/pico/pico-sdk/src/common/pico_util/datetime.c.obj
 .rodata.str1.4
                0x0000000000000000       0xad CMakeFiles/tinyusb_host_cdc_msc_hid.dir/home/boemmelsebastian/pico/pico-sdk/src/common/pico_util/datetime.c.obj
 .debug_info    0x0000000000000000      0xa90 CMakeFiles/tinyusb_host_cdc_msc_hid.dir/home/boemmelsebastian/pico/pico-sdk/src/common/pico_util/datetime.c.obj
 .debug_abbrev  0x0000000000000000      0x221 CMakeFiles/tinyusb_host_cdc_msc_hid.dir/home/boemmelsebastian/pico/pico-sdk/src/common/pico_util/datetime.c.obj
 .debug_loc     0x0000000000000000       0x6f CMakeFiles/tinyusb_host_cdc_msc_hid.dir/home/boemmelsebastian/pico/pico-sdk/src/common/pico_util/datetime.c.obj
 .debug_aranges
                0x0000000000000000       0x20 CMakeFiles/tinyusb_host_cdc_msc_hid.dir/home/boemmelsebastian/pico/pico-sdk/src/common/pico_util/datetime.c.obj
 .debug_ranges  0x0000000000000000       0x10 CMakeFiles/tinyusb_host_cdc_msc_hid.dir/home/boemmelsebastian/pico/pico-sdk/src/common/pico_util/datetime.c.obj
 .debug_line    0x0000000000000000      0x185 CMakeFiles/tinyusb_host_cdc_msc_hid.dir/home/boemmelsebastian/pico/pico-sdk/src/common/pico_util/datetime.c.obj
 .debug_str     0x0000000000000000      0x63b CMakeFiles/tinyusb_host_cdc_msc_hid.dir/home/boemmelsebastian/pico/pico-sdk/src/common/pico_util/datetime.c.obj
 .comment       0x0000000000000000       0x52 CMakeFiles/tinyusb_host_cdc_msc_hid.dir/home/boemmelsebastian/pico/pico-sdk/src/common/pico_util/datetime.c.obj
 .debug_frame   0x0000000000000000       0x38 CMakeFiles/tinyusb_host_cdc_msc_hid.dir/home/boemmelsebastian/pico/pico-sdk/src/common/pico_util/datetime.c.obj
 .ARM.attributes
                0x0000000000000000       0x2c CMakeFiles/tinyusb_host_cdc_msc_hid.dir/home/boemmelsebastian/pico/pico-sdk/src/common/pico_util/datetime.c.obj
 .text          0x0000000000000000        0x0 CMakeFiles/tinyusb_host_cdc_msc_hid.dir/home/boemmelsebastian/pico/pico-sdk/src/common/pico_util/pheap.c.obj
 .data          0x0000000000000000        0x0 CMakeFiles/tinyusb_host_cdc_msc_hid.dir/home/boemmelsebastian/pico/pico-sdk/src/common/pico_util/pheap.c.obj
 .bss           0x0000000000000000        0x0 CMakeFiles/tinyusb_host_cdc_msc_hid.dir/home/boemmelsebastian/pico/pico-sdk/src/common/pico_util/pheap.c.obj
 .text.ph_dump_node
                0x0000000000000000       0xa0 CMakeFiles/tinyusb_host_cdc_msc_hid.dir/home/boemmelsebastian/pico/pico-sdk/src/common/pico_util/pheap.c.obj
 .text.ph_create
                0x0000000000000000       0x2c CMakeFiles/tinyusb_host_cdc_msc_hid.dir/home/boemmelsebastian/pico/pico-sdk/src/common/pico_util/pheap.c.obj
 .text.ph_destroy
                0x0000000000000000       0x12 CMakeFiles/tinyusb_host_cdc_msc_hid.dir/home/boemmelsebastian/pico/pico-sdk/src/common/pico_util/pheap.c.obj
 .text.ph_dump  0x0000000000000000       0x24 CMakeFiles/tinyusb_host_cdc_msc_hid.dir/home/boemmelsebastian/pico/pico-sdk/src/common/pico_util/pheap.c.obj
 .rodata.ph_dump.str1.4
                0x0000000000000000        0xf CMakeFiles/tinyusb_host_cdc_msc_hid.dir/home/boemmelsebastian/pico/pico-sdk/src/common/pico_util/pheap.c.obj
 .rodata.ph_dump_node.str1.4
                0x0000000000000000       0x15 CMakeFiles/tinyusb_host_cdc_msc_hid.dir/home/boemmelsebastian/pico/pico-sdk/src/common/pico_util/pheap.c.obj
 .text          0x0000000000000000        0x0 CMakeFiles/tinyusb_host_cdc_msc_hid.dir/home/boemmelsebastian/pico/pico-sdk/src/common/pico_util/queue.c.obj
 .data          0x0000000000000000        0x0 CMakeFiles/tinyusb_host_cdc_msc_hid.dir/home/boemmelsebastian/pico/pico-sdk/src/common/pico_util/queue.c.obj
 .bss           0x0000000000000000        0x0 CMakeFiles/tinyusb_host_cdc_msc_hid.dir/home/boemmelsebastian/pico/pico-sdk/src/common/pico_util/queue.c.obj
 .text.queue_add_internal
                0x0000000000000000       0xa0 CMakeFiles/tinyusb_host_cdc_msc_hid.dir/home/boemmelsebastian/pico/pico-sdk/src/common/pico_util/queue.c.obj
 .text.queue_remove_internal
                0x0000000000000000       0xa4 CMakeFiles/tinyusb_host_cdc_msc_hid.dir/home/boemmelsebastian/pico/pico-sdk/src/common/pico_util/queue.c.obj
 .text.queue_peek_internal
                0x0000000000000000       0x94 CMakeFiles/tinyusb_host_cdc_msc_hid.dir/home/boemmelsebastian/pico/pico-sdk/src/common/pico_util/queue.c.obj
 .text.queue_init_with_spinlock
                0x0000000000000000       0x24 CMakeFiles/tinyusb_host_cdc_msc_hid.dir/home/boemmelsebastian/pico/pico-sdk/src/common/pico_util/queue.c.obj
 .text.queue_free
                0x0000000000000000        0xa CMakeFiles/tinyusb_host_cdc_msc_hid.dir/home/boemmelsebastian/pico/pico-sdk/src/common/pico_util/queue.c.obj
 .text.queue_try_add
                0x0000000000000000        0xa CMakeFiles/tinyusb_host_cdc_msc_hid.dir/home/boemmelsebastian/pico/pico-sdk/src/common/pico_util/queue.c.obj
 .text.queue_try_remove
                0x0000000000000000        0xa CMakeFiles/tinyusb_host_cdc_msc_hid.dir/home/boemmelsebastian/pico/pico-sdk/src/common/pico_util/queue.c.obj
 .text.queue_try_peek
                0x0000000000000000        0xa CMakeFiles/tinyusb_host_cdc_msc_hid.dir/home/boemmelsebastian/pico/pico-sdk/src/common/pico_util/queue.c.obj
 .text.queue_add_blocking
                0x0000000000000000        0xa CMakeFiles/tinyusb_host_cdc_msc_hid.dir/home/boemmelsebastian/pico/pico-sdk/src/common/pico_util/queue.c.obj
 .text.queue_remove_blocking
                0x0000000000000000        0xa CMakeFiles/tinyusb_host_cdc_msc_hid.dir/home/boemmelsebastian/pico/pico-sdk/src/common/pico_util/queue.c.obj
 .text.queue_peek_blocking
                0x0000000000000000        0xa CMakeFiles/tinyusb_host_cdc_msc_hid.dir/home/boemmelsebastian/pico/pico-sdk/src/common/pico_util/queue.c.obj
 .rodata.__func__.5492
                0x0000000000000000        0xc CMakeFiles/tinyusb_host_cdc_msc_hid.dir/home/boemmelsebastian/pico/pico-sdk/src/common/pico_util/queue.c.obj
 .rodata.queue_add_internal.str1.4
                0x0000000000000000       0x5e CMakeFiles/tinyusb_host_cdc_msc_hid.dir/home/boemmelsebastian/pico/pico-sdk/src/common/pico_util/queue.c.obj
 .debug_info    0x0000000000000000     0x1ace CMakeFiles/tinyusb_host_cdc_msc_hid.dir/home/boemmelsebastian/pico/pico-sdk/src/common/pico_util/queue.c.obj
 .debug_abbrev  0x0000000000000000      0x446 CMakeFiles/tinyusb_host_cdc_msc_hid.dir/home/boemmelsebastian/pico/pico-sdk/src/common/pico_util/queue.c.obj
 .debug_loc     0x0000000000000000      0xd09 CMakeFiles/tinyusb_host_cdc_msc_hid.dir/home/boemmelsebastian/pico/pico-sdk/src/common/pico_util/queue.c.obj
 .debug_aranges
                0x0000000000000000       0x70 CMakeFiles/tinyusb_host_cdc_msc_hid.dir/home/boemmelsebastian/pico/pico-sdk/src/common/pico_util/queue.c.obj
 .debug_ranges  0x0000000000000000      0x630 CMakeFiles/tinyusb_host_cdc_msc_hid.dir/home/boemmelsebastian/pico/pico-sdk/src/common/pico_util/queue.c.obj
 .debug_line    0x0000000000000000      0x9d0 CMakeFiles/tinyusb_host_cdc_msc_hid.dir/home/boemmelsebastian/pico/pico-sdk/src/common/pico_util/queue.c.obj
 .debug_str     0x0000000000000000      0x8d1 CMakeFiles/tinyusb_host_cdc_msc_hid.dir/home/boemmelsebastian/pico/pico-sdk/src/common/pico_util/queue.c.obj
 .comment       0x0000000000000000       0x52 CMakeFiles/tinyusb_host_cdc_msc_hid.dir/home/boemmelsebastian/pico/pico-sdk/src/common/pico_util/queue.c.obj
 .debug_frame   0x0000000000000000      0x12c CMakeFiles/tinyusb_host_cdc_msc_hid.dir/home/boemmelsebastian/pico/pico-sdk/src/common/pico_util/queue.c.obj
 .ARM.attributes
                0x0000000000000000       0x2c CMakeFiles/tinyusb_host_cdc_msc_hid.dir/home/boemmelsebastian/pico/pico-sdk/src/common/pico_util/queue.c.obj
 .text          0x0000000000000000        0x0 CMakeFiles/tinyusb_host_cdc_msc_hid.dir/home/boemmelsebastian/pico/pico-sdk/src/rp2_common/pico_runtime/runtime.c.obj
 .data          0x0000000000000000        0x0 CMakeFiles/tinyusb_host_cdc_msc_hid.dir/home/boemmelsebastian/pico/pico-sdk/src/rp2_common/pico_runtime/runtime.c.obj
 .bss           0x0000000000000000        0x0 CMakeFiles/tinyusb_host_cdc_msc_hid.dir/home/boemmelsebastian/pico/pico-sdk/src/rp2_common/pico_runtime/runtime.c.obj
 .text.runtime_install_stack_guard
                0x0000000000000000       0x40 CMakeFiles/tinyusb_host_cdc_msc_hid.dir/home/boemmelsebastian/pico/pico-sdk/src/rp2_common/pico_runtime/runtime.c.obj
 .text.panic_unsupported
                0x0000000000000000        0xc CMakeFiles/tinyusb_host_cdc_msc_hid.dir/home/boemmelsebastian/pico/pico-sdk/src/rp2_common/pico_runtime/runtime.c.obj
 .text.hard_assertion_failure
                0x0000000000000000        0xc CMakeFiles/tinyusb_host_cdc_msc_hid.dir/home/boemmelsebastian/pico/pico-sdk/src/rp2_common/pico_runtime/runtime.c.obj
 .rodata.hard_assertion_failure.str1.4
                0x0000000000000000        0xc CMakeFiles/tinyusb_host_cdc_msc_hid.dir/home/boemmelsebastian/pico/pico-sdk/src/rp2_common/pico_runtime/runtime.c.obj
 .rodata.panic_unsupported.str1.4
                0x0000000000000000        0xe CMakeFiles/tinyusb_host_cdc_msc_hid.dir/home/boemmelsebastian/pico/pico-sdk/src/rp2_common/pico_runtime/runtime.c.obj
 .text          0x0000000000000000        0x0 CMakeFiles/tinyusb_host_cdc_msc_hid.dir/home/boemmelsebastian/pico/pico-sdk/src/rp2_common/hardware_clocks/clocks.c.obj
 .data          0x0000000000000000        0x0 CMakeFiles/tinyusb_host_cdc_msc_hid.dir/home/boemmelsebastian/pico/pico-sdk/src/rp2_common/hardware_clocks/clocks.c.obj
 .bss           0x0000000000000000        0x0 CMakeFiles/tinyusb_host_cdc_msc_hid.dir/home/boemmelsebastian/pico/pico-sdk/src/rp2_common/hardware_clocks/clocks.c.obj
 .text.clock_stop
                0x0000000000000000       0x2c CMakeFiles/tinyusb_host_cdc_msc_hid.dir/home/boemmelsebastian/pico/pico-sdk/src/rp2_common/hardware_clocks/clocks.c.obj
 .text.clocks_handle_resus
                0x0000000000000000       0x80 CMakeFiles/tinyusb_host_cdc_msc_hid.dir/home/boemmelsebastian/pico/pico-sdk/src/rp2_common/hardware_clocks/clocks.c.obj
 .text.clocks_irq_handler
                0x0000000000000000       0x2c CMakeFiles/tinyusb_host_cdc_msc_hid.dir/home/boemmelsebastian/pico/pico-sdk/src/rp2_common/hardware_clocks/clocks.c.obj
 .text.clock_set_reported_hz
                0x0000000000000000        0xc CMakeFiles/tinyusb_host_cdc_msc_hid.dir/home/boemmelsebastian/pico/pico-sdk/src/rp2_common/hardware_clocks/clocks.c.obj
 .text.frequency_count_khz
                0x0000000000000000       0x40 CMakeFiles/tinyusb_host_cdc_msc_hid.dir/home/boemmelsebastian/pico/pico-sdk/src/rp2_common/hardware_clocks/clocks.c.obj
 .text.clocks_enable_resus
                0x0000000000000000       0x34 CMakeFiles/tinyusb_host_cdc_msc_hid.dir/home/boemmelsebastian/pico/pico-sdk/src/rp2_common/hardware_clocks/clocks.c.obj
 .text.clock_gpio_init
                0x0000000000000000       0x4c CMakeFiles/tinyusb_host_cdc_msc_hid.dir/home/boemmelsebastian/pico/pico-sdk/src/rp2_common/hardware_clocks/clocks.c.obj
 .text.clock_configure_gpin
                0x0000000000000000       0x50 CMakeFiles/tinyusb_host_cdc_msc_hid.dir/home/boemmelsebastian/pico/pico-sdk/src/rp2_common/hardware_clocks/clocks.c.obj
 .bss._resus_callback
                0x0000000000000000        0x4 CMakeFiles/tinyusb_host_cdc_msc_hid.dir/home/boemmelsebastian/pico/pico-sdk/src/rp2_common/hardware_clocks/clocks.c.obj
 .rodata.__func__.4802
                0x0000000000000000       0x14 CMakeFiles/tinyusb_host_cdc_msc_hid.dir/home/boemmelsebastian/pico/pico-sdk/src/rp2_common/hardware_clocks/clocks.c.obj
 .rodata.clocks_handle_resus.str1.4
                0x0000000000000000       0x8b CMakeFiles/tinyusb_host_cdc_msc_hid.dir/home/boemmelsebastian/pico/pico-sdk/src/rp2_common/hardware_clocks/clocks.c.obj
 .rodata.clocks_irq_handler.str1.4
                0x0000000000000000       0x17 CMakeFiles/tinyusb_host_cdc_msc_hid.dir/home/boemmelsebastian/pico/pico-sdk/src/rp2_common/hardware_clocks/clocks.c.obj
 .rodata.gpin0_src
                0x0000000000000000        0xa CMakeFiles/tinyusb_host_cdc_msc_hid.dir/home/boemmelsebastian/pico/pico-sdk/src/rp2_common/hardware_clocks/clocks.c.obj
 .text          0x0000000000000000        0x0 CMakeFiles/tinyusb_host_cdc_msc_hid.dir/home/boemmelsebastian/pico/pico-sdk/src/rp2_common/hardware_irq/irq.c.obj
 .data          0x0000000000000000        0x0 CMakeFiles/tinyusb_host_cdc_msc_hid.dir/home/boemmelsebastian/pico/pico-sdk/src/rp2_common/hardware_irq/irq.c.obj
 .bss           0x0000000000000000        0x0 CMakeFiles/tinyusb_host_cdc_msc_hid.dir/home/boemmelsebastian/pico/pico-sdk/src/rp2_common/hardware_irq/irq.c.obj
 .text.irq_set_pending
                0x0000000000000000       0x10 CMakeFiles/tinyusb_host_cdc_msc_hid.dir/home/boemmelsebastian/pico/pico-sdk/src/rp2_common/hardware_irq/irq.c.obj
 .text.irq_get_exclusive_handler
                0x0000000000000000       0x4c CMakeFiles/tinyusb_host_cdc_msc_hid.dir/home/boemmelsebastian/pico/pico-sdk/src/rp2_common/hardware_irq/irq.c.obj
 .text.irq_add_shared_handler
                0x0000000000000000      0x224 CMakeFiles/tinyusb_host_cdc_msc_hid.dir/home/boemmelsebastian/pico/pico-sdk/src/rp2_common/hardware_irq/irq.c.obj
 .text.irq_set_priority
                0x0000000000000000       0x28 CMakeFiles/tinyusb_host_cdc_msc_hid.dir/home/boemmelsebastian/pico/pico-sdk/src/rp2_common/hardware_irq/irq.c.obj
 .text.irq_get_priority
                0x0000000000000000       0x20 CMakeFiles/tinyusb_host_cdc_msc_hid.dir/home/boemmelsebastian/pico/pico-sdk/src/rp2_common/hardware_irq/irq.c.obj
 .rodata.__func__.4832
                0x0000000000000000       0x17 CMakeFiles/tinyusb_host_cdc_msc_hid.dir/home/boemmelsebastian/pico/pico-sdk/src/rp2_common/hardware_irq/irq.c.obj
 .text          0x0000000000000000        0x0 CMakeFiles/tinyusb_host_cdc_msc_hid.dir/home/boemmelsebastian/pico/pico-sdk/src/rp2_common/hardware_irq/irq_handler_chain.S.obj
 .bss           0x0000000000000000        0x0 CMakeFiles/tinyusb_host_cdc_msc_hid.dir/home/boemmelsebastian/pico/pico-sdk/src/rp2_common/hardware_irq/irq_handler_chain.S.obj
 .text          0x0000000000000000        0x0 CMakeFiles/tinyusb_host_cdc_msc_hid.dir/home/boemmelsebastian/pico/pico-sdk/src/rp2_common/hardware_pll/pll.c.obj
 .data          0x0000000000000000        0x0 CMakeFiles/tinyusb_host_cdc_msc_hid.dir/home/boemmelsebastian/pico/pico-sdk/src/rp2_common/hardware_pll/pll.c.obj
 .bss           0x0000000000000000        0x0 CMakeFiles/tinyusb_host_cdc_msc_hid.dir/home/boemmelsebastian/pico/pico-sdk/src/rp2_common/hardware_pll/pll.c.obj
 .text.pll_deinit
                0x0000000000000000        0x6 CMakeFiles/tinyusb_host_cdc_msc_hid.dir/home/boemmelsebastian/pico/pico-sdk/src/rp2_common/hardware_pll/pll.c.obj
 .text          0x0000000000000000        0x0 CMakeFiles/tinyusb_host_cdc_msc_hid.dir/home/boemmelsebastian/pico/pico-sdk/src/rp2_common/hardware_vreg/vreg.c.obj
 .data          0x0000000000000000        0x0 CMakeFiles/tinyusb_host_cdc_msc_hid.dir/home/boemmelsebastian/pico/pico-sdk/src/rp2_common/hardware_vreg/vreg.c.obj
 .bss           0x0000000000000000        0x0 CMakeFiles/tinyusb_host_cdc_msc_hid.dir/home/boemmelsebastian/pico/pico-sdk/src/rp2_common/hardware_vreg/vreg.c.obj
 .text.vreg_set_voltage
                0x0000000000000000       0x1c CMakeFiles/tinyusb_host_cdc_msc_hid.dir/home/boemmelsebastian/pico/pico-sdk/src/rp2_common/hardware_vreg/vreg.c.obj
 .debug_info    0x0000000000000000      0x238 CMakeFiles/tinyusb_host_cdc_msc_hid.dir/home/boemmelsebastian/pico/pico-sdk/src/rp2_common/hardware_vreg/vreg.c.obj
 .debug_abbrev  0x0000000000000000      0x11d CMakeFiles/tinyusb_host_cdc_msc_hid.dir/home/boemmelsebastian/pico/pico-sdk/src/rp2_common/hardware_vreg/vreg.c.obj
 .debug_loc     0x0000000000000000       0x9a CMakeFiles/tinyusb_host_cdc_msc_hid.dir/home/boemmelsebastian/pico/pico-sdk/src/rp2_common/hardware_vreg/vreg.c.obj
 .debug_aranges
                0x0000000000000000       0x20 CMakeFiles/tinyusb_host_cdc_msc_hid.dir/home/boemmelsebastian/pico/pico-sdk/src/rp2_common/hardware_vreg/vreg.c.obj
 .debug_ranges  0x0000000000000000       0x10 CMakeFiles/tinyusb_host_cdc_msc_hid.dir/home/boemmelsebastian/pico/pico-sdk/src/rp2_common/hardware_vreg/vreg.c.obj
 .debug_line    0x0000000000000000      0x26b CMakeFiles/tinyusb_host_cdc_msc_hid.dir/home/boemmelsebastian/pico/pico-sdk/src/rp2_common/hardware_vreg/vreg.c.obj
 .debug_str     0x0000000000000000      0x37a CMakeFiles/tinyusb_host_cdc_msc_hid.dir/home/boemmelsebastian/pico/pico-sdk/src/rp2_common/hardware_vreg/vreg.c.obj
 .comment       0x0000000000000000       0x52 CMakeFiles/tinyusb_host_cdc_msc_hid.dir/home/boemmelsebastian/pico/pico-sdk/src/rp2_common/hardware_vreg/vreg.c.obj
 .debug_frame   0x0000000000000000       0x20 CMakeFiles/tinyusb_host_cdc_msc_hid.dir/home/boemmelsebastian/pico/pico-sdk/src/rp2_common/hardware_vreg/vreg.c.obj
 .ARM.attributes
                0x0000000000000000       0x2c CMakeFiles/tinyusb_host_cdc_msc_hid.dir/home/boemmelsebastian/pico/pico-sdk/src/rp2_common/hardware_vreg/vreg.c.obj
 .text          0x0000000000000000        0x0 CMakeFiles/tinyusb_host_cdc_msc_hid.dir/home/boemmelsebastian/pico/pico-sdk/src/rp2_common/hardware_watchdog/watchdog.c.obj
 .data          0x0000000000000000        0x0 CMakeFiles/tinyusb_host_cdc_msc_hid.dir/home/boemmelsebastian/pico/pico-sdk/src/rp2_common/hardware_watchdog/watchdog.c.obj
 .bss           0x0000000000000000        0x0 CMakeFiles/tinyusb_host_cdc_msc_hid.dir/home/boemmelsebastian/pico/pico-sdk/src/rp2_common/hardware_watchdog/watchdog.c.obj
 .text.watchdog_update
                0x0000000000000000       0x14 CMakeFiles/tinyusb_host_cdc_msc_hid.dir/home/boemmelsebastian/pico/pico-sdk/src/rp2_common/hardware_watchdog/watchdog.c.obj
 .text.watchdog_get_count
                0x0000000000000000       0x10 CMakeFiles/tinyusb_host_cdc_msc_hid.dir/home/boemmelsebastian/pico/pico-sdk/src/rp2_common/hardware_watchdog/watchdog.c.obj
 .text._watchdog_enable
                0x0000000000000000       0x74 CMakeFiles/tinyusb_host_cdc_msc_hid.dir/home/boemmelsebastian/pico/pico-sdk/src/rp2_common/hardware_watchdog/watchdog.c.obj
 .text.watchdog_enable
                0x0000000000000000       0x18 CMakeFiles/tinyusb_host_cdc_msc_hid.dir/home/boemmelsebastian/pico/pico-sdk/src/rp2_common/hardware_watchdog/watchdog.c.obj
 .text.watchdog_reboot
                0x0000000000000000       0x44 CMakeFiles/tinyusb_host_cdc_msc_hid.dir/home/boemmelsebastian/pico/pico-sdk/src/rp2_common/hardware_watchdog/watchdog.c.obj
 .text.watchdog_caused_reboot
                0x0000000000000000       0x10 CMakeFiles/tinyusb_host_cdc_msc_hid.dir/home/boemmelsebastian/pico/pico-sdk/src/rp2_common/hardware_watchdog/watchdog.c.obj
 .text.watchdog_enable_caused_reboot
                0x0000000000000000       0x28 CMakeFiles/tinyusb_host_cdc_msc_hid.dir/home/boemmelsebastian/pico/pico-sdk/src/rp2_common/hardware_watchdog/watchdog.c.obj
 .bss.load_value
                0x0000000000000000        0x4 CMakeFiles/tinyusb_host_cdc_msc_hid.dir/home/boemmelsebastian/pico/pico-sdk/src/rp2_common/hardware_watchdog/watchdog.c.obj
 .text          0x0000000000000000        0x0 CMakeFiles/tinyusb_host_cdc_msc_hid.dir/home/boemmelsebastian/pico/pico-sdk/src/rp2_common/hardware_xosc/xosc.c.obj
 .data          0x0000000000000000        0x0 CMakeFiles/tinyusb_host_cdc_msc_hid.dir/home/boemmelsebastian/pico/pico-sdk/src/rp2_common/hardware_xosc/xosc.c.obj
 .bss           0x0000000000000000        0x0 CMakeFiles/tinyusb_host_cdc_msc_hid.dir/home/boemmelsebastian/pico/pico-sdk/src/rp2_common/hardware_xosc/xosc.c.obj
 .text.xosc_disable
                0x0000000000000000       0x24 CMakeFiles/tinyusb_host_cdc_msc_hid.dir/home/boemmelsebastian/pico/pico-sdk/src/rp2_common/hardware_xosc/xosc.c.obj
 .text.xosc_dormant
                0x0000000000000000       0x18 CMakeFiles/tinyusb_host_cdc_msc_hid.dir/home/boemmelsebastian/pico/pico-sdk/src/rp2_common/hardware_xosc/xosc.c.obj
 .text          0x0000000000000000        0x0 CMakeFiles/tinyusb_host_cdc_msc_hid.dir/home/boemmelsebastian/pico/pico-sdk/src/rp2_common/pico_printf/printf.c.obj
 .data          0x0000000000000000        0x0 CMakeFiles/tinyusb_host_cdc_msc_hid.dir/home/boemmelsebastian/pico/pico-sdk/src/rp2_common/pico_printf/printf.c.obj
 .bss           0x0000000000000000        0x0 CMakeFiles/tinyusb_host_cdc_msc_hid.dir/home/boemmelsebastian/pico/pico-sdk/src/rp2_common/pico_printf/printf.c.obj
 .text._out_buffer
                0x0000000000000000        0x8 CMakeFiles/tinyusb_host_cdc_msc_hid.dir/home/boemmelsebastian/pico/pico-sdk/src/rp2_common/pico_printf/printf.c.obj
 .text.__wrap_sprintf
                0x0000000000000000       0x28 CMakeFiles/tinyusb_host_cdc_msc_hid.dir/home/boemmelsebastian/pico/pico-sdk/src/rp2_common/pico_printf/printf.c.obj
 .text.__wrap_snprintf
                0x0000000000000000       0x28 CMakeFiles/tinyusb_host_cdc_msc_hid.dir/home/boemmelsebastian/pico/pico-sdk/src/rp2_common/pico_printf/printf.c.obj
 .text.__wrap_vsnprintf
                0x0000000000000000       0x1c CMakeFiles/tinyusb_host_cdc_msc_hid.dir/home/boemmelsebastian/pico/pico-sdk/src/rp2_common/pico_printf/printf.c.obj
 .data          0x0000000000000000        0x0 CMakeFiles/tinyusb_host_cdc_msc_hid.dir/home/boemmelsebastian/pico/pico-sdk/src/rp2_common/pico_bit_ops/bit_ops_aeabi.S.obj
 .bss           0x0000000000000000        0x0 CMakeFiles/tinyusb_host_cdc_msc_hid.dir/home/boemmelsebastian/pico/pico-sdk/src/rp2_common/pico_bit_ops/bit_ops_aeabi.S.obj
 .text.clzsi    0x0000000000000000        0xc CMakeFiles/tinyusb_host_cdc_msc_hid.dir/home/boemmelsebastian/pico/pico-sdk/src/rp2_common/pico_bit_ops/bit_ops_aeabi.S.obj
 .text.ctzsi    0x0000000000000000        0xc CMakeFiles/tinyusb_host_cdc_msc_hid.dir/home/boemmelsebastian/pico/pico-sdk/src/rp2_common/pico_bit_ops/bit_ops_aeabi.S.obj
 .text.popcountsi
                0x0000000000000000        0xc CMakeFiles/tinyusb_host_cdc_msc_hid.dir/home/boemmelsebastian/pico/pico-sdk/src/rp2_common/pico_bit_ops/bit_ops_aeabi.S.obj
 .text.clzdi    0x0000000000000000       0x18 CMakeFiles/tinyusb_host_cdc_msc_hid.dir/home/boemmelsebastian/pico/pico-sdk/src/rp2_common/pico_bit_ops/bit_ops_aeabi.S.obj
 .text.ctzdi    0x0000000000000000       0x18 CMakeFiles/tinyusb_host_cdc_msc_hid.dir/home/boemmelsebastian/pico/pico-sdk/src/rp2_common/pico_bit_ops/bit_ops_aeabi.S.obj
 .text.popcountdi
                0x0000000000000000       0x18 CMakeFiles/tinyusb_host_cdc_msc_hid.dir/home/boemmelsebastian/pico/pico-sdk/src/rp2_common/pico_bit_ops/bit_ops_aeabi.S.obj
 .text.reverse32
                0x0000000000000000        0xc CMakeFiles/tinyusb_host_cdc_msc_hid.dir/home/boemmelsebastian/pico/pico-sdk/src/rp2_common/pico_bit_ops/bit_ops_aeabi.S.obj
 .text.__rev    0x0000000000000000        0xc CMakeFiles/tinyusb_host_cdc_msc_hid.dir/home/boemmelsebastian/pico/pico-sdk/src/rp2_common/pico_bit_ops/bit_ops_aeabi.S.obj
 .text.__revll  0x0000000000000000       0x18 CMakeFiles/tinyusb_host_cdc_msc_hid.dir/home/boemmelsebastian/pico/pico-sdk/src/rp2_common/pico_bit_ops/bit_ops_aeabi.S.obj
 .text          0x0000000000000000        0x0 CMakeFiles/tinyusb_host_cdc_msc_hid.dir/home/boemmelsebastian/pico/pico-sdk/src/rp2_common/pico_bootrom/bootrom.c.obj
 .data          0x0000000000000000        0x0 CMakeFiles/tinyusb_host_cdc_msc_hid.dir/home/boemmelsebastian/pico/pico-sdk/src/rp2_common/pico_bootrom/bootrom.c.obj
 .bss           0x0000000000000000        0x0 CMakeFiles/tinyusb_host_cdc_msc_hid.dir/home/boemmelsebastian/pico/pico-sdk/src/rp2_common/pico_bootrom/bootrom.c.obj
 .text          0x0000000000000000        0x0 CMakeFiles/tinyusb_host_cdc_msc_hid.dir/home/boemmelsebastian/pico/pico-sdk/src/rp2_common/pico_divider/divider.S.obj
 .data          0x0000000000000000        0x0 CMakeFiles/tinyusb_host_cdc_msc_hid.dir/home/boemmelsebastian/pico/pico-sdk/src/rp2_common/pico_divider/divider.S.obj
 .bss           0x0000000000000000        0x0 CMakeFiles/tinyusb_host_cdc_msc_hid.dir/home/boemmelsebastian/pico/pico-sdk/src/rp2_common/pico_divider/divider.S.obj
 .text.divmod_s64s64_rem
                0x0000000000000000        0xc CMakeFiles/tinyusb_host_cdc_msc_hid.dir/home/boemmelsebastian/pico/pico-sdk/src/rp2_common/pico_divider/divider.S.obj
 .text.divmod_u64u64_rem
                0x0000000000000000        0xc CMakeFiles/tinyusb_host_cdc_msc_hid.dir/home/boemmelsebastian/pico/pico-sdk/src/rp2_common/pico_divider/divider.S.obj
 .text          0x0000000000000000        0x0 CMakeFiles/tinyusb_host_cdc_msc_hid.dir/home/boemmelsebastian/pico/pico-sdk/src/rp2_common/pico_double/double_aeabi.S.obj
 .data          0x0000000000000000        0x0 CMakeFiles/tinyusb_host_cdc_msc_hid.dir/home/boemmelsebastian/pico/pico-sdk/src/rp2_common/pico_double/double_aeabi.S.obj
 .bss           0x0000000000000000        0x0 CMakeFiles/tinyusb_host_cdc_msc_hid.dir/home/boemmelsebastian/pico/pico-sdk/src/rp2_common/pico_double/double_aeabi.S.obj
 .text.push_r8_r11
                0x0000000000000000        0xc CMakeFiles/tinyusb_host_cdc_msc_hid.dir/home/boemmelsebastian/pico/pico-sdk/src/rp2_common/pico_double/double_aeabi.S.obj
 .text.pop_r8_r11
                0x0000000000000000        0xc CMakeFiles/tinyusb_host_cdc_msc_hid.dir/home/boemmelsebastian/pico/pico-sdk/src/rp2_common/pico_double/double_aeabi.S.obj
 .text.__wrap___aeabi_dcmpeq
                0x0000000000000000       0x10 CMakeFiles/tinyusb_host_cdc_msc_hid.dir/home/boemmelsebastian/pico/pico-sdk/src/rp2_common/pico_double/double_aeabi.S.obj
 .text.__wrap___aeabi_ui2d
                0x0000000000000000       0x18 CMakeFiles/tinyusb_host_cdc_msc_hid.dir/home/boemmelsebastian/pico/pico-sdk/src/rp2_common/pico_double/double_aeabi.S.obj
 .text.double2int
                0x0000000000000000       0x18 CMakeFiles/tinyusb_host_cdc_msc_hid.dir/home/boemmelsebastian/pico/pico-sdk/src/rp2_common/pico_double/double_aeabi.S.obj
 .text.fix2double
                0x0000000000000000       0x18 CMakeFiles/tinyusb_host_cdc_msc_hid.dir/home/boemmelsebastian/pico/pico-sdk/src/rp2_common/pico_double/double_aeabi.S.obj
 .text.ufix2double
                0x0000000000000000       0x28 CMakeFiles/tinyusb_host_cdc_msc_hid.dir/home/boemmelsebastian/pico/pico-sdk/src/rp2_common/pico_double/double_aeabi.S.obj
 .text.fix642double
                0x0000000000000000       0x18 CMakeFiles/tinyusb_host_cdc_msc_hid.dir/home/boemmelsebastian/pico/pico-sdk/src/rp2_common/pico_double/double_aeabi.S.obj
 .text.__wrap___aeabi_l2d
                0x0000000000000000       0x18 CMakeFiles/tinyusb_host_cdc_msc_hid.dir/home/boemmelsebastian/pico/pico-sdk/src/rp2_common/pico_double/double_aeabi.S.obj
 .text.__wrap___aeabi_ul2d
                0x0000000000000000       0x18 CMakeFiles/tinyusb_host_cdc_msc_hid.dir/home/boemmelsebastian/pico/pico-sdk/src/rp2_common/pico_double/double_aeabi.S.obj
 .text.__wrap___aeabi_d2lz
                0x0000000000000000       0x26 CMakeFiles/tinyusb_host_cdc_msc_hid.dir/home/boemmelsebastian/pico/pico-sdk/src/rp2_common/pico_double/double_aeabi.S.obj
 .text.double2int64
                0x0000000000000000       0x18 CMakeFiles/tinyusb_host_cdc_msc_hid.dir/home/boemmelsebastian/pico/pico-sdk/src/rp2_common/pico_double/double_aeabi.S.obj
 .text.__wrap___aeabi_d2ulz
                0x0000000000000000       0x18 CMakeFiles/tinyusb_host_cdc_msc_hid.dir/home/boemmelsebastian/pico/pico-sdk/src/rp2_common/pico_double/double_aeabi.S.obj
 .text.double2fix64
                0x0000000000000000       0x18 CMakeFiles/tinyusb_host_cdc_msc_hid.dir/home/boemmelsebastian/pico/pico-sdk/src/rp2_common/pico_double/double_aeabi.S.obj
 .text.double2ufix64
                0x0000000000000000       0x18 CMakeFiles/tinyusb_host_cdc_msc_hid.dir/home/boemmelsebastian/pico/pico-sdk/src/rp2_common/pico_double/double_aeabi.S.obj
 .text.double2fix
                0x0000000000000000       0x18 CMakeFiles/tinyusb_host_cdc_msc_hid.dir/home/boemmelsebastian/pico/pico-sdk/src/rp2_common/pico_double/double_aeabi.S.obj
 .text.double2ufix
                0x0000000000000000       0x18 CMakeFiles/tinyusb_host_cdc_msc_hid.dir/home/boemmelsebastian/pico/pico-sdk/src/rp2_common/pico_double/double_aeabi.S.obj
 .text.__wrap___aeabi_d2f
                0x0000000000000000       0x18 CMakeFiles/tinyusb_host_cdc_msc_hid.dir/home/boemmelsebastian/pico/pico-sdk/src/rp2_common/pico_double/double_aeabi.S.obj
 .text.__wrap_srqt
                0x0000000000000000       0x18 CMakeFiles/tinyusb_host_cdc_msc_hid.dir/home/boemmelsebastian/pico/pico-sdk/src/rp2_common/pico_double/double_aeabi.S.obj
 .text.__wrap_sincostan_remainder
                0x0000000000000000       0x14 CMakeFiles/tinyusb_host_cdc_msc_hid.dir/home/boemmelsebastian/pico/pico-sdk/src/rp2_common/pico_double/double_aeabi.S.obj
 .text.__wrap_cos
                0x0000000000000000       0x2c CMakeFiles/tinyusb_host_cdc_msc_hid.dir/home/boemmelsebastian/pico/pico-sdk/src/rp2_common/pico_double/double_aeabi.S.obj
 .text.__wrap_sin
                0x0000000000000000       0x2c CMakeFiles/tinyusb_host_cdc_msc_hid.dir/home/boemmelsebastian/pico/pico-sdk/src/rp2_common/pico_double/double_aeabi.S.obj
 .text.__wrap_sincos
                0x0000000000000000       0xa0 CMakeFiles/tinyusb_host_cdc_msc_hid.dir/home/boemmelsebastian/pico/pico-sdk/src/rp2_common/pico_double/double_aeabi.S.obj
 .text.__wrap_tan
                0x0000000000000000       0x5c CMakeFiles/tinyusb_host_cdc_msc_hid.dir/home/boemmelsebastian/pico/pico-sdk/src/rp2_common/pico_double/double_aeabi.S.obj
 .text.__wrap_atan2
                0x0000000000000000       0x18 CMakeFiles/tinyusb_host_cdc_msc_hid.dir/home/boemmelsebastian/pico/pico-sdk/src/rp2_common/pico_double/double_aeabi.S.obj
 .text.__wrap_exp
                0x0000000000000000       0x18 CMakeFiles/tinyusb_host_cdc_msc_hid.dir/home/boemmelsebastian/pico/pico-sdk/src/rp2_common/pico_double/double_aeabi.S.obj
 .text.__wrap_log
                0x0000000000000000       0x18 CMakeFiles/tinyusb_host_cdc_msc_hid.dir/home/boemmelsebastian/pico/pico-sdk/src/rp2_common/pico_double/double_aeabi.S.obj
 .text          0x0000000000000000        0x0 CMakeFiles/tinyusb_host_cdc_msc_hid.dir/home/boemmelsebastian/pico/pico-sdk/src/rp2_common/pico_double/double_init_rom.c.obj
 .data          0x0000000000000000        0x0 CMakeFiles/tinyusb_host_cdc_msc_hid.dir/home/boemmelsebastian/pico/pico-sdk/src/rp2_common/pico_double/double_init_rom.c.obj
 .bss           0x0000000000000000        0x0 CMakeFiles/tinyusb_host_cdc_msc_hid.dir/home/boemmelsebastian/pico/pico-sdk/src/rp2_common/pico_double/double_init_rom.c.obj
 .text          0x0000000000000000        0x0 CMakeFiles/tinyusb_host_cdc_msc_hid.dir/home/boemmelsebastian/pico/pico-sdk/src/rp2_common/pico_double/double_math.c.obj
 .data          0x0000000000000000        0x0 CMakeFiles/tinyusb_host_cdc_msc_hid.dir/home/boemmelsebastian/pico/pico-sdk/src/rp2_common/pico_double/double_math.c.obj
 .bss           0x0000000000000000        0x0 CMakeFiles/tinyusb_host_cdc_msc_hid.dir/home/boemmelsebastian/pico/pico-sdk/src/rp2_common/pico_double/double_math.c.obj
 .text.dpow_int2
                0x0000000000000000       0x2c CMakeFiles/tinyusb_host_cdc_msc_hid.dir/home/boemmelsebastian/pico/pico-sdk/src/rp2_common/pico_double/double_math.c.obj
 .text.drem_0   0x0000000000000000      0x12e CMakeFiles/tinyusb_host_cdc_msc_hid.dir/home/boemmelsebastian/pico/pico-sdk/src/rp2_common/pico_double/double_math.c.obj
 .text.dpow_1   0x0000000000000000      0x26c CMakeFiles/tinyusb_host_cdc_msc_hid.dir/home/boemmelsebastian/pico/pico-sdk/src/rp2_common/pico_double/double_math.c.obj
 .text.dpowint_0
                0x0000000000000000      0x164 CMakeFiles/tinyusb_host_cdc_msc_hid.dir/home/boemmelsebastian/pico/pico-sdk/src/rp2_common/pico_double/double_math.c.obj
 .text.dpow_0   0x0000000000000000      0x16c CMakeFiles/tinyusb_host_cdc_msc_hid.dir/home/boemmelsebastian/pico/pico-sdk/src/rp2_common/pico_double/double_math.c.obj
 .text.__wrap_ldexp
                0x0000000000000000       0x4c CMakeFiles/tinyusb_host_cdc_msc_hid.dir/home/boemmelsebastian/pico/pico-sdk/src/rp2_common/pico_double/double_math.c.obj
 .text.__wrap_copysign
                0x0000000000000000        0xe CMakeFiles/tinyusb_host_cdc_msc_hid.dir/home/boemmelsebastian/pico/pico-sdk/src/rp2_common/pico_double/double_math.c.obj
 .text.__wrap_trunc
                0x0000000000000000       0x54 CMakeFiles/tinyusb_host_cdc_msc_hid.dir/home/boemmelsebastian/pico/pico-sdk/src/rp2_common/pico_double/double_math.c.obj
 .text.__wrap_round
                0x0000000000000000       0x9c CMakeFiles/tinyusb_host_cdc_msc_hid.dir/home/boemmelsebastian/pico/pico-sdk/src/rp2_common/pico_double/double_math.c.obj
 .text.__wrap_floor
                0x0000000000000000       0x98 CMakeFiles/tinyusb_host_cdc_msc_hid.dir/home/boemmelsebastian/pico/pico-sdk/src/rp2_common/pico_double/double_math.c.obj
 .text.__wrap_ceil
                0x0000000000000000       0x9c CMakeFiles/tinyusb_host_cdc_msc_hid.dir/home/boemmelsebastian/pico/pico-sdk/src/rp2_common/pico_double/double_math.c.obj
 .text.__wrap_asin
                0x0000000000000000       0x58 CMakeFiles/tinyusb_host_cdc_msc_hid.dir/home/boemmelsebastian/pico/pico-sdk/src/rp2_common/pico_double/double_math.c.obj
 .text.__wrap_acos
                0x0000000000000000       0x54 CMakeFiles/tinyusb_host_cdc_msc_hid.dir/home/boemmelsebastian/pico/pico-sdk/src/rp2_common/pico_double/double_math.c.obj
 .text.__wrap_atan
                0x0000000000000000       0x40 CMakeFiles/tinyusb_host_cdc_msc_hid.dir/home/boemmelsebastian/pico/pico-sdk/src/rp2_common/pico_double/double_math.c.obj
 .text.__wrap_sinh
                0x0000000000000000       0x78 CMakeFiles/tinyusb_host_cdc_msc_hid.dir/home/boemmelsebastian/pico/pico-sdk/src/rp2_common/pico_double/double_math.c.obj
 .text.__wrap_cosh
                0x0000000000000000       0x78 CMakeFiles/tinyusb_host_cdc_msc_hid.dir/home/boemmelsebastian/pico/pico-sdk/src/rp2_common/pico_double/double_math.c.obj
 .text.__wrap_tanh
                0x0000000000000000       0x90 CMakeFiles/tinyusb_host_cdc_msc_hid.dir/home/boemmelsebastian/pico/pico-sdk/src/rp2_common/pico_double/double_math.c.obj
 .text.__wrap_asinh
                0x0000000000000000       0xc0 CMakeFiles/tinyusb_host_cdc_msc_hid.dir/home/boemmelsebastian/pico/pico-sdk/src/rp2_common/pico_double/double_math.c.obj
 .text.__wrap_acosh
                0x0000000000000000       0x78 CMakeFiles/tinyusb_host_cdc_msc_hid.dir/home/boemmelsebastian/pico/pico-sdk/src/rp2_common/pico_double/double_math.c.obj
 .text.__wrap_atanh
                0x0000000000000000       0x80 CMakeFiles/tinyusb_host_cdc_msc_hid.dir/home/boemmelsebastian/pico/pico-sdk/src/rp2_common/pico_double/double_math.c.obj
 .text.__wrap_exp2
                0x0000000000000000       0xc8 CMakeFiles/tinyusb_host_cdc_msc_hid.dir/home/boemmelsebastian/pico/pico-sdk/src/rp2_common/pico_double/double_math.c.obj
 .text.__wrap_log2
                0x0000000000000000       0x18 CMakeFiles/tinyusb_host_cdc_msc_hid.dir/home/boemmelsebastian/pico/pico-sdk/src/rp2_common/pico_double/double_math.c.obj
 .text.__wrap_exp10
                0x0000000000000000       0x14 CMakeFiles/tinyusb_host_cdc_msc_hid.dir/home/boemmelsebastian/pico/pico-sdk/src/rp2_common/pico_double/double_math.c.obj
 .text.__wrap_log10
                0x0000000000000000       0x18 CMakeFiles/tinyusb_host_cdc_msc_hid.dir/home/boemmelsebastian/pico/pico-sdk/src/rp2_common/pico_double/double_math.c.obj
 .text.__wrap_expm1
                0x0000000000000000       0x14 CMakeFiles/tinyusb_host_cdc_msc_hid.dir/home/boemmelsebastian/pico/pico-sdk/src/rp2_common/pico_double/double_math.c.obj
 .text.__wrap_log1p
                0x0000000000000000       0x14 CMakeFiles/tinyusb_host_cdc_msc_hid.dir/home/boemmelsebastian/pico/pico-sdk/src/rp2_common/pico_double/double_math.c.obj
 .text.__wrap_fma
                0x0000000000000000       0x10 CMakeFiles/tinyusb_host_cdc_msc_hid.dir/home/boemmelsebastian/pico/pico-sdk/src/rp2_common/pico_double/double_math.c.obj
 .text.__wrap_powint
                0x0000000000000000       0xbc CMakeFiles/tinyusb_host_cdc_msc_hid.dir/home/boemmelsebastian/pico/pico-sdk/src/rp2_common/pico_double/double_math.c.obj
 .text.__wrap_pow
                0x0000000000000000      0x388 CMakeFiles/tinyusb_host_cdc_msc_hid.dir/home/boemmelsebastian/pico/pico-sdk/src/rp2_common/pico_double/double_math.c.obj
 .text.__wrap_hypot
                0x0000000000000000      0x274 CMakeFiles/tinyusb_host_cdc_msc_hid.dir/home/boemmelsebastian/pico/pico-sdk/src/rp2_common/pico_double/double_math.c.obj
 .text.__wrap_cbrt
                0x0000000000000000       0xe0 CMakeFiles/tinyusb_host_cdc_msc_hid.dir/home/boemmelsebastian/pico/pico-sdk/src/rp2_common/pico_double/double_math.c.obj
 .text.__wrap_fmod
                0x0000000000000000       0x90 CMakeFiles/tinyusb_host_cdc_msc_hid.dir/home/boemmelsebastian/pico/pico-sdk/src/rp2_common/pico_double/double_math.c.obj
 .text.__wrap_remquo
                0x0000000000000000      0x14c CMakeFiles/tinyusb_host_cdc_msc_hid.dir/home/boemmelsebastian/pico/pico-sdk/src/rp2_common/pico_double/double_math.c.obj
 .text.__wrap_drem
                0x0000000000000000       0x10 CMakeFiles/tinyusb_host_cdc_msc_hid.dir/home/boemmelsebastian/pico/pico-sdk/src/rp2_common/pico_double/double_math.c.obj
 .text.__wrap_remainder
                0x0000000000000000       0x10 CMakeFiles/tinyusb_host_cdc_msc_hid.dir/home/boemmelsebastian/pico/pico-sdk/src/rp2_common/pico_double/double_math.c.obj
 .debug_info    0x0000000000000000     0x430c CMakeFiles/tinyusb_host_cdc_msc_hid.dir/home/boemmelsebastian/pico/pico-sdk/src/rp2_common/pico_double/double_math.c.obj
 .debug_abbrev  0x0000000000000000      0x46c CMakeFiles/tinyusb_host_cdc_msc_hid.dir/home/boemmelsebastian/pico/pico-sdk/src/rp2_common/pico_double/double_math.c.obj
 .debug_loc     0x0000000000000000     0x6afd CMakeFiles/tinyusb_host_cdc_msc_hid.dir/home/boemmelsebastian/pico/pico-sdk/src/rp2_common/pico_double/double_math.c.obj
 .debug_aranges
                0x0000000000000000      0x130 CMakeFiles/tinyusb_host_cdc_msc_hid.dir/home/boemmelsebastian/pico/pico-sdk/src/rp2_common/pico_double/double_math.c.obj
 .debug_ranges  0x0000000000000000      0xc60 CMakeFiles/tinyusb_host_cdc_msc_hid.dir/home/boemmelsebastian/pico/pico-sdk/src/rp2_common/pico_double/double_math.c.obj
 .debug_line    0x0000000000000000     0x2791 CMakeFiles/tinyusb_host_cdc_msc_hid.dir/home/boemmelsebastian/pico/pico-sdk/src/rp2_common/pico_double/double_math.c.obj
 .debug_str     0x0000000000000000      0x8cc CMakeFiles/tinyusb_host_cdc_msc_hid.dir/home/boemmelsebastian/pico/pico-sdk/src/rp2_common/pico_double/double_math.c.obj
 .comment       0x0000000000000000       0x52 CMakeFiles/tinyusb_host_cdc_msc_hid.dir/home/boemmelsebastian/pico/pico-sdk/src/rp2_common/pico_double/double_math.c.obj
 .debug_frame   0x0000000000000000      0x43c CMakeFiles/tinyusb_host_cdc_msc_hid.dir/home/boemmelsebastian/pico/pico-sdk/src/rp2_common/pico_double/double_math.c.obj
 .ARM.attributes
                0x0000000000000000       0x2c CMakeFiles/tinyusb_host_cdc_msc_hid.dir/home/boemmelsebastian/pico/pico-sdk/src/rp2_common/pico_double/double_math.c.obj
 .text          0x0000000000000000        0x0 CMakeFiles/tinyusb_host_cdc_msc_hid.dir/home/boemmelsebastian/pico/pico-sdk/src/rp2_common/pico_double/double_v1_rom_shim.S.obj
 .data          0x0000000000000000        0x0 CMakeFiles/tinyusb_host_cdc_msc_hid.dir/home/boemmelsebastian/pico/pico-sdk/src/rp2_common/pico_double/double_v1_rom_shim.S.obj
 .bss           0x0000000000000000        0x0 CMakeFiles/tinyusb_host_cdc_msc_hid.dir/home/boemmelsebastian/pico/pico-sdk/src/rp2_common/pico_double/double_v1_rom_shim.S.obj
 .text.dsqrt_shim
                0x0000000000000000      0x1a8 CMakeFiles/tinyusb_host_cdc_msc_hid.dir/home/boemmelsebastian/pico/pico-sdk/src/rp2_common/pico_double/double_v1_rom_shim.S.obj
 .text.dcordic_vec_step
                0x0000000000000000        0xe CMakeFiles/tinyusb_host_cdc_msc_hid.dir/home/boemmelsebastian/pico/pico-sdk/src/rp2_common/pico_double/double_v1_rom_shim.S.obj
 .text.dcordic_rot_step
                0x0000000000000000       0x76 CMakeFiles/tinyusb_host_cdc_msc_hid.dir/home/boemmelsebastian/pico/pico-sdk/src/rp2_common/pico_double/double_v1_rom_shim.S.obj
 .text.double2int_shim
                0x0000000000000000        0xe CMakeFiles/tinyusb_host_cdc_msc_hid.dir/home/boemmelsebastian/pico/pico-sdk/src/rp2_common/pico_double/double_v1_rom_shim.S.obj
 .text.double2int64_shim
                0x0000000000000000       0x1a CMakeFiles/tinyusb_host_cdc_msc_hid.dir/home/boemmelsebastian/pico/pico-sdk/src/rp2_common/pico_double/double_v1_rom_shim.S.obj
 .text.double2float_shim
                0x0000000000000000       0x5c CMakeFiles/tinyusb_host_cdc_msc_hid.dir/home/boemmelsebastian/pico/pico-sdk/src/rp2_common/pico_double/double_v1_rom_shim.S.obj
 .text.x2double_shims
                0x0000000000000000       0x90 CMakeFiles/tinyusb_host_cdc_msc_hid.dir/home/boemmelsebastian/pico/pico-sdk/src/rp2_common/pico_double/double_v1_rom_shim.S.obj
 .text.dreduce  0x0000000000000000       0x82 CMakeFiles/tinyusb_host_cdc_msc_hid.dir/home/boemmelsebastian/pico/pico-sdk/src/rp2_common/pico_double/double_v1_rom_shim.S.obj
 .text.dtan_shim
                0x0000000000000000       0x20 CMakeFiles/tinyusb_host_cdc_msc_hid.dir/home/boemmelsebastian/pico/pico-sdk/src/rp2_common/pico_double/double_v1_rom_shim.S.obj
 .text.dcos_shim
                0x0000000000000000       0x10 CMakeFiles/tinyusb_host_cdc_msc_hid.dir/home/boemmelsebastian/pico/pico-sdk/src/rp2_common/pico_double/double_v1_rom_shim.S.obj
 .text.dsin_shim
                0x0000000000000000       0x14 CMakeFiles/tinyusb_host_cdc_msc_hid.dir/home/boemmelsebastian/pico/pico-sdk/src/rp2_common/pico_double/double_v1_rom_shim.S.obj
 .text.dsincos_shim
                0x0000000000000000       0x20 CMakeFiles/tinyusb_host_cdc_msc_hid.dir/home/boemmelsebastian/pico/pico-sdk/src/rp2_common/pico_double/double_v1_rom_shim.S.obj
 .text.dtrig_guts
                0x0000000000000000      0x2ec CMakeFiles/tinyusb_host_cdc_msc_hid.dir/home/boemmelsebastian/pico/pico-sdk/src/rp2_common/pico_double/double_v1_rom_shim.S.obj
 .text.dexp_guts
                0x0000000000000000      0x268 CMakeFiles/tinyusb_host_cdc_msc_hid.dir/home/boemmelsebastian/pico/pico-sdk/src/rp2_common/pico_double/double_v1_rom_shim.S.obj
 .text          0x0000000000000000        0x0 CMakeFiles/tinyusb_host_cdc_msc_hid.dir/home/boemmelsebastian/pico/pico-sdk/src/rp2_common/pico_int64_ops/pico_int64_ops_aeabi.S.obj
 .data          0x0000000000000000        0x0 CMakeFiles/tinyusb_host_cdc_msc_hid.dir/home/boemmelsebastian/pico/pico-sdk/src/rp2_common/pico_int64_ops/pico_int64_ops_aeabi.S.obj
 .bss           0x0000000000000000        0x0 CMakeFiles/tinyusb_host_cdc_msc_hid.dir/home/boemmelsebastian/pico/pico-sdk/src/rp2_common/pico_int64_ops/pico_int64_ops_aeabi.S.obj
 .text          0x0000000000000000        0x0 CMakeFiles/tinyusb_host_cdc_msc_hid.dir/home/boemmelsebastian/pico/pico-sdk/src/rp2_common/pico_float/float_aeabi.S.obj
 .data          0x0000000000000000        0x0 CMakeFiles/tinyusb_host_cdc_msc_hid.dir/home/boemmelsebastian/pico/pico-sdk/src/rp2_common/pico_float/float_aeabi.S.obj
 .bss           0x0000000000000000        0x0 CMakeFiles/tinyusb_host_cdc_msc_hid.dir/home/boemmelsebastian/pico/pico-sdk/src/rp2_common/pico_float/float_aeabi.S.obj
 .text.__wrap___aeabi_farithmetic
                0x0000000000000000       0x58 CMakeFiles/tinyusb_host_cdc_msc_hid.dir/home/boemmelsebastian/pico/pico-sdk/src/rp2_common/pico_float/float_aeabi.S.obj
 .text.__wrap___aeabi_cfcmple
                0x0000000000000000       0x50 CMakeFiles/tinyusb_host_cdc_msc_hid.dir/home/boemmelsebastian/pico/pico-sdk/src/rp2_common/pico_float/float_aeabi.S.obj
 .text.__wrap___aeabi_fcmpeq
                0x0000000000000000       0x10 CMakeFiles/tinyusb_host_cdc_msc_hid.dir/home/boemmelsebastian/pico/pico-sdk/src/rp2_common/pico_float/float_aeabi.S.obj
 .text.__wrap___aeabi_fcmplt
                0x0000000000000000        0xc CMakeFiles/tinyusb_host_cdc_msc_hid.dir/home/boemmelsebastian/pico/pico-sdk/src/rp2_common/pico_float/float_aeabi.S.obj
 .text.__wrap___aeabi_fcmple
                0x0000000000000000       0x10 CMakeFiles/tinyusb_host_cdc_msc_hid.dir/home/boemmelsebastian/pico/pico-sdk/src/rp2_common/pico_float/float_aeabi.S.obj
 .text.__wrap___aeabi_fcmpge
                0x0000000000000000       0x10 CMakeFiles/tinyusb_host_cdc_msc_hid.dir/home/boemmelsebastian/pico/pico-sdk/src/rp2_common/pico_float/float_aeabi.S.obj
 .text.__wrap___aeabi_fcmpgt
                0x0000000000000000        0xa CMakeFiles/tinyusb_host_cdc_msc_hid.dir/home/boemmelsebastian/pico/pico-sdk/src/rp2_common/pico_float/float_aeabi.S.obj
 .text.__wrap___aeabi_fcmpun
                0x0000000000000000       0x18 CMakeFiles/tinyusb_host_cdc_msc_hid.dir/home/boemmelsebastian/pico/pico-sdk/src/rp2_common/pico_float/float_aeabi.S.obj
 .text.__wrap___aeabi_ui2f
                0x0000000000000000        0xa CMakeFiles/tinyusb_host_cdc_msc_hid.dir/home/boemmelsebastian/pico/pico-sdk/src/rp2_common/pico_float/float_aeabi.S.obj
 .text.__wrap___aeabi_i2f
                0x0000000000000000       0x44 CMakeFiles/tinyusb_host_cdc_msc_hid.dir/home/boemmelsebastian/pico/pico-sdk/src/rp2_common/pico_float/float_aeabi.S.obj
 .text.__wrap___aeabi_f2iz
                0x0000000000000000       0x4e CMakeFiles/tinyusb_host_cdc_msc_hid.dir/home/boemmelsebastian/pico/pico-sdk/src/rp2_common/pico_float/float_aeabi.S.obj
 .text.float2int
                0x0000000000000000       0x14 CMakeFiles/tinyusb_host_cdc_msc_hid.dir/home/boemmelsebastian/pico/pico-sdk/src/rp2_common/pico_float/float_aeabi.S.obj
 .text.float2fix
                0x0000000000000000       0x14 CMakeFiles/tinyusb_host_cdc_msc_hid.dir/home/boemmelsebastian/pico/pico-sdk/src/rp2_common/pico_float/float_aeabi.S.obj
 .text.float2ufix
                0x0000000000000000       0x10 CMakeFiles/tinyusb_host_cdc_msc_hid.dir/home/boemmelsebastian/pico/pico-sdk/src/rp2_common/pico_float/float_aeabi.S.obj
 .text.__wrap___aeabi_f2uiz
                0x0000000000000000       0x10 CMakeFiles/tinyusb_host_cdc_msc_hid.dir/home/boemmelsebastian/pico/pico-sdk/src/rp2_common/pico_float/float_aeabi.S.obj
 .text.fix2float
                0x0000000000000000       0x10 CMakeFiles/tinyusb_host_cdc_msc_hid.dir/home/boemmelsebastian/pico/pico-sdk/src/rp2_common/pico_float/float_aeabi.S.obj
 .text.ufix2float
                0x0000000000000000       0x10 CMakeFiles/tinyusb_host_cdc_msc_hid.dir/home/boemmelsebastian/pico/pico-sdk/src/rp2_common/pico_float/float_aeabi.S.obj
 .text.fix642float
                0x0000000000000000       0x14 CMakeFiles/tinyusb_host_cdc_msc_hid.dir/home/boemmelsebastian/pico/pico-sdk/src/rp2_common/pico_float/float_aeabi.S.obj
 .text.ufix642float
                0x0000000000000000       0x14 CMakeFiles/tinyusb_host_cdc_msc_hid.dir/home/boemmelsebastian/pico/pico-sdk/src/rp2_common/pico_float/float_aeabi.S.obj
 .text.__wrap___aeabi_l2f
                0x0000000000000000       0x20 CMakeFiles/tinyusb_host_cdc_msc_hid.dir/home/boemmelsebastian/pico/pico-sdk/src/rp2_common/pico_float/float_aeabi.S.obj
 .text.__wrap___aeabi_ul2f
                0x0000000000000000       0x20 CMakeFiles/tinyusb_host_cdc_msc_hid.dir/home/boemmelsebastian/pico/pico-sdk/src/rp2_common/pico_float/float_aeabi.S.obj
 .text.__wrap___aeabi_f2lz
                0x0000000000000000       0x26 CMakeFiles/tinyusb_host_cdc_msc_hid.dir/home/boemmelsebastian/pico/pico-sdk/src/rp2_common/pico_float/float_aeabi.S.obj
 .text.float2int64
                0x0000000000000000       0x14 CMakeFiles/tinyusb_host_cdc_msc_hid.dir/home/boemmelsebastian/pico/pico-sdk/src/rp2_common/pico_float/float_aeabi.S.obj
 .text.float2fix64
                0x0000000000000000       0x14 CMakeFiles/tinyusb_host_cdc_msc_hid.dir/home/boemmelsebastian/pico/pico-sdk/src/rp2_common/pico_float/float_aeabi.S.obj
 .text.__wrap___aeabi_f2ulz
                0x0000000000000000       0x14 CMakeFiles/tinyusb_host_cdc_msc_hid.dir/home/boemmelsebastian/pico/pico-sdk/src/rp2_common/pico_float/float_aeabi.S.obj
 .text.float2ufix64
                0x0000000000000000       0x14 CMakeFiles/tinyusb_host_cdc_msc_hid.dir/home/boemmelsebastian/pico/pico-sdk/src/rp2_common/pico_float/float_aeabi.S.obj
 .text.__wrap___aeabi_f2d
                0x0000000000000000       0x14 CMakeFiles/tinyusb_host_cdc_msc_hid.dir/home/boemmelsebastian/pico/pico-sdk/src/rp2_common/pico_float/float_aeabi.S.obj
 .text.__wrap_srqtf
                0x0000000000000000       0x24 CMakeFiles/tinyusb_host_cdc_msc_hid.dir/home/boemmelsebastian/pico/pico-sdk/src/rp2_common/pico_float/float_aeabi.S.obj
 .text.__wrap_cosf
                0x0000000000000000       0x28 CMakeFiles/tinyusb_host_cdc_msc_hid.dir/home/boemmelsebastian/pico/pico-sdk/src/rp2_common/pico_float/float_aeabi.S.obj
 .text.__wrap_sinf
                0x0000000000000000       0x28 CMakeFiles/tinyusb_host_cdc_msc_hid.dir/home/boemmelsebastian/pico/pico-sdk/src/rp2_common/pico_float/float_aeabi.S.obj
 .text.__wrap_sincosf
                0x0000000000000000       0x30 CMakeFiles/tinyusb_host_cdc_msc_hid.dir/home/boemmelsebastian/pico/pico-sdk/src/rp2_common/pico_float/float_aeabi.S.obj
 .text.__wrap_tanf
                0x0000000000000000       0x50 CMakeFiles/tinyusb_host_cdc_msc_hid.dir/home/boemmelsebastian/pico/pico-sdk/src/rp2_common/pico_float/float_aeabi.S.obj
 .text.__wrap_atan2f
                0x0000000000000000       0x14 CMakeFiles/tinyusb_host_cdc_msc_hid.dir/home/boemmelsebastian/pico/pico-sdk/src/rp2_common/pico_float/float_aeabi.S.obj
 .text.__wrap_expf
                0x0000000000000000       0x10 CMakeFiles/tinyusb_host_cdc_msc_hid.dir/home/boemmelsebastian/pico/pico-sdk/src/rp2_common/pico_float/float_aeabi.S.obj
 .text.__wrap_logf
                0x0000000000000000       0x10 CMakeFiles/tinyusb_host_cdc_msc_hid.dir/home/boemmelsebastian/pico/pico-sdk/src/rp2_common/pico_float/float_aeabi.S.obj
 .text          0x0000000000000000        0x0 CMakeFiles/tinyusb_host_cdc_msc_hid.dir/home/boemmelsebastian/pico/pico-sdk/src/rp2_common/pico_float/float_init_rom.c.obj
 .data          0x0000000000000000        0x0 CMakeFiles/tinyusb_host_cdc_msc_hid.dir/home/boemmelsebastian/pico/pico-sdk/src/rp2_common/pico_float/float_init_rom.c.obj
 .bss           0x0000000000000000        0x0 CMakeFiles/tinyusb_host_cdc_msc_hid.dir/home/boemmelsebastian/pico/pico-sdk/src/rp2_common/pico_float/float_init_rom.c.obj
 .bss.sf_clz_func
                0x0000000000000000        0x4 CMakeFiles/tinyusb_host_cdc_msc_hid.dir/home/boemmelsebastian/pico/pico-sdk/src/rp2_common/pico_float/float_init_rom.c.obj
 .text          0x0000000000000000        0x0 CMakeFiles/tinyusb_host_cdc_msc_hid.dir/home/boemmelsebastian/pico/pico-sdk/src/rp2_common/pico_float/float_math.c.obj
 .data          0x0000000000000000        0x0 CMakeFiles/tinyusb_host_cdc_msc_hid.dir/home/boemmelsebastian/pico/pico-sdk/src/rp2_common/pico_float/float_math.c.obj
 .bss           0x0000000000000000        0x0 CMakeFiles/tinyusb_host_cdc_msc_hid.dir/home/boemmelsebastian/pico/pico-sdk/src/rp2_common/pico_float/float_math.c.obj
 .text.fpow_int2
                0x0000000000000000       0x26 CMakeFiles/tinyusb_host_cdc_msc_hid.dir/home/boemmelsebastian/pico/pico-sdk/src/rp2_common/pico_float/float_math.c.obj
 .text.frem_0   0x0000000000000000       0x82 CMakeFiles/tinyusb_host_cdc_msc_hid.dir/home/boemmelsebastian/pico/pico-sdk/src/rp2_common/pico_float/float_math.c.obj
 .text.fpow_0   0x0000000000000000      0x114 CMakeFiles/tinyusb_host_cdc_msc_hid.dir/home/boemmelsebastian/pico/pico-sdk/src/rp2_common/pico_float/float_math.c.obj
 .text.fpowint_0
                0x0000000000000000      0x100 CMakeFiles/tinyusb_host_cdc_msc_hid.dir/home/boemmelsebastian/pico/pico-sdk/src/rp2_common/pico_float/float_math.c.obj
 .text.__wrap_ldexpf
                0x0000000000000000       0x2e CMakeFiles/tinyusb_host_cdc_msc_hid.dir/home/boemmelsebastian/pico/pico-sdk/src/rp2_common/pico_float/float_math.c.obj
 .text.__wrap_copysignf
                0x0000000000000000        0xc CMakeFiles/tinyusb_host_cdc_msc_hid.dir/home/boemmelsebastian/pico/pico-sdk/src/rp2_common/pico_float/float_math.c.obj
 .text.__wrap_truncf
                0x0000000000000000       0x22 CMakeFiles/tinyusb_host_cdc_msc_hid.dir/home/boemmelsebastian/pico/pico-sdk/src/rp2_common/pico_float/float_math.c.obj
 .text.__wrap_roundf
                0x0000000000000000       0x3e CMakeFiles/tinyusb_host_cdc_msc_hid.dir/home/boemmelsebastian/pico/pico-sdk/src/rp2_common/pico_float/float_math.c.obj
 .text.__wrap_floorf
                0x0000000000000000       0x40 CMakeFiles/tinyusb_host_cdc_msc_hid.dir/home/boemmelsebastian/pico/pico-sdk/src/rp2_common/pico_float/float_math.c.obj
 .text.__wrap_ceilf
                0x0000000000000000       0x40 CMakeFiles/tinyusb_host_cdc_msc_hid.dir/home/boemmelsebastian/pico/pico-sdk/src/rp2_common/pico_float/float_math.c.obj
 .text.__wrap_asinf
                0x0000000000000000       0x42 CMakeFiles/tinyusb_host_cdc_msc_hid.dir/home/boemmelsebastian/pico/pico-sdk/src/rp2_common/pico_float/float_math.c.obj
 .text.__wrap_acosf
                0x0000000000000000       0x40 CMakeFiles/tinyusb_host_cdc_msc_hid.dir/home/boemmelsebastian/pico/pico-sdk/src/rp2_common/pico_float/float_math.c.obj
 .text.__wrap_atanf
                0x0000000000000000       0x2c CMakeFiles/tinyusb_host_cdc_msc_hid.dir/home/boemmelsebastian/pico/pico-sdk/src/rp2_common/pico_float/float_math.c.obj
 .text.__wrap_sinhf
                0x0000000000000000       0x50 CMakeFiles/tinyusb_host_cdc_msc_hid.dir/home/boemmelsebastian/pico/pico-sdk/src/rp2_common/pico_float/float_math.c.obj
 .text.__wrap_coshf
                0x0000000000000000       0x50 CMakeFiles/tinyusb_host_cdc_msc_hid.dir/home/boemmelsebastian/pico/pico-sdk/src/rp2_common/pico_float/float_math.c.obj
 .text.__wrap_tanhf
                0x0000000000000000       0x60 CMakeFiles/tinyusb_host_cdc_msc_hid.dir/home/boemmelsebastian/pico/pico-sdk/src/rp2_common/pico_float/float_math.c.obj
 .text.__wrap_asinhf
                0x0000000000000000       0xb8 CMakeFiles/tinyusb_host_cdc_msc_hid.dir/home/boemmelsebastian/pico/pico-sdk/src/rp2_common/pico_float/float_math.c.obj
 .text.__wrap_acoshf
                0x0000000000000000       0x74 CMakeFiles/tinyusb_host_cdc_msc_hid.dir/home/boemmelsebastian/pico/pico-sdk/src/rp2_common/pico_float/float_math.c.obj
 .text.__wrap_atanhf
                0x0000000000000000       0x58 CMakeFiles/tinyusb_host_cdc_msc_hid.dir/home/boemmelsebastian/pico/pico-sdk/src/rp2_common/pico_float/float_math.c.obj
 .text.__wrap_exp2f
                0x0000000000000000       0x20 CMakeFiles/tinyusb_host_cdc_msc_hid.dir/home/boemmelsebastian/pico/pico-sdk/src/rp2_common/pico_float/float_math.c.obj
 .text.__wrap_log2f
                0x0000000000000000       0x14 CMakeFiles/tinyusb_host_cdc_msc_hid.dir/home/boemmelsebastian/pico/pico-sdk/src/rp2_common/pico_float/float_math.c.obj
 .text.__wrap_exp10f
                0x0000000000000000       0x20 CMakeFiles/tinyusb_host_cdc_msc_hid.dir/home/boemmelsebastian/pico/pico-sdk/src/rp2_common/pico_float/float_math.c.obj
 .text.__wrap_log10f
                0x0000000000000000       0x14 CMakeFiles/tinyusb_host_cdc_msc_hid.dir/home/boemmelsebastian/pico/pico-sdk/src/rp2_common/pico_float/float_math.c.obj
 .text.__wrap_expm1f
                0x0000000000000000       0x1c CMakeFiles/tinyusb_host_cdc_msc_hid.dir/home/boemmelsebastian/pico/pico-sdk/src/rp2_common/pico_float/float_math.c.obj
 .text.__wrap_log1pf
                0x0000000000000000       0x1c CMakeFiles/tinyusb_host_cdc_msc_hid.dir/home/boemmelsebastian/pico/pico-sdk/src/rp2_common/pico_float/float_math.c.obj
 .text.__wrap_fmaf
                0x0000000000000000       0x3c CMakeFiles/tinyusb_host_cdc_msc_hid.dir/home/boemmelsebastian/pico/pico-sdk/src/rp2_common/pico_float/float_math.c.obj
 .text.__wrap_powintf
                0x0000000000000000       0xa0 CMakeFiles/tinyusb_host_cdc_msc_hid.dir/home/boemmelsebastian/pico/pico-sdk/src/rp2_common/pico_float/float_math.c.obj
 .text.__wrap_powf
                0x0000000000000000      0x1f0 CMakeFiles/tinyusb_host_cdc_msc_hid.dir/home/boemmelsebastian/pico/pico-sdk/src/rp2_common/pico_float/float_math.c.obj
 .text.__wrap_hypotf
                0x0000000000000000      0x184 CMakeFiles/tinyusb_host_cdc_msc_hid.dir/home/boemmelsebastian/pico/pico-sdk/src/rp2_common/pico_float/float_math.c.obj
 .text.__wrap_cbrtf
                0x0000000000000000       0xb0 CMakeFiles/tinyusb_host_cdc_msc_hid.dir/home/boemmelsebastian/pico/pico-sdk/src/rp2_common/pico_float/float_math.c.obj
 .text.__wrap_fmodf
                0x0000000000000000       0x62 CMakeFiles/tinyusb_host_cdc_msc_hid.dir/home/boemmelsebastian/pico/pico-sdk/src/rp2_common/pico_float/float_math.c.obj
 .text.__wrap_remquof
                0x0000000000000000       0xd8 CMakeFiles/tinyusb_host_cdc_msc_hid.dir/home/boemmelsebastian/pico/pico-sdk/src/rp2_common/pico_float/float_math.c.obj
 .text.__wrap_dremf
                0x0000000000000000        0xa CMakeFiles/tinyusb_host_cdc_msc_hid.dir/home/boemmelsebastian/pico/pico-sdk/src/rp2_common/pico_float/float_math.c.obj
 .text.__wrap_remainderf
                0x0000000000000000        0xa CMakeFiles/tinyusb_host_cdc_msc_hid.dir/home/boemmelsebastian/pico/pico-sdk/src/rp2_common/pico_float/float_math.c.obj
 .debug_info    0x0000000000000000     0x3f60 CMakeFiles/tinyusb_host_cdc_msc_hid.dir/home/boemmelsebastian/pico/pico-sdk/src/rp2_common/pico_float/float_math.c.obj
 .debug_abbrev  0x0000000000000000      0x444 CMakeFiles/tinyusb_host_cdc_msc_hid.dir/home/boemmelsebastian/pico/pico-sdk/src/rp2_common/pico_float/float_math.c.obj
 .debug_loc     0x0000000000000000     0x5164 CMakeFiles/tinyusb_host_cdc_msc_hid.dir/home/boemmelsebastian/pico/pico-sdk/src/rp2_common/pico_float/float_math.c.obj
 .debug_aranges
                0x0000000000000000      0x128 CMakeFiles/tinyusb_host_cdc_msc_hid.dir/home/boemmelsebastian/pico/pico-sdk/src/rp2_common/pico_float/float_math.c.obj
 .debug_ranges  0x0000000000000000      0xb20 CMakeFiles/tinyusb_host_cdc_msc_hid.dir/home/boemmelsebastian/pico/pico-sdk/src/rp2_common/pico_float/float_math.c.obj
 .debug_line    0x0000000000000000     0x234c CMakeFiles/tinyusb_host_cdc_msc_hid.dir/home/boemmelsebastian/pico/pico-sdk/src/rp2_common/pico_float/float_math.c.obj
 .debug_str     0x0000000000000000      0x8d6 CMakeFiles/tinyusb_host_cdc_msc_hid.dir/home/boemmelsebastian/pico/pico-sdk/src/rp2_common/pico_float/float_math.c.obj
 .comment       0x0000000000000000       0x52 CMakeFiles/tinyusb_host_cdc_msc_hid.dir/home/boemmelsebastian/pico/pico-sdk/src/rp2_common/pico_float/float_math.c.obj
 .debug_frame   0x0000000000000000      0x384 CMakeFiles/tinyusb_host_cdc_msc_hid.dir/home/boemmelsebastian/pico/pico-sdk/src/rp2_common/pico_float/float_math.c.obj
 .ARM.attributes
                0x0000000000000000       0x2c CMakeFiles/tinyusb_host_cdc_msc_hid.dir/home/boemmelsebastian/pico/pico-sdk/src/rp2_common/pico_float/float_math.c.obj
 .text          0x0000000000000000        0x0 CMakeFiles/tinyusb_host_cdc_msc_hid.dir/home/boemmelsebastian/pico/pico-sdk/src/rp2_common/pico_float/float_v1_rom_shim.S.obj
 .data          0x0000000000000000        0x0 CMakeFiles/tinyusb_host_cdc_msc_hid.dir/home/boemmelsebastian/pico/pico-sdk/src/rp2_common/pico_float/float_v1_rom_shim.S.obj
 .bss           0x0000000000000000        0x0 CMakeFiles/tinyusb_host_cdc_msc_hid.dir/home/boemmelsebastian/pico/pico-sdk/src/rp2_common/pico_float/float_v1_rom_shim.S.obj
 .text.642float_shims
                0x0000000000000000       0x44 CMakeFiles/tinyusb_host_cdc_msc_hid.dir/home/boemmelsebastian/pico/pico-sdk/src/rp2_common/pico_float/float_v1_rom_shim.S.obj
 .text.fatan2_shim
                0x0000000000000000       0x88 CMakeFiles/tinyusb_host_cdc_msc_hid.dir/home/boemmelsebastian/pico/pico-sdk/src/rp2_common/pico_float/float_v1_rom_shim.S.obj
 .text.float232_shims
                0x0000000000000000       0x18 CMakeFiles/tinyusb_host_cdc_msc_hid.dir/home/boemmelsebastian/pico/pico-sdk/src/rp2_common/pico_float/float_v1_rom_shim.S.obj
 .text.float264_shims
                0x0000000000000000       0x4c CMakeFiles/tinyusb_host_cdc_msc_hid.dir/home/boemmelsebastian/pico/pico-sdk/src/rp2_common/pico_float/float_v1_rom_shim.S.obj
 .text.d2fix_a_float
                0x0000000000000000       0x5c CMakeFiles/tinyusb_host_cdc_msc_hid.dir/home/boemmelsebastian/pico/pico-sdk/src/rp2_common/pico_float/float_v1_rom_shim.S.obj
 .text.float2double_shim
                0x0000000000000000       0x30 CMakeFiles/tinyusb_host_cdc_msc_hid.dir/home/boemmelsebastian/pico/pico-sdk/src/rp2_common/pico_float/float_v1_rom_shim.S.obj
 .text          0x0000000000000000        0x0 CMakeFiles/tinyusb_host_cdc_msc_hid.dir/home/boemmelsebastian/pico/pico-sdk/src/rp2_common/pico_malloc/pico_malloc.c.obj
 .data          0x0000000000000000        0x0 CMakeFiles/tinyusb_host_cdc_msc_hid.dir/home/boemmelsebastian/pico/pico-sdk/src/rp2_common/pico_malloc/pico_malloc.c.obj
 .bss           0x0000000000000000        0x0 CMakeFiles/tinyusb_host_cdc_msc_hid.dir/home/boemmelsebastian/pico/pico-sdk/src/rp2_common/pico_malloc/pico_malloc.c.obj
 .text.__wrap_malloc
                0x0000000000000000       0x24 CMakeFiles/tinyusb_host_cdc_msc_hid.dir/home/boemmelsebastian/pico/pico-sdk/src/rp2_common/pico_malloc/pico_malloc.c.obj
 .text.__wrap_calloc
                0x0000000000000000       0x24 CMakeFiles/tinyusb_host_cdc_msc_hid.dir/home/boemmelsebastian/pico/pico-sdk/src/rp2_common/pico_malloc/pico_malloc.c.obj
 .text.__wrap_free
                0x0000000000000000        0x8 CMakeFiles/tinyusb_host_cdc_msc_hid.dir/home/boemmelsebastian/pico/pico-sdk/src/rp2_common/pico_malloc/pico_malloc.c.obj
 .rodata.__wrap_malloc.str1.4
                0x0000000000000000        0xe CMakeFiles/tinyusb_host_cdc_msc_hid.dir/home/boemmelsebastian/pico/pico-sdk/src/rp2_common/pico_malloc/pico_malloc.c.obj
 .debug_info    0x0000000000000000      0xb12 CMakeFiles/tinyusb_host_cdc_msc_hid.dir/home/boemmelsebastian/pico/pico-sdk/src/rp2_common/pico_malloc/pico_malloc.c.obj
 .debug_abbrev  0x0000000000000000      0x2bb CMakeFiles/tinyusb_host_cdc_msc_hid.dir/home/boemmelsebastian/pico/pico-sdk/src/rp2_common/pico_malloc/pico_malloc.c.obj
 .debug_loc     0x0000000000000000      0x14c CMakeFiles/tinyusb_host_cdc_msc_hid.dir/home/boemmelsebastian/pico/pico-sdk/src/rp2_common/pico_malloc/pico_malloc.c.obj
 .debug_aranges
                0x0000000000000000       0x30 CMakeFiles/tinyusb_host_cdc_msc_hid.dir/home/boemmelsebastian/pico/pico-sdk/src/rp2_common/pico_malloc/pico_malloc.c.obj
 .debug_ranges  0x0000000000000000       0x50 CMakeFiles/tinyusb_host_cdc_msc_hid.dir/home/boemmelsebastian/pico/pico-sdk/src/rp2_common/pico_malloc/pico_malloc.c.obj
 .debug_line    0x0000000000000000      0x200 CMakeFiles/tinyusb_host_cdc_msc_hid.dir/home/boemmelsebastian/pico/pico-sdk/src/rp2_common/pico_malloc/pico_malloc.c.obj
 .debug_str     0x0000000000000000      0x660 CMakeFiles/tinyusb_host_cdc_msc_hid.dir/home/boemmelsebastian/pico/pico-sdk/src/rp2_common/pico_malloc/pico_malloc.c.obj
 .comment       0x0000000000000000       0x52 CMakeFiles/tinyusb_host_cdc_msc_hid.dir/home/boemmelsebastian/pico/pico-sdk/src/rp2_common/pico_malloc/pico_malloc.c.obj
 .debug_frame   0x0000000000000000       0x58 CMakeFiles/tinyusb_host_cdc_msc_hid.dir/home/boemmelsebastian/pico/pico-sdk/src/rp2_common/pico_malloc/pico_malloc.c.obj
 .ARM.attributes
                0x0000000000000000       0x2c CMakeFiles/tinyusb_host_cdc_msc_hid.dir/home/boemmelsebastian/pico/pico-sdk/src/rp2_common/pico_malloc/pico_malloc.c.obj
 .data          0x0000000000000000        0x0 CMakeFiles/tinyusb_host_cdc_msc_hid.dir/home/boemmelsebastian/pico/pico-sdk/src/rp2_common/pico_mem_ops/mem_ops_aeabi.S.obj
 .bss           0x0000000000000000        0x0 CMakeFiles/tinyusb_host_cdc_msc_hid.dir/home/boemmelsebastian/pico/pico-sdk/src/rp2_common/pico_mem_ops/mem_ops_aeabi.S.obj
 .text.aeabi_memset_memcpy
                0x0000000000000000       0x24 CMakeFiles/tinyusb_host_cdc_msc_hid.dir/home/boemmelsebastian/pico/pico-sdk/src/rp2_common/pico_mem_ops/mem_ops_aeabi.S.obj
 .text          0x0000000000000000        0x0 CMakeFiles/tinyusb_host_cdc_msc_hid.dir/home/boemmelsebastian/pico/pico-sdk/src/rp2_common/pico_standard_link/crt0.S.obj
 .data          0x0000000000000000        0x0 CMakeFiles/tinyusb_host_cdc_msc_hid.dir/home/boemmelsebastian/pico/pico-sdk/src/rp2_common/pico_standard_link/crt0.S.obj
 .bss           0x0000000000000000        0x0 CMakeFiles/tinyusb_host_cdc_msc_hid.dir/home/boemmelsebastian/pico/pico-sdk/src/rp2_common/pico_standard_link/crt0.S.obj
 .text          0x0000000000000000        0x0 CMakeFiles/tinyusb_host_cdc_msc_hid.dir/home/boemmelsebastian/pico/pico-sdk/src/rp2_common/pico_standard_link/new_delete.cpp.obj
 .data          0x0000000000000000        0x0 CMakeFiles/tinyusb_host_cdc_msc_hid.dir/home/boemmelsebastian/pico/pico-sdk/src/rp2_common/pico_standard_link/new_delete.cpp.obj
 .bss           0x0000000000000000        0x0 CMakeFiles/tinyusb_host_cdc_msc_hid.dir/home/boemmelsebastian/pico/pico-sdk/src/rp2_common/pico_standard_link/new_delete.cpp.obj
 .text._Znwj    0x0000000000000000        0x8 CMakeFiles/tinyusb_host_cdc_msc_hid.dir/home/boemmelsebastian/pico/pico-sdk/src/rp2_common/pico_standard_link/new_delete.cpp.obj
 .text._Znaj    0x0000000000000000        0x8 CMakeFiles/tinyusb_host_cdc_msc_hid.dir/home/boemmelsebastian/pico/pico-sdk/src/rp2_common/pico_standard_link/new_delete.cpp.obj
 .text._ZdlPv   0x0000000000000000        0x8 CMakeFiles/tinyusb_host_cdc_msc_hid.dir/home/boemmelsebastian/pico/pico-sdk/src/rp2_common/pico_standard_link/new_delete.cpp.obj
 .text._ZdaPv   0x0000000000000000        0x8 CMakeFiles/tinyusb_host_cdc_msc_hid.dir/home/boemmelsebastian/pico/pico-sdk/src/rp2_common/pico_standard_link/new_delete.cpp.obj
 .text._ZdlPvj  0x0000000000000000        0x8 CMakeFiles/tinyusb_host_cdc_msc_hid.dir/home/boemmelsebastian/pico/pico-sdk/src/rp2_common/pico_standard_link/new_delete.cpp.obj
 .text._ZdaPvj  0x0000000000000000        0x8 CMakeFiles/tinyusb_host_cdc_msc_hid.dir/home/boemmelsebastian/pico/pico-sdk/src/rp2_common/pico_standard_link/new_delete.cpp.obj
 .debug_info    0x0000000000000000     0x1025 CMakeFiles/tinyusb_host_cdc_msc_hid.dir/home/boemmelsebastian/pico/pico-sdk/src/rp2_common/pico_standard_link/new_delete.cpp.obj
 .debug_abbrev  0x0000000000000000      0x2f5 CMakeFiles/tinyusb_host_cdc_msc_hid.dir/home/boemmelsebastian/pico/pico-sdk/src/rp2_common/pico_standard_link/new_delete.cpp.obj
 .debug_loc     0x0000000000000000      0x128 CMakeFiles/tinyusb_host_cdc_msc_hid.dir/home/boemmelsebastian/pico/pico-sdk/src/rp2_common/pico_standard_link/new_delete.cpp.obj
 .debug_aranges
                0x0000000000000000       0x48 CMakeFiles/tinyusb_host_cdc_msc_hid.dir/home/boemmelsebastian/pico/pico-sdk/src/rp2_common/pico_standard_link/new_delete.cpp.obj
 .debug_ranges  0x0000000000000000       0x38 CMakeFiles/tinyusb_host_cdc_msc_hid.dir/home/boemmelsebastian/pico/pico-sdk/src/rp2_common/pico_standard_link/new_delete.cpp.obj
 .debug_line    0x0000000000000000      0x23f CMakeFiles/tinyusb_host_cdc_msc_hid.dir/home/boemmelsebastian/pico/pico-sdk/src/rp2_common/pico_standard_link/new_delete.cpp.obj
 .debug_str     0x0000000000000000      0x7e9 CMakeFiles/tinyusb_host_cdc_msc_hid.dir/home/boemmelsebastian/pico/pico-sdk/src/rp2_common/pico_standard_link/new_delete.cpp.obj
 .comment       0x0000000000000000       0x52 CMakeFiles/tinyusb_host_cdc_msc_hid.dir/home/boemmelsebastian/pico/pico-sdk/src/rp2_common/pico_standard_link/new_delete.cpp.obj
 .debug_frame   0x0000000000000000       0xa0 CMakeFiles/tinyusb_host_cdc_msc_hid.dir/home/boemmelsebastian/pico/pico-sdk/src/rp2_common/pico_standard_link/new_delete.cpp.obj
 .ARM.attributes
                0x0000000000000000       0x2c CMakeFiles/tinyusb_host_cdc_msc_hid.dir/home/boemmelsebastian/pico/pico-sdk/src/rp2_common/pico_standard_link/new_delete.cpp.obj
 .text          0x0000000000000000        0x0 CMakeFiles/tinyusb_host_cdc_msc_hid.dir/home/boemmelsebastian/pico/pico-sdk/src/rp2_common/pico_standard_link/binary_info.c.obj
 .data          0x0000000000000000        0x0 CMakeFiles/tinyusb_host_cdc_msc_hid.dir/home/boemmelsebastian/pico/pico-sdk/src/rp2_common/pico_standard_link/binary_info.c.obj
 .bss           0x0000000000000000        0x0 CMakeFiles/tinyusb_host_cdc_msc_hid.dir/home/boemmelsebastian/pico/pico-sdk/src/rp2_common/pico_standard_link/binary_info.c.obj
 .text          0x0000000000000000        0x0 CMakeFiles/tinyusb_host_cdc_msc_hid.dir/home/boemmelsebastian/pico/pico-sdk/src/rp2_common/pico_stdio/stdio.c.obj
 .data          0x0000000000000000        0x0 CMakeFiles/tinyusb_host_cdc_msc_hid.dir/home/boemmelsebastian/pico/pico-sdk/src/rp2_common/pico_stdio/stdio.c.obj
 .bss           0x0000000000000000        0x0 CMakeFiles/tinyusb_host_cdc_msc_hid.dir/home/boemmelsebastian/pico/pico-sdk/src/rp2_common/pico_stdio/stdio.c.obj
 .text.putchar_raw
                0x0000000000000000       0x1c CMakeFiles/tinyusb_host_cdc_msc_hid.dir/home/boemmelsebastian/pico/pico-sdk/src/rp2_common/pico_stdio/stdio.c.obj
 .text.puts_raw
                0x0000000000000000       0x1e CMakeFiles/tinyusb_host_cdc_msc_hid.dir/home/boemmelsebastian/pico/pico-sdk/src/rp2_common/pico_stdio/stdio.c.obj
 .text.stdio_init_all
                0x0000000000000000        0x8 CMakeFiles/tinyusb_host_cdc_msc_hid.dir/home/boemmelsebastian/pico/pico-sdk/src/rp2_common/pico_stdio/stdio.c.obj
 .text.__wrap_getchar
                0x0000000000000000       0x40 CMakeFiles/tinyusb_host_cdc_msc_hid.dir/home/boemmelsebastian/pico/pico-sdk/src/rp2_common/pico_stdio/stdio.c.obj
 .text.getchar_timeout_us
                0x0000000000000000       0x80 CMakeFiles/tinyusb_host_cdc_msc_hid.dir/home/boemmelsebastian/pico/pico-sdk/src/rp2_common/pico_stdio/stdio.c.obj
 .text.stdio_filter_driver
                0x0000000000000000        0xc CMakeFiles/tinyusb_host_cdc_msc_hid.dir/home/boemmelsebastian/pico/pico-sdk/src/rp2_common/pico_stdio/stdio.c.obj
 .text.stdio_set_translate_crlf
                0x0000000000000000       0x10 CMakeFiles/tinyusb_host_cdc_msc_hid.dir/home/boemmelsebastian/pico/pico-sdk/src/rp2_common/pico_stdio/stdio.c.obj
 .rodata.__func__.5474
                0x0000000000000000       0x15 CMakeFiles/tinyusb_host_cdc_msc_hid.dir/home/boemmelsebastian/pico/pico-sdk/src/rp2_common/pico_stdio/stdio.c.obj
 .rodata.__func__.6220
                0x0000000000000000        0xf CMakeFiles/tinyusb_host_cdc_msc_hid.dir/home/boemmelsebastian/pico/pico-sdk/src/rp2_common/pico_stdio/stdio.c.obj
 .rodata.__func__.6226
                0x0000000000000000       0x13 CMakeFiles/tinyusb_host_cdc_msc_hid.dir/home/boemmelsebastian/pico/pico-sdk/src/rp2_common/pico_stdio/stdio.c.obj
 .rodata.__wrap_getchar.str1.4
                0x0000000000000000       0x53 CMakeFiles/tinyusb_host_cdc_msc_hid.dir/home/boemmelsebastian/pico/pico-sdk/src/rp2_common/pico_stdio/stdio.c.obj
 .rodata.getchar_timeout_us.str1.4
                0x0000000000000000       0x6f CMakeFiles/tinyusb_host_cdc_msc_hid.dir/home/boemmelsebastian/pico/pico-sdk/src/rp2_common/pico_stdio/stdio.c.obj
 .text          0x0000000000000000        0x0 CMakeFiles/tinyusb_host_cdc_msc_hid.dir/home/boemmelsebastian/pico/pico-sdk/src/rp2_common/pico_stdio_uart/stdio_uart.c.obj
 .data          0x0000000000000000        0x0 CMakeFiles/tinyusb_host_cdc_msc_hid.dir/home/boemmelsebastian/pico/pico-sdk/src/rp2_common/pico_stdio_uart/stdio_uart.c.obj
 .bss           0x0000000000000000        0x0 CMakeFiles/tinyusb_host_cdc_msc_hid.dir/home/boemmelsebastian/pico/pico-sdk/src/rp2_common/pico_stdio_uart/stdio_uart.c.obj
 .text.stdio_uart_init
                0x0000000000000000       0x28 CMakeFiles/tinyusb_host_cdc_msc_hid.dir/home/boemmelsebastian/pico/pico-sdk/src/rp2_common/pico_stdio_uart/stdio_uart.c.obj
 .text.stdout_uart_init
                0x0000000000000000       0x28 CMakeFiles/tinyusb_host_cdc_msc_hid.dir/home/boemmelsebastian/pico/pico-sdk/src/rp2_common/pico_stdio_uart/stdio_uart.c.obj
 .text.stdin_uart_init
                0x0000000000000000       0x28 CMakeFiles/tinyusb_host_cdc_msc_hid.dir/home/boemmelsebastian/pico/pico-sdk/src/rp2_common/pico_stdio_uart/stdio_uart.c.obj
 .binary_info.__bi_ptr28
                0x0000000000000000        0x4 CMakeFiles/tinyusb_host_cdc_msc_hid.dir/home/boemmelsebastian/pico/pico-sdk/src/rp2_common/pico_stdio_uart/stdio_uart.c.obj
 .binary_info.__bi_ptr29
                0x0000000000000000        0x4 CMakeFiles/tinyusb_host_cdc_msc_hid.dir/home/boemmelsebastian/pico/pico-sdk/src/rp2_common/pico_stdio_uart/stdio_uart.c.obj
 .binary_info.__bi_ptr49
                0x0000000000000000        0x4 CMakeFiles/tinyusb_host_cdc_msc_hid.dir/home/boemmelsebastian/pico/pico-sdk/src/rp2_common/pico_stdio_uart/stdio_uart.c.obj
 .binary_info.__bi_ptr53
                0x0000000000000000        0x4 CMakeFiles/tinyusb_host_cdc_msc_hid.dir/home/boemmelsebastian/pico/pico-sdk/src/rp2_common/pico_stdio_uart/stdio_uart.c.obj
 .binary_info.__bi_ptr61
                0x0000000000000000        0x4 CMakeFiles/tinyusb_host_cdc_msc_hid.dir/home/boemmelsebastian/pico/pico-sdk/src/rp2_common/pico_stdio_uart/stdio_uart.c.obj
 .binary_info.__bi_ptr65
                0x0000000000000000        0x4 CMakeFiles/tinyusb_host_cdc_msc_hid.dir/home/boemmelsebastian/pico/pico-sdk/src/rp2_common/pico_stdio_uart/stdio_uart.c.obj
 .rodata.__bi_28.4823
                0x0000000000000000        0xc CMakeFiles/tinyusb_host_cdc_msc_hid.dir/home/boemmelsebastian/pico/pico-sdk/src/rp2_common/pico_stdio_uart/stdio_uart.c.obj
 .rodata.__bi_29.4827
                0x0000000000000000        0x8 CMakeFiles/tinyusb_host_cdc_msc_hid.dir/home/boemmelsebastian/pico/pico-sdk/src/rp2_common/pico_stdio_uart/stdio_uart.c.obj
 .rodata.__bi_49.4833
                0x0000000000000000        0x8 CMakeFiles/tinyusb_host_cdc_msc_hid.dir/home/boemmelsebastian/pico/pico-sdk/src/rp2_common/pico_stdio_uart/stdio_uart.c.obj
 .rodata.__bi_53.4837
                0x0000000000000000        0xc CMakeFiles/tinyusb_host_cdc_msc_hid.dir/home/boemmelsebastian/pico/pico-sdk/src/rp2_common/pico_stdio_uart/stdio_uart.c.obj
 .rodata.__bi_61.4843
                0x0000000000000000        0x8 CMakeFiles/tinyusb_host_cdc_msc_hid.dir/home/boemmelsebastian/pico/pico-sdk/src/rp2_common/pico_stdio_uart/stdio_uart.c.obj
 .rodata.__bi_65.4847
                0x0000000000000000        0xc CMakeFiles/tinyusb_host_cdc_msc_hid.dir/home/boemmelsebastian/pico/pico-sdk/src/rp2_common/pico_stdio_uart/stdio_uart.c.obj
 .rodata.str1.4
                0x0000000000000000       0x2c CMakeFiles/tinyusb_host_cdc_msc_hid.dir/home/boemmelsebastian/pico/pico-sdk/src/rp2_common/pico_stdio_uart/stdio_uart.c.obj
 .text          0x0000000000000000        0x0 CMakeFiles/tinyusb_host_cdc_msc_hid.dir/home/boemmelsebastian/pico/pico-sdk/src/rp2_common/pico_bootsel_via_double_reset/pico_bootsel_via_double_reset.c.obj
 .data          0x0000000000000000        0x0 CMakeFiles/tinyusb_host_cdc_msc_hid.dir/home/boemmelsebastian/pico/pico-sdk/src/rp2_common/pico_bootsel_via_double_reset/pico_bootsel_via_double_reset.c.obj
 .bss           0x0000000000000000        0x0 CMakeFiles/tinyusb_host_cdc_msc_hid.dir/home/boemmelsebastian/pico/pico-sdk/src/rp2_common/pico_bootsel_via_double_reset/pico_bootsel_via_double_reset.c.obj
 .text          0x0000000000000000        0x0 CMakeFiles/tinyusb_host_cdc_msc_hid.dir/home/boemmelsebastian/pico/pico-sdk/lib/tinyusb/hw/bsp/rp2040/family.c.obj
 .data          0x0000000000000000        0x0 CMakeFiles/tinyusb_host_cdc_msc_hid.dir/home/boemmelsebastian/pico/pico-sdk/lib/tinyusb/hw/bsp/rp2040/family.c.obj
 .bss           0x0000000000000000        0x0 CMakeFiles/tinyusb_host_cdc_msc_hid.dir/home/boemmelsebastian/pico/pico-sdk/lib/tinyusb/hw/bsp/rp2040/family.c.obj
 .time_critical.get_bootsel_button
                0x0000000000000000       0x64 CMakeFiles/tinyusb_host_cdc_msc_hid.dir/home/boemmelsebastian/pico/pico-sdk/lib/tinyusb/hw/bsp/rp2040/family.c.obj
 .text.board_button_read
                0x0000000000000000        0xe CMakeFiles/tinyusb_host_cdc_msc_hid.dir/home/boemmelsebastian/pico/pico-sdk/lib/tinyusb/hw/bsp/rp2040/family.c.obj
 .text.board_uart_read
                0x0000000000000000       0x44 CMakeFiles/tinyusb_host_cdc_msc_hid.dir/home/boemmelsebastian/pico/pico-sdk/lib/tinyusb/hw/bsp/rp2040/family.c.obj
 .text.board_uart_write
                0x0000000000000000       0x78 CMakeFiles/tinyusb_host_cdc_msc_hid.dir/home/boemmelsebastian/pico/pico-sdk/lib/tinyusb/hw/bsp/rp2040/family.c.obj
 .text          0x0000000000000000        0x0 CMakeFiles/tinyusb_host_cdc_msc_hid.dir/home/boemmelsebastian/pico/pico-sdk/lib/tinyusb/src/portable/raspberrypi/rp2040/hcd_rp2040.c.obj
 .data          0x0000000000000000        0x0 CMakeFiles/tinyusb_host_cdc_msc_hid.dir/home/boemmelsebastian/pico/pico-sdk/lib/tinyusb/src/portable/raspberrypi/rp2040/hcd_rp2040.c.obj
 .bss           0x0000000000000000        0x0 CMakeFiles/tinyusb_host_cdc_msc_hid.dir/home/boemmelsebastian/pico/pico-sdk/lib/tinyusb/src/portable/raspberrypi/rp2040/hcd_rp2040.c.obj
 .text.hcd_frame_number
                0x0000000000000000        0xc CMakeFiles/tinyusb_host_cdc_msc_hid.dir/home/boemmelsebastian/pico/pico-sdk/lib/tinyusb/src/portable/raspberrypi/rp2040/hcd_rp2040.c.obj
 .text.hcd_int_disable
                0x0000000000000000       0x2c CMakeFiles/tinyusb_host_cdc_msc_hid.dir/home/boemmelsebastian/pico/pico-sdk/lib/tinyusb/src/portable/raspberrypi/rp2040/hcd_rp2040.c.obj
 .text.hcd_edpt_clear_stall
                0x0000000000000000        0xc CMakeFiles/tinyusb_host_cdc_msc_hid.dir/home/boemmelsebastian/pico/pico-sdk/lib/tinyusb/src/portable/raspberrypi/rp2040/hcd_rp2040.c.obj
 .rodata.__func__.7056
                0x0000000000000000       0x10 CMakeFiles/tinyusb_host_cdc_msc_hid.dir/home/boemmelsebastian/pico/pico-sdk/lib/tinyusb/src/portable/raspberrypi/rp2040/hcd_rp2040.c.obj
 .rodata.hcd_edpt_clear_stall.str1.4
                0x0000000000000000       0x10 CMakeFiles/tinyusb_host_cdc_msc_hid.dir/home/boemmelsebastian/pico/pico-sdk/lib/tinyusb/src/portable/raspberrypi/rp2040/hcd_rp2040.c.obj
 .text          0x0000000000000000        0x0 CMakeFiles/tinyusb_host_cdc_msc_hid.dir/home/boemmelsebastian/pico/pico-sdk/lib/tinyusb/src/portable/raspberrypi/rp2040/rp2040_usb.c.obj
 .data          0x0000000000000000        0x0 CMakeFiles/tinyusb_host_cdc_msc_hid.dir/home/boemmelsebastian/pico/pico-sdk/lib/tinyusb/src/portable/raspberrypi/rp2040/rp2040_usb.c.obj
 .bss           0x0000000000000000        0x0 CMakeFiles/tinyusb_host_cdc_msc_hid.dir/home/boemmelsebastian/pico/pico-sdk/lib/tinyusb/src/portable/raspberrypi/rp2040/rp2040_usb.c.obj
 .text          0x0000000000000000        0x0 CMakeFiles/tinyusb_host_cdc_msc_hid.dir/home/boemmelsebastian/pico/pico-sdk/lib/tinyusb/src/host/usbh.c.obj
 .data          0x0000000000000000        0x0 CMakeFiles/tinyusb_host_cdc_msc_hid.dir/home/boemmelsebastian/pico/pico-sdk/lib/tinyusb/src/host/usbh.c.obj
 .bss           0x0000000000000000        0x0 CMakeFiles/tinyusb_host_cdc_msc_hid.dir/home/boemmelsebastian/pico/pico-sdk/lib/tinyusb/src/host/usbh.c.obj
 .text.tuh_mounted
                0x0000000000000000       0x34 CMakeFiles/tinyusb_host_cdc_msc_hid.dir/home/boemmelsebastian/pico/pico-sdk/lib/tinyusb/src/host/usbh.c.obj
 .text.tuh_vid_pid_get
                0x0000000000000000       0x4c CMakeFiles/tinyusb_host_cdc_msc_hid.dir/home/boemmelsebastian/pico/pico-sdk/lib/tinyusb/src/host/usbh.c.obj
 .text.hcd_devtree_get_info
                0x0000000000000000       0x40 CMakeFiles/tinyusb_host_cdc_msc_hid.dir/home/boemmelsebastian/pico/pico-sdk/lib/tinyusb/src/host/usbh.c.obj
 .text.usbh_edpt_release
                0x0000000000000000       0x80 CMakeFiles/tinyusb_host_cdc_msc_hid.dir/home/boemmelsebastian/pico/pico-sdk/lib/tinyusb/src/host/usbh.c.obj
 .text          0x0000000000000000        0x0 CMakeFiles/tinyusb_host_cdc_msc_hid.dir/home/boemmelsebastian/pico/pico-sdk/lib/tinyusb/src/host/usbh_control.c.obj
 .data          0x0000000000000000        0x0 CMakeFiles/tinyusb_host_cdc_msc_hid.dir/home/boemmelsebastian/pico/pico-sdk/lib/tinyusb/src/host/usbh_control.c.obj
 .bss           0x0000000000000000        0x0 CMakeFiles/tinyusb_host_cdc_msc_hid.dir/home/boemmelsebastian/pico/pico-sdk/lib/tinyusb/src/host/usbh_control.c.obj
 .text          0x0000000000000000        0x0 CMakeFiles/tinyusb_host_cdc_msc_hid.dir/home/boemmelsebastian/pico/pico-sdk/lib/tinyusb/src/host/hub.c.obj
 .data          0x0000000000000000        0x0 CMakeFiles/tinyusb_host_cdc_msc_hid.dir/home/boemmelsebastian/pico/pico-sdk/lib/tinyusb/src/host/hub.c.obj
 .bss           0x0000000000000000        0x0 CMakeFiles/tinyusb_host_cdc_msc_hid.dir/home/boemmelsebastian/pico/pico-sdk/lib/tinyusb/src/host/hub.c.obj
 .text          0x0000000000000000        0x0 CMakeFiles/tinyusb_host_cdc_msc_hid.dir/home/boemmelsebastian/pico/pico-sdk/lib/tinyusb/src/class/cdc/cdc_host.c.obj
 .data          0x0000000000000000        0x0 CMakeFiles/tinyusb_host_cdc_msc_hid.dir/home/boemmelsebastian/pico/pico-sdk/lib/tinyusb/src/class/cdc/cdc_host.c.obj
 .bss           0x0000000000000000        0x0 CMakeFiles/tinyusb_host_cdc_msc_hid.dir/home/boemmelsebastian/pico/pico-sdk/lib/tinyusb/src/class/cdc/cdc_host.c.obj
 .text.tuh_cdc_is_busy
                0x0000000000000000       0x60 CMakeFiles/tinyusb_host_cdc_msc_hid.dir/home/boemmelsebastian/pico/pico-sdk/lib/tinyusb/src/class/cdc/cdc_host.c.obj
 .text.tuh_cdc_serial_is_mounted
                0x0000000000000000       0x30 CMakeFiles/tinyusb_host_cdc_msc_hid.dir/home/boemmelsebastian/pico/pico-sdk/lib/tinyusb/src/class/cdc/cdc_host.c.obj
 .text.tuh_cdc_send
                0x0000000000000000       0x4c CMakeFiles/tinyusb_host_cdc_msc_hid.dir/home/boemmelsebastian/pico/pico-sdk/lib/tinyusb/src/class/cdc/cdc_host.c.obj
 .text.tuh_cdc_set_control_line_state
                0x0000000000000000       0x70 CMakeFiles/tinyusb_host_cdc_msc_hid.dir/home/boemmelsebastian/pico/pico-sdk/lib/tinyusb/src/class/cdc/cdc_host.c.obj
 .rodata.__func__.7154
                0x0000000000000000       0x1f CMakeFiles/tinyusb_host_cdc_msc_hid.dir/home/boemmelsebastian/pico/pico-sdk/lib/tinyusb/src/class/cdc/cdc_host.c.obj
 .text          0x0000000000000000        0x0 CMakeFiles/tinyusb_host_cdc_msc_hid.dir/home/boemmelsebastian/pico/pico-sdk/lib/tinyusb/src/class/hid/hid_host.c.obj
 .data          0x0000000000000000        0x0 CMakeFiles/tinyusb_host_cdc_msc_hid.dir/home/boemmelsebastian/pico/pico-sdk/lib/tinyusb/src/class/hid/hid_host.c.obj
 .bss           0x0000000000000000        0x0 CMakeFiles/tinyusb_host_cdc_msc_hid.dir/home/boemmelsebastian/pico/pico-sdk/lib/tinyusb/src/class/hid/hid_host.c.obj
 .text.set_protocol_complete
                0x0000000000000000       0x5c CMakeFiles/tinyusb_host_cdc_msc_hid.dir/home/boemmelsebastian/pico/pico-sdk/lib/tinyusb/src/class/hid/hid_host.c.obj
 .text.set_report_complete
                0x0000000000000000       0x48 CMakeFiles/tinyusb_host_cdc_msc_hid.dir/home/boemmelsebastian/pico/pico-sdk/lib/tinyusb/src/class/hid/hid_host.c.obj
 .text.tuh_hid_instance_count
                0x0000000000000000       0x18 CMakeFiles/tinyusb_host_cdc_msc_hid.dir/home/boemmelsebastian/pico/pico-sdk/lib/tinyusb/src/class/hid/hid_host.c.obj
 .text.tuh_hid_mounted
                0x0000000000000000       0x48 CMakeFiles/tinyusb_host_cdc_msc_hid.dir/home/boemmelsebastian/pico/pico-sdk/lib/tinyusb/src/class/hid/hid_host.c.obj
 .text.tuh_hid_get_protocol
                0x0000000000000000       0x20 CMakeFiles/tinyusb_host_cdc_msc_hid.dir/home/boemmelsebastian/pico/pico-sdk/lib/tinyusb/src/class/hid/hid_host.c.obj
 .text.tuh_hid_set_protocol
                0x0000000000000000       0x90 CMakeFiles/tinyusb_host_cdc_msc_hid.dir/home/boemmelsebastian/pico/pico-sdk/lib/tinyusb/src/class/hid/hid_host.c.obj
 .text.tuh_hid_set_report
                0x0000000000000000       0x94 CMakeFiles/tinyusb_host_cdc_msc_hid.dir/home/boemmelsebastian/pico/pico-sdk/lib/tinyusb/src/class/hid/hid_host.c.obj
 .rodata.__func__.7312
                0x0000000000000000       0x15 CMakeFiles/tinyusb_host_cdc_msc_hid.dir/home/boemmelsebastian/pico/pico-sdk/lib/tinyusb/src/class/hid/hid_host.c.obj
 .rodata.__func__.7332
                0x0000000000000000       0x13 CMakeFiles/tinyusb_host_cdc_msc_hid.dir/home/boemmelsebastian/pico/pico-sdk/lib/tinyusb/src/class/hid/hid_host.c.obj
 .text          0x0000000000000000        0x0 CMakeFiles/tinyusb_host_cdc_msc_hid.dir/home/boemmelsebastian/pico/pico-sdk/lib/tinyusb/src/class/msc/msc_host.c.obj
 .data          0x0000000000000000        0x0 CMakeFiles/tinyusb_host_cdc_msc_hid.dir/home/boemmelsebastian/pico/pico-sdk/lib/tinyusb/src/class/msc/msc_host.c.obj
 .bss           0x0000000000000000        0x0 CMakeFiles/tinyusb_host_cdc_msc_hid.dir/home/boemmelsebastian/pico/pico-sdk/lib/tinyusb/src/class/msc/msc_host.c.obj
 .text.tuh_msc_get_maxlun
                0x0000000000000000       0x14 CMakeFiles/tinyusb_host_cdc_msc_hid.dir/home/boemmelsebastian/pico/pico-sdk/lib/tinyusb/src/class/msc/msc_host.c.obj
 .text.tuh_msc_mounted
                0x0000000000000000       0x18 CMakeFiles/tinyusb_host_cdc_msc_hid.dir/home/boemmelsebastian/pico/pico-sdk/lib/tinyusb/src/class/msc/msc_host.c.obj
 .text.tuh_msc_ready
                0x0000000000000000       0x34 CMakeFiles/tinyusb_host_cdc_msc_hid.dir/home/boemmelsebastian/pico/pico-sdk/lib/tinyusb/src/class/msc/msc_host.c.obj
 .text.tuh_msc_read10
                0x0000000000000000       0xc4 CMakeFiles/tinyusb_host_cdc_msc_hid.dir/home/boemmelsebastian/pico/pico-sdk/lib/tinyusb/src/class/msc/msc_host.c.obj
 .text.tuh_msc_write10
                0x0000000000000000       0xc0 CMakeFiles/tinyusb_host_cdc_msc_hid.dir/home/boemmelsebastian/pico/pico-sdk/lib/tinyusb/src/class/msc/msc_host.c.obj
 .text          0x0000000000000000        0x0 CMakeFiles/tinyusb_host_cdc_msc_hid.dir/home/boemmelsebastian/pico/pico-sdk/lib/tinyusb/src/class/vendor/vendor_host.c.obj
 .data          0x0000000000000000        0x0 CMakeFiles/tinyusb_host_cdc_msc_hid.dir/home/boemmelsebastian/pico/pico-sdk/lib/tinyusb/src/class/vendor/vendor_host.c.obj
 .bss           0x0000000000000000        0x0 CMakeFiles/tinyusb_host_cdc_msc_hid.dir/home/boemmelsebastian/pico/pico-sdk/lib/tinyusb/src/class/vendor/vendor_host.c.obj
 .debug_line    0x0000000000000000        0x0 CMakeFiles/tinyusb_host_cdc_msc_hid.dir/home/boemmelsebastian/pico/pico-sdk/lib/tinyusb/src/class/vendor/vendor_host.c.obj
 .debug_str     0x0000000000000000      0x15e CMakeFiles/tinyusb_host_cdc_msc_hid.dir/home/boemmelsebastian/pico/pico-sdk/lib/tinyusb/src/class/vendor/vendor_host.c.obj
 .comment       0x0000000000000000       0x52 CMakeFiles/tinyusb_host_cdc_msc_hid.dir/home/boemmelsebastian/pico/pico-sdk/lib/tinyusb/src/class/vendor/vendor_host.c.obj
 .ARM.attributes
                0x0000000000000000       0x32 CMakeFiles/tinyusb_host_cdc_msc_hid.dir/home/boemmelsebastian/pico/pico-sdk/lib/tinyusb/src/class/vendor/vendor_host.c.obj
 .text          0x0000000000000000        0x0 CMakeFiles/tinyusb_host_cdc_msc_hid.dir/home/boemmelsebastian/pico/pico-sdk/lib/tinyusb/src/tusb.c.obj
 .data          0x0000000000000000        0x0 CMakeFiles/tinyusb_host_cdc_msc_hid.dir/home/boemmelsebastian/pico/pico-sdk/lib/tinyusb/src/tusb.c.obj
 .bss           0x0000000000000000        0x0 CMakeFiles/tinyusb_host_cdc_msc_hid.dir/home/boemmelsebastian/pico/pico-sdk/lib/tinyusb/src/tusb.c.obj
 .text.dump_str_line
                0x0000000000000000       0x40 CMakeFiles/tinyusb_host_cdc_msc_hid.dir/home/boemmelsebastian/pico/pico-sdk/lib/tinyusb/src/tusb.c.obj
 .text.tu_print_mem
                0x0000000000000000       0xdc CMakeFiles/tinyusb_host_cdc_msc_hid.dir/home/boemmelsebastian/pico/pico-sdk/lib/tinyusb/src/tusb.c.obj
 .rodata.dump_str_line.str1.4
                0x0000000000000000        0x7 CMakeFiles/tinyusb_host_cdc_msc_hid.dir/home/boemmelsebastian/pico/pico-sdk/lib/tinyusb/src/tusb.c.obj
 .rodata.str1.4
                0x0000000000000000      0x132 CMakeFiles/tinyusb_host_cdc_msc_hid.dir/home/boemmelsebastian/pico/pico-sdk/lib/tinyusb/src/tusb.c.obj
 .rodata.tu_print_mem.str1.4
                0x0000000000000000       0x15 CMakeFiles/tinyusb_host_cdc_msc_hid.dir/home/boemmelsebastian/pico/pico-sdk/lib/tinyusb/src/tusb.c.obj
 .rodata.tusb_strerr
                0x0000000000000000       0x2c CMakeFiles/tinyusb_host_cdc_msc_hid.dir/home/boemmelsebastian/pico/pico-sdk/lib/tinyusb/src/tusb.c.obj
 .text          0x0000000000000000        0x0 CMakeFiles/tinyusb_host_cdc_msc_hid.dir/home/boemmelsebastian/pico/pico-sdk/lib/tinyusb/src/common/tusb_fifo.c.obj
 .data          0x0000000000000000        0x0 CMakeFiles/tinyusb_host_cdc_msc_hid.dir/home/boemmelsebastian/pico/pico-sdk/lib/tinyusb/src/common/tusb_fifo.c.obj
 .bss           0x0000000000000000        0x0 CMakeFiles/tinyusb_host_cdc_msc_hid.dir/home/boemmelsebastian/pico/pico-sdk/lib/tinyusb/src/common/tusb_fifo.c.obj
 .text._ff_pull_const_addr
                0x0000000000000000       0x46 CMakeFiles/tinyusb_host_cdc_msc_hid.dir/home/boemmelsebastian/pico/pico-sdk/lib/tinyusb/src/common/tusb_fifo.c.obj
 .text._ff_pull_n
                0x0000000000000000      0x100 CMakeFiles/tinyusb_host_cdc_msc_hid.dir/home/boemmelsebastian/pico/pico-sdk/lib/tinyusb/src/common/tusb_fifo.c.obj
 .text._tu_fifo_peek_n
                0x0000000000000000       0x5e CMakeFiles/tinyusb_host_cdc_msc_hid.dir/home/boemmelsebastian/pico/pico-sdk/lib/tinyusb/src/common/tusb_fifo.c.obj
 .text._tu_fifo_read_n
                0x0000000000000000       0x4e CMakeFiles/tinyusb_host_cdc_msc_hid.dir/home/boemmelsebastian/pico/pico-sdk/lib/tinyusb/src/common/tusb_fifo.c.obj
 .text._ff_push_const_addr
                0x0000000000000000       0x3a CMakeFiles/tinyusb_host_cdc_msc_hid.dir/home/boemmelsebastian/pico/pico-sdk/lib/tinyusb/src/common/tusb_fifo.c.obj
 .text._ff_push_n
                0x0000000000000000       0xfa CMakeFiles/tinyusb_host_cdc_msc_hid.dir/home/boemmelsebastian/pico/pico-sdk/lib/tinyusb/src/common/tusb_fifo.c.obj
 .text._tu_fifo_write_n
                0x0000000000000000       0x9e CMakeFiles/tinyusb_host_cdc_msc_hid.dir/home/boemmelsebastian/pico/pico-sdk/lib/tinyusb/src/common/tusb_fifo.c.obj
 .text.tu_fifo_config
                0x0000000000000000       0x72 CMakeFiles/tinyusb_host_cdc_msc_hid.dir/home/boemmelsebastian/pico/pico-sdk/lib/tinyusb/src/common/tusb_fifo.c.obj
 .text.tu_fifo_count
                0x0000000000000000       0x24 CMakeFiles/tinyusb_host_cdc_msc_hid.dir/home/boemmelsebastian/pico/pico-sdk/lib/tinyusb/src/common/tusb_fifo.c.obj
 .text.tu_fifo_empty
                0x0000000000000000        0xe CMakeFiles/tinyusb_host_cdc_msc_hid.dir/home/boemmelsebastian/pico/pico-sdk/lib/tinyusb/src/common/tusb_fifo.c.obj
 .text.tu_fifo_full
                0x0000000000000000       0x22 CMakeFiles/tinyusb_host_cdc_msc_hid.dir/home/boemmelsebastian/pico/pico-sdk/lib/tinyusb/src/common/tusb_fifo.c.obj
 .text.tu_fifo_remaining
                0x0000000000000000       0x20 CMakeFiles/tinyusb_host_cdc_msc_hid.dir/home/boemmelsebastian/pico/pico-sdk/lib/tinyusb/src/common/tusb_fifo.c.obj
 .text.tu_fifo_overflowed
                0x0000000000000000       0x20 CMakeFiles/tinyusb_host_cdc_msc_hid.dir/home/boemmelsebastian/pico/pico-sdk/lib/tinyusb/src/common/tusb_fifo.c.obj
 .text.tu_fifo_correct_read_pointer
                0x0000000000000000       0x2c CMakeFiles/tinyusb_host_cdc_msc_hid.dir/home/boemmelsebastian/pico/pico-sdk/lib/tinyusb/src/common/tusb_fifo.c.obj
 .text.tu_fifo_read_n
                0x0000000000000000        0xa CMakeFiles/tinyusb_host_cdc_msc_hid.dir/home/boemmelsebastian/pico/pico-sdk/lib/tinyusb/src/common/tusb_fifo.c.obj
 .text.tu_fifo_read_n_const_addr_full_words
                0x0000000000000000        0xa CMakeFiles/tinyusb_host_cdc_msc_hid.dir/home/boemmelsebastian/pico/pico-sdk/lib/tinyusb/src/common/tusb_fifo.c.obj
 .text.tu_fifo_peek
                0x0000000000000000       0x34 CMakeFiles/tinyusb_host_cdc_msc_hid.dir/home/boemmelsebastian/pico/pico-sdk/lib/tinyusb/src/common/tusb_fifo.c.obj
 .text.tu_fifo_peek_n
                0x0000000000000000       0x44 CMakeFiles/tinyusb_host_cdc_msc_hid.dir/home/boemmelsebastian/pico/pico-sdk/lib/tinyusb/src/common/tusb_fifo.c.obj
 .text.tu_fifo_write_n
                0x0000000000000000        0xa CMakeFiles/tinyusb_host_cdc_msc_hid.dir/home/boemmelsebastian/pico/pico-sdk/lib/tinyusb/src/common/tusb_fifo.c.obj
 .text.tu_fifo_write_n_const_addr_full_words
                0x0000000000000000        0xa CMakeFiles/tinyusb_host_cdc_msc_hid.dir/home/boemmelsebastian/pico/pico-sdk/lib/tinyusb/src/common/tusb_fifo.c.obj
 .text.tu_fifo_set_overwritable
                0x0000000000000000       0x3c CMakeFiles/tinyusb_host_cdc_msc_hid.dir/home/boemmelsebastian/pico/pico-sdk/lib/tinyusb/src/common/tusb_fifo.c.obj
 .text.tu_fifo_advance_write_pointer
                0x0000000000000000       0x12 CMakeFiles/tinyusb_host_cdc_msc_hid.dir/home/boemmelsebastian/pico/pico-sdk/lib/tinyusb/src/common/tusb_fifo.c.obj
 .text.tu_fifo_advance_read_pointer
                0x0000000000000000       0x12 CMakeFiles/tinyusb_host_cdc_msc_hid.dir/home/boemmelsebastian/pico/pico-sdk/lib/tinyusb/src/common/tusb_fifo.c.obj
 .text.tu_fifo_get_read_info
                0x0000000000000000       0xa2 CMakeFiles/tinyusb_host_cdc_msc_hid.dir/home/boemmelsebastian/pico/pico-sdk/lib/tinyusb/src/common/tusb_fifo.c.obj
 .text.tu_fifo_get_write_info
                0x0000000000000000       0x7a CMakeFiles/tinyusb_host_cdc_msc_hid.dir/home/boemmelsebastian/pico/pico-sdk/lib/tinyusb/src/common/tusb_fifo.c.obj
 .text          0x0000000000000000        0x0 /tmp/ccjovMa2.o
 .data          0x0000000000000000        0x0 /tmp/ccjovMa2.o
 .bss           0x0000000000000000        0x0 /tmp/ccjovMa2.o
 .data          0x0000000000000000        0x0 /usr/lib/gcc/arm-none-eabi/8.3.1/thumb/v6-m/nofp/libgcc.a(_dvmd_tls.o)
 .bss           0x0000000000000000        0x0 /usr/lib/gcc/arm-none-eabi/8.3.1/thumb/v6-m/nofp/libgcc.a(_dvmd_tls.o)
 .text          0x0000000000000000       0x10 /usr/lib/gcc/arm-none-eabi/8.3.1/../../../arm-none-eabi/lib/thumb/v6-m/nofp/libg.a(lib_a-atexit.o)
 .data          0x0000000000000000        0x0 /usr/lib/gcc/arm-none-eabi/8.3.1/../../../arm-none-eabi/lib/thumb/v6-m/nofp/libg.a(lib_a-atexit.o)
 .bss           0x0000000000000000        0x0 /usr/lib/gcc/arm-none-eabi/8.3.1/../../../arm-none-eabi/lib/thumb/v6-m/nofp/libg.a(lib_a-atexit.o)
 .debug_info    0x0000000000000000      0x995 /usr/lib/gcc/arm-none-eabi/8.3.1/../../../arm-none-eabi/lib/thumb/v6-m/nofp/libg.a(lib_a-atexit.o)
 .debug_abbrev  0x0000000000000000      0x22f /usr/lib/gcc/arm-none-eabi/8.3.1/../../../arm-none-eabi/lib/thumb/v6-m/nofp/libg.a(lib_a-atexit.o)
 .debug_loc     0x0000000000000000       0x32 /usr/lib/gcc/arm-none-eabi/8.3.1/../../../arm-none-eabi/lib/thumb/v6-m/nofp/libg.a(lib_a-atexit.o)
 .debug_aranges
                0x0000000000000000       0x20 /usr/lib/gcc/arm-none-eabi/8.3.1/../../../arm-none-eabi/lib/thumb/v6-m/nofp/libg.a(lib_a-atexit.o)
 .debug_line    0x0000000000000000      0x152 /usr/lib/gcc/arm-none-eabi/8.3.1/../../../arm-none-eabi/lib/thumb/v6-m/nofp/libg.a(lib_a-atexit.o)
 .debug_str     0x0000000000000000      0x5e4 /usr/lib/gcc/arm-none-eabi/8.3.1/../../../arm-none-eabi/lib/thumb/v6-m/nofp/libg.a(lib_a-atexit.o)
 .comment       0x0000000000000000       0x4f /usr/lib/gcc/arm-none-eabi/8.3.1/../../../arm-none-eabi/lib/thumb/v6-m/nofp/libg.a(lib_a-atexit.o)
 .debug_frame   0x0000000000000000       0x28 /usr/lib/gcc/arm-none-eabi/8.3.1/../../../arm-none-eabi/lib/thumb/v6-m/nofp/libg.a(lib_a-atexit.o)
 .ARM.attributes
                0x0000000000000000       0x2c /usr/lib/gcc/arm-none-eabi/8.3.1/../../../arm-none-eabi/lib/thumb/v6-m/nofp/libg.a(lib_a-atexit.o)
 .text          0x0000000000000000       0x18 /usr/lib/gcc/arm-none-eabi/8.3.1/../../../arm-none-eabi/lib/thumb/v6-m/nofp/libg.a(lib_a-calloc.o)
 .data          0x0000000000000000        0x0 /usr/lib/gcc/arm-none-eabi/8.3.1/../../../arm-none-eabi/lib/thumb/v6-m/nofp/libg.a(lib_a-calloc.o)
 .bss           0x0000000000000000        0x0 /usr/lib/gcc/arm-none-eabi/8.3.1/../../../arm-none-eabi/lib/thumb/v6-m/nofp/libg.a(lib_a-calloc.o)
 .debug_info    0x0000000000000000      0x988 /usr/lib/gcc/arm-none-eabi/8.3.1/../../../arm-none-eabi/lib/thumb/v6-m/nofp/libg.a(lib_a-calloc.o)
 .debug_abbrev  0x0000000000000000      0x225 /usr/lib/gcc/arm-none-eabi/8.3.1/../../../arm-none-eabi/lib/thumb/v6-m/nofp/libg.a(lib_a-calloc.o)
 .debug_loc     0x0000000000000000       0x64 /usr/lib/gcc/arm-none-eabi/8.3.1/../../../arm-none-eabi/lib/thumb/v6-m/nofp/libg.a(lib_a-calloc.o)
 .debug_aranges
                0x0000000000000000       0x20 /usr/lib/gcc/arm-none-eabi/8.3.1/../../../arm-none-eabi/lib/thumb/v6-m/nofp/libg.a(lib_a-calloc.o)
 .debug_line    0x0000000000000000      0x14c /usr/lib/gcc/arm-none-eabi/8.3.1/../../../arm-none-eabi/lib/thumb/v6-m/nofp/libg.a(lib_a-calloc.o)
 .debug_str     0x0000000000000000      0x5b6 /usr/lib/gcc/arm-none-eabi/8.3.1/../../../arm-none-eabi/lib/thumb/v6-m/nofp/libg.a(lib_a-calloc.o)
 .comment       0x0000000000000000       0x4f /usr/lib/gcc/arm-none-eabi/8.3.1/../../../arm-none-eabi/lib/thumb/v6-m/nofp/libg.a(lib_a-calloc.o)
 .debug_frame   0x0000000000000000       0x28 /usr/lib/gcc/arm-none-eabi/8.3.1/../../../arm-none-eabi/lib/thumb/v6-m/nofp/libg.a(lib_a-calloc.o)
 .ARM.attributes
                0x0000000000000000       0x2c /usr/lib/gcc/arm-none-eabi/8.3.1/../../../arm-none-eabi/lib/thumb/v6-m/nofp/libg.a(lib_a-calloc.o)
 .text          0x0000000000000000       0x5c /usr/lib/gcc/arm-none-eabi/8.3.1/../../../arm-none-eabi/lib/thumb/v6-m/nofp/libg.a(lib_a-callocr.o)
 .data          0x0000000000000000        0x0 /usr/lib/gcc/arm-none-eabi/8.3.1/../../../arm-none-eabi/lib/thumb/v6-m/nofp/libg.a(lib_a-callocr.o)
 .bss           0x0000000000000000        0x0 /usr/lib/gcc/arm-none-eabi/8.3.1/../../../arm-none-eabi/lib/thumb/v6-m/nofp/libg.a(lib_a-callocr.o)
 .debug_info    0x0000000000000000      0xc2f /usr/lib/gcc/arm-none-eabi/8.3.1/../../../arm-none-eabi/lib/thumb/v6-m/nofp/libg.a(lib_a-callocr.o)
 .debug_abbrev  0x0000000000000000      0x275 /usr/lib/gcc/arm-none-eabi/8.3.1/../../../arm-none-eabi/lib/thumb/v6-m/nofp/libg.a(lib_a-callocr.o)
 .debug_loc     0x0000000000000000      0x299 /usr/lib/gcc/arm-none-eabi/8.3.1/../../../arm-none-eabi/lib/thumb/v6-m/nofp/libg.a(lib_a-callocr.o)
 .debug_aranges
                0x0000000000000000       0x20 /usr/lib/gcc/arm-none-eabi/8.3.1/../../../arm-none-eabi/lib/thumb/v6-m/nofp/libg.a(lib_a-callocr.o)
 .debug_ranges  0x0000000000000000       0x40 /usr/lib/gcc/arm-none-eabi/8.3.1/../../../arm-none-eabi/lib/thumb/v6-m/nofp/libg.a(lib_a-callocr.o)
 .debug_line    0x0000000000000000      0x1e7 /usr/lib/gcc/arm-none-eabi/8.3.1/../../../arm-none-eabi/lib/thumb/v6-m/nofp/libg.a(lib_a-callocr.o)
 .debug_str     0x0000000000000000      0x725 /usr/lib/gcc/arm-none-eabi/8.3.1/../../../arm-none-eabi/lib/thumb/v6-m/nofp/libg.a(lib_a-callocr.o)
 .comment       0x0000000000000000       0x4f /usr/lib/gcc/arm-none-eabi/8.3.1/../../../arm-none-eabi/lib/thumb/v6-m/nofp/libg.a(lib_a-callocr.o)
 .debug_frame   0x0000000000000000       0x28 /usr/lib/gcc/arm-none-eabi/8.3.1/../../../arm-none-eabi/lib/thumb/v6-m/nofp/libg.a(lib_a-callocr.o)
 .ARM.attributes
                0x0000000000000000       0x2c /usr/lib/gcc/arm-none-eabi/8.3.1/../../../arm-none-eabi/lib/thumb/v6-m/nofp/libg.a(lib_a-callocr.o)
 .text          0x0000000000000000        0x0 /usr/lib/gcc/arm-none-eabi/8.3.1/../../../arm-none-eabi/lib/thumb/v6-m/nofp/libg.a(lib_a-ctype_.o)
 .data          0x0000000000000000        0x0 /usr/lib/gcc/arm-none-eabi/8.3.1/../../../arm-none-eabi/lib/thumb/v6-m/nofp/libg.a(lib_a-ctype_.o)
 .bss           0x0000000000000000        0x0 /usr/lib/gcc/arm-none-eabi/8.3.1/../../../arm-none-eabi/lib/thumb/v6-m/nofp/libg.a(lib_a-ctype_.o)
 .rodata        0x0000000000000000      0x101 /usr/lib/gcc/arm-none-eabi/8.3.1/../../../arm-none-eabi/lib/thumb/v6-m/nofp/libg.a(lib_a-ctype_.o)
 .debug_info    0x0000000000000000      0xe91 /usr/lib/gcc/arm-none-eabi/8.3.1/../../../arm-none-eabi/lib/thumb/v6-m/nofp/libg.a(lib_a-ctype_.o)
 .debug_abbrev  0x0000000000000000      0x1b6 /usr/lib/gcc/arm-none-eabi/8.3.1/../../../arm-none-eabi/lib/thumb/v6-m/nofp/libg.a(lib_a-ctype_.o)
 .debug_aranges
                0x0000000000000000       0x18 /usr/lib/gcc/arm-none-eabi/8.3.1/../../../arm-none-eabi/lib/thumb/v6-m/nofp/libg.a(lib_a-ctype_.o)
 .debug_line    0x0000000000000000      0x154 /usr/lib/gcc/arm-none-eabi/8.3.1/../../../arm-none-eabi/lib/thumb/v6-m/nofp/libg.a(lib_a-ctype_.o)
 .debug_str     0x0000000000000000      0x8b1 /usr/lib/gcc/arm-none-eabi/8.3.1/../../../arm-none-eabi/lib/thumb/v6-m/nofp/libg.a(lib_a-ctype_.o)
 .comment       0x0000000000000000       0x4f /usr/lib/gcc/arm-none-eabi/8.3.1/../../../arm-none-eabi/lib/thumb/v6-m/nofp/libg.a(lib_a-ctype_.o)
 .ARM.attributes
                0x0000000000000000       0x2c /usr/lib/gcc/arm-none-eabi/8.3.1/../../../arm-none-eabi/lib/thumb/v6-m/nofp/libg.a(lib_a-ctype_.o)
 .data          0x0000000000000000        0x0 /usr/lib/gcc/arm-none-eabi/8.3.1/../../../arm-none-eabi/lib/thumb/v6-m/nofp/libg.a(lib_a-fflush.o)
 .bss           0x0000000000000000        0x0 /usr/lib/gcc/arm-none-eabi/8.3.1/../../../arm-none-eabi/lib/thumb/v6-m/nofp/libg.a(lib_a-fflush.o)
 .data          0x0000000000000000        0x0 /usr/lib/gcc/arm-none-eabi/8.3.1/../../../arm-none-eabi/lib/thumb/v6-m/nofp/libg.a(lib_a-findfp.o)
 .bss           0x0000000000000000        0x0 /usr/lib/gcc/arm-none-eabi/8.3.1/../../../arm-none-eabi/lib/thumb/v6-m/nofp/libg.a(lib_a-findfp.o)
 .text          0x0000000000000000       0x28 /usr/lib/gcc/arm-none-eabi/8.3.1/../../../arm-none-eabi/lib/thumb/v6-m/nofp/libg.a(lib_a-fini.o)
 .data          0x0000000000000000        0x0 /usr/lib/gcc/arm-none-eabi/8.3.1/../../../arm-none-eabi/lib/thumb/v6-m/nofp/libg.a(lib_a-fini.o)
 .bss           0x0000000000000000        0x0 /usr/lib/gcc/arm-none-eabi/8.3.1/../../../arm-none-eabi/lib/thumb/v6-m/nofp/libg.a(lib_a-fini.o)
 .debug_info    0x0000000000000000      0x102 /usr/lib/gcc/arm-none-eabi/8.3.1/../../../arm-none-eabi/lib/thumb/v6-m/nofp/libg.a(lib_a-fini.o)
 .debug_abbrev  0x0000000000000000       0xcc /usr/lib/gcc/arm-none-eabi/8.3.1/../../../arm-none-eabi/lib/thumb/v6-m/nofp/libg.a(lib_a-fini.o)
 .debug_loc     0x0000000000000000       0x46 /usr/lib/gcc/arm-none-eabi/8.3.1/../../../arm-none-eabi/lib/thumb/v6-m/nofp/libg.a(lib_a-fini.o)
 .debug_aranges
                0x0000000000000000       0x20 /usr/lib/gcc/arm-none-eabi/8.3.1/../../../arm-none-eabi/lib/thumb/v6-m/nofp/libg.a(lib_a-fini.o)
 .debug_line    0x0000000000000000       0xd4 /usr/lib/gcc/arm-none-eabi/8.3.1/../../../arm-none-eabi/lib/thumb/v6-m/nofp/libg.a(lib_a-fini.o)
 .debug_str     0x0000000000000000      0x1f3 /usr/lib/gcc/arm-none-eabi/8.3.1/../../../arm-none-eabi/lib/thumb/v6-m/nofp/libg.a(lib_a-fini.o)
 .comment       0x0000000000000000       0x4f /usr/lib/gcc/arm-none-eabi/8.3.1/../../../arm-none-eabi/lib/thumb/v6-m/nofp/libg.a(lib_a-fini.o)
 .debug_frame   0x0000000000000000       0x2c /usr/lib/gcc/arm-none-eabi/8.3.1/../../../arm-none-eabi/lib/thumb/v6-m/nofp/libg.a(lib_a-fini.o)
 .ARM.attributes
                0x0000000000000000       0x2c /usr/lib/gcc/arm-none-eabi/8.3.1/../../../arm-none-eabi/lib/thumb/v6-m/nofp/libg.a(lib_a-fini.o)
 .data          0x0000000000000000        0x0 /usr/lib/gcc/arm-none-eabi/8.3.1/../../../arm-none-eabi/lib/thumb/v6-m/nofp/libg.a(lib_a-freer.o)
 .bss           0x0000000000000000        0x0 /usr/lib/gcc/arm-none-eabi/8.3.1/../../../arm-none-eabi/lib/thumb/v6-m/nofp/libg.a(lib_a-freer.o)
 .data          0x0000000000000000        0x0 /usr/lib/gcc/arm-none-eabi/8.3.1/../../../arm-none-eabi/lib/thumb/v6-m/nofp/libg.a(lib_a-fwalk.o)
 .bss           0x0000000000000000        0x0 /usr/lib/gcc/arm-none-eabi/8.3.1/../../../arm-none-eabi/lib/thumb/v6-m/nofp/libg.a(lib_a-fwalk.o)
 .text          0x0000000000000000        0x0 /usr/lib/gcc/arm-none-eabi/8.3.1/../../../arm-none-eabi/lib/thumb/v6-m/nofp/libg.a(lib_a-impure.o)
 .bss           0x0000000000000000        0x0 /usr/lib/gcc/arm-none-eabi/8.3.1/../../../arm-none-eabi/lib/thumb/v6-m/nofp/libg.a(lib_a-impure.o)
 .text          0x0000000000000000       0x44 /usr/lib/gcc/arm-none-eabi/8.3.1/../../../arm-none-eabi/lib/thumb/v6-m/nofp/libg.a(lib_a-init.o)
 .data          0x0000000000000000        0x0 /usr/lib/gcc/arm-none-eabi/8.3.1/../../../arm-none-eabi/lib/thumb/v6-m/nofp/libg.a(lib_a-init.o)
 .bss           0x0000000000000000        0x0 /usr/lib/gcc/arm-none-eabi/8.3.1/../../../arm-none-eabi/lib/thumb/v6-m/nofp/libg.a(lib_a-init.o)
 .debug_info    0x0000000000000000      0x11a /usr/lib/gcc/arm-none-eabi/8.3.1/../../../arm-none-eabi/lib/thumb/v6-m/nofp/libg.a(lib_a-init.o)
 .debug_abbrev  0x0000000000000000       0xcc /usr/lib/gcc/arm-none-eabi/8.3.1/../../../arm-none-eabi/lib/thumb/v6-m/nofp/libg.a(lib_a-init.o)
 .debug_loc     0x0000000000000000       0x98 /usr/lib/gcc/arm-none-eabi/8.3.1/../../../arm-none-eabi/lib/thumb/v6-m/nofp/libg.a(lib_a-init.o)
 .debug_aranges
                0x0000000000000000       0x20 /usr/lib/gcc/arm-none-eabi/8.3.1/../../../arm-none-eabi/lib/thumb/v6-m/nofp/libg.a(lib_a-init.o)
 .debug_line    0x0000000000000000       0xfc /usr/lib/gcc/arm-none-eabi/8.3.1/../../../arm-none-eabi/lib/thumb/v6-m/nofp/libg.a(lib_a-init.o)
 .debug_str     0x0000000000000000      0x21d /usr/lib/gcc/arm-none-eabi/8.3.1/../../../arm-none-eabi/lib/thumb/v6-m/nofp/libg.a(lib_a-init.o)
 .comment       0x0000000000000000       0x4f /usr/lib/gcc/arm-none-eabi/8.3.1/../../../arm-none-eabi/lib/thumb/v6-m/nofp/libg.a(lib_a-init.o)
 .debug_frame   0x0000000000000000       0x2c /usr/lib/gcc/arm-none-eabi/8.3.1/../../../arm-none-eabi/lib/thumb/v6-m/nofp/libg.a(lib_a-init.o)
 .ARM.attributes
                0x0000000000000000       0x2c /usr/lib/gcc/arm-none-eabi/8.3.1/../../../arm-none-eabi/lib/thumb/v6-m/nofp/libg.a(lib_a-init.o)
 .text          0x0000000000000000       0x28 /usr/lib/gcc/arm-none-eabi/8.3.1/../../../arm-none-eabi/lib/thumb/v6-m/nofp/libg.a(lib_a-malloc.o)
 .data          0x0000000000000000        0x0 /usr/lib/gcc/arm-none-eabi/8.3.1/../../../arm-none-eabi/lib/thumb/v6-m/nofp/libg.a(lib_a-malloc.o)
 .bss           0x0000000000000000        0x0 /usr/lib/gcc/arm-none-eabi/8.3.1/../../../arm-none-eabi/lib/thumb/v6-m/nofp/libg.a(lib_a-malloc.o)
 .debug_info    0x0000000000000000      0x9b6 /usr/lib/gcc/arm-none-eabi/8.3.1/../../../arm-none-eabi/lib/thumb/v6-m/nofp/libg.a(lib_a-malloc.o)
 .debug_abbrev  0x0000000000000000      0x22d /usr/lib/gcc/arm-none-eabi/8.3.1/../../../arm-none-eabi/lib/thumb/v6-m/nofp/libg.a(lib_a-malloc.o)
 .debug_loc     0x0000000000000000       0x64 /usr/lib/gcc/arm-none-eabi/8.3.1/../../../arm-none-eabi/lib/thumb/v6-m/nofp/libg.a(lib_a-malloc.o)
 .debug_aranges
                0x0000000000000000       0x20 /usr/lib/gcc/arm-none-eabi/8.3.1/../../../arm-none-eabi/lib/thumb/v6-m/nofp/libg.a(lib_a-malloc.o)
 .debug_line    0x0000000000000000      0x16e /usr/lib/gcc/arm-none-eabi/8.3.1/../../../arm-none-eabi/lib/thumb/v6-m/nofp/libg.a(lib_a-malloc.o)
 .debug_str     0x0000000000000000      0x5ca /usr/lib/gcc/arm-none-eabi/8.3.1/../../../arm-none-eabi/lib/thumb/v6-m/nofp/libg.a(lib_a-malloc.o)
 .comment       0x0000000000000000       0x4f /usr/lib/gcc/arm-none-eabi/8.3.1/../../../arm-none-eabi/lib/thumb/v6-m/nofp/libg.a(lib_a-malloc.o)
 .debug_frame   0x0000000000000000       0x40 /usr/lib/gcc/arm-none-eabi/8.3.1/../../../arm-none-eabi/lib/thumb/v6-m/nofp/libg.a(lib_a-malloc.o)
 .ARM.attributes
                0x0000000000000000       0x2c /usr/lib/gcc/arm-none-eabi/8.3.1/../../../arm-none-eabi/lib/thumb/v6-m/nofp/libg.a(lib_a-malloc.o)
 .data          0x0000000000000000        0x0 /usr/lib/gcc/arm-none-eabi/8.3.1/../../../arm-none-eabi/lib/thumb/v6-m/nofp/libg.a(lib_a-mlock.o)
 .bss           0x0000000000000000        0x0 /usr/lib/gcc/arm-none-eabi/8.3.1/../../../arm-none-eabi/lib/thumb/v6-m/nofp/libg.a(lib_a-mlock.o)
 .data          0x0000000000000000        0x0 /usr/lib/gcc/arm-none-eabi/8.3.1/../../../arm-none-eabi/lib/thumb/v6-m/nofp/libg.a(lib_a-sbrkr.o)
 .bss           0x0000000000000000        0x0 /usr/lib/gcc/arm-none-eabi/8.3.1/../../../arm-none-eabi/lib/thumb/v6-m/nofp/libg.a(lib_a-sbrkr.o)
 .data          0x0000000000000000        0x0 /usr/lib/gcc/arm-none-eabi/8.3.1/../../../arm-none-eabi/lib/thumb/v6-m/nofp/libg.a(lib_a-stdio.o)
 .bss           0x0000000000000000        0x0 /usr/lib/gcc/arm-none-eabi/8.3.1/../../../arm-none-eabi/lib/thumb/v6-m/nofp/libg.a(lib_a-stdio.o)
 .data          0x0000000000000000        0x0 /usr/lib/gcc/arm-none-eabi/8.3.1/../../../arm-none-eabi/lib/thumb/v6-m/nofp/libg.a(lib_a-strlen-stub.o)
 .bss           0x0000000000000000        0x0 /usr/lib/gcc/arm-none-eabi/8.3.1/../../../arm-none-eabi/lib/thumb/v6-m/nofp/libg.a(lib_a-strlen-stub.o)
 .data          0x0000000000000000        0x0 /usr/lib/gcc/arm-none-eabi/8.3.1/../../../arm-none-eabi/lib/thumb/v6-m/nofp/libg.a(lib_a-writer.o)
 .bss           0x0000000000000000        0x0 /usr/lib/gcc/arm-none-eabi/8.3.1/../../../arm-none-eabi/lib/thumb/v6-m/nofp/libg.a(lib_a-writer.o)
 .text          0x0000000000000000       0x88 /usr/lib/gcc/arm-none-eabi/8.3.1/../../../arm-none-eabi/lib/thumb/v6-m/nofp/libg.a(lib_a-__atexit.o)
 .data          0x0000000000000000        0x0 /usr/lib/gcc/arm-none-eabi/8.3.1/../../../arm-none-eabi/lib/thumb/v6-m/nofp/libg.a(lib_a-__atexit.o)
 .bss           0x0000000000000000        0x0 /usr/lib/gcc/arm-none-eabi/8.3.1/../../../arm-none-eabi/lib/thumb/v6-m/nofp/libg.a(lib_a-__atexit.o)
 .debug_info    0x0000000000000000      0x9d5 /usr/lib/gcc/arm-none-eabi/8.3.1/../../../arm-none-eabi/lib/thumb/v6-m/nofp/libg.a(lib_a-__atexit.o)
 .debug_abbrev  0x0000000000000000      0x252 /usr/lib/gcc/arm-none-eabi/8.3.1/../../../arm-none-eabi/lib/thumb/v6-m/nofp/libg.a(lib_a-__atexit.o)
 .debug_loc     0x0000000000000000      0x164 /usr/lib/gcc/arm-none-eabi/8.3.1/../../../arm-none-eabi/lib/thumb/v6-m/nofp/libg.a(lib_a-__atexit.o)
 .debug_aranges
                0x0000000000000000       0x20 /usr/lib/gcc/arm-none-eabi/8.3.1/../../../arm-none-eabi/lib/thumb/v6-m/nofp/libg.a(lib_a-__atexit.o)
 .debug_line    0x0000000000000000      0x1f9 /usr/lib/gcc/arm-none-eabi/8.3.1/../../../arm-none-eabi/lib/thumb/v6-m/nofp/libg.a(lib_a-__atexit.o)
 .debug_str     0x0000000000000000      0x602 /usr/lib/gcc/arm-none-eabi/8.3.1/../../../arm-none-eabi/lib/thumb/v6-m/nofp/libg.a(lib_a-__atexit.o)
 .comment       0x0000000000000000       0x4f /usr/lib/gcc/arm-none-eabi/8.3.1/../../../arm-none-eabi/lib/thumb/v6-m/nofp/libg.a(lib_a-__atexit.o)
 .debug_frame   0x0000000000000000       0x38 /usr/lib/gcc/arm-none-eabi/8.3.1/../../../arm-none-eabi/lib/thumb/v6-m/nofp/libg.a(lib_a-__atexit.o)
 .ARM.attributes
                0x0000000000000000       0x2c /usr/lib/gcc/arm-none-eabi/8.3.1/../../../arm-none-eabi/lib/thumb/v6-m/nofp/libg.a(lib_a-__atexit.o)
 .data          0x0000000000000000        0x0 /usr/lib/gcc/arm-none-eabi/8.3.1/../../../arm-none-eabi/lib/thumb/v6-m/nofp/libg.a(lib_a-closer.o)
 .bss           0x0000000000000000        0x0 /usr/lib/gcc/arm-none-eabi/8.3.1/../../../arm-none-eabi/lib/thumb/v6-m/nofp/libg.a(lib_a-closer.o)
 .data          0x0000000000000000        0x0 /usr/lib/gcc/arm-none-eabi/8.3.1/../../../arm-none-eabi/lib/thumb/v6-m/nofp/libg.a(lib_a-fclose.o)
 .bss           0x0000000000000000        0x0 /usr/lib/gcc/arm-none-eabi/8.3.1/../../../arm-none-eabi/lib/thumb/v6-m/nofp/libg.a(lib_a-fclose.o)
 .data          0x0000000000000000        0x0 /usr/lib/gcc/arm-none-eabi/8.3.1/../../../arm-none-eabi/lib/thumb/v6-m/nofp/libg.a(lib_a-lseekr.o)
 .bss           0x0000000000000000        0x0 /usr/lib/gcc/arm-none-eabi/8.3.1/../../../arm-none-eabi/lib/thumb/v6-m/nofp/libg.a(lib_a-lseekr.o)
 .data          0x0000000000000000        0x0 /usr/lib/gcc/arm-none-eabi/8.3.1/../../../arm-none-eabi/lib/thumb/v6-m/nofp/libg.a(lib_a-readr.o)
 .bss           0x0000000000000000        0x0 /usr/lib/gcc/arm-none-eabi/8.3.1/../../../arm-none-eabi/lib/thumb/v6-m/nofp/libg.a(lib_a-readr.o)
 .text          0x0000000000000000       0xb0 /usr/lib/gcc/arm-none-eabi/8.3.1/../../../arm-none-eabi/lib/thumb/v6-m/nofp/libg.a(lib_a-reent.o)
 .data          0x0000000000000000        0x0 /usr/lib/gcc/arm-none-eabi/8.3.1/../../../arm-none-eabi/lib/thumb/v6-m/nofp/libg.a(lib_a-reent.o)
 .bss           0x0000000000000000        0x0 /usr/lib/gcc/arm-none-eabi/8.3.1/../../../arm-none-eabi/lib/thumb/v6-m/nofp/libg.a(lib_a-reent.o)
 .data          0x0000000000000000        0x0 /usr/lib/gcc/arm-none-eabi/8.3.1/../../../arm-none-eabi/lib/thumb/v6-m/nofp/libnosys.a(close.o)
 .bss           0x0000000000000000        0x0 /usr/lib/gcc/arm-none-eabi/8.3.1/../../../arm-none-eabi/lib/thumb/v6-m/nofp/libnosys.a(close.o)
 .data          0x0000000000000000        0x0 /usr/lib/gcc/arm-none-eabi/8.3.1/../../../arm-none-eabi/lib/thumb/v6-m/nofp/libnosys.a(lseek.o)
 .bss           0x0000000000000000        0x0 /usr/lib/gcc/arm-none-eabi/8.3.1/../../../arm-none-eabi/lib/thumb/v6-m/nofp/libnosys.a(lseek.o)
 .text          0x0000000000000000        0x0 /usr/lib/gcc/arm-none-eabi/8.3.1/thumb/v6-m/nofp/crtend.o
 .data          0x0000000000000000        0x0 /usr/lib/gcc/arm-none-eabi/8.3.1/thumb/v6-m/nofp/crtend.o
 .bss           0x0000000000000000        0x0 /usr/lib/gcc/arm-none-eabi/8.3.1/thumb/v6-m/nofp/crtend.o
 .eh_frame      0x0000000000000000        0x4 /usr/lib/gcc/arm-none-eabi/8.3.1/thumb/v6-m/nofp/crtend.o
 .text          0x0000000000000000        0x0 /usr/lib/gcc/arm-none-eabi/8.3.1/thumb/v6-m/nofp/crtn.o
 .data          0x0000000000000000        0x0 /usr/lib/gcc/arm-none-eabi/8.3.1/thumb/v6-m/nofp/crtn.o
 .bss           0x0000000000000000        0x0 /usr/lib/gcc/arm-none-eabi/8.3.1/thumb/v6-m/nofp/crtn.o
 .init          0x0000000000000000        0x8 /usr/lib/gcc/arm-none-eabi/8.3.1/thumb/v6-m/nofp/crtn.o
 .fini          0x0000000000000000        0x8 /usr/lib/gcc/arm-none-eabi/8.3.1/thumb/v6-m/nofp/crtn.o
 .ARM.attributes
                0x0000000000000000       0x1e /usr/lib/gcc/arm-none-eabi/8.3.1/thumb/v6-m/nofp/crtn.o

Memory Configuration

Name             Origin             Length             Attributes
FLASH            0x0000000010000000 0x0000000000200000 xr
RAM              0x0000000020000000 0x0000000000040000 xrw
SCRATCH_X        0x0000000020040000 0x0000000000001000 xrw
SCRATCH_Y        0x0000000020041000 0x0000000000001000 xrw
*default*        0x0000000000000000 0xffffffffffffffff

Linker script and memory map

LOAD /usr/lib/gcc/arm-none-eabi/8.3.1/thumb/v6-m/nofp/crti.o
LOAD /usr/lib/gcc/arm-none-eabi/8.3.1/thumb/v6-m/nofp/crtbegin.o
LOAD /usr/lib/gcc/arm-none-eabi/8.3.1/../../../arm-none-eabi/lib/thumb/v6-m/nofp/crt0.o

.flash_begin    0x0000000010000000        0x0
                0x0000000010000000                __flash_binary_start = .

.boot2          0x0000000010000000      0x100
                0x0000000010000000                __boot2_start__ = .
 *(.boot2)
 .boot2         0x0000000010000000      0x100 /tmp/ccjovMa2.o
                0x0000000010000100                __boot2_end__ = .
                0x0000000000000001                ASSERT (((__boot2_end__ - __boot2_start__) == 0x100), ERROR: Pico second stage bootloader must be 256 bytes in size)

.text           0x0000000010000100     0x8828
                0x0000000010000100                __logical_binary_start = .
 *(.vectors)
 .vectors       0x0000000010000100       0xd4 CMakeFiles/tinyusb_host_cdc_msc_hid.dir/home/boemmelsebastian/pico/pico-sdk/src/rp2_common/pico_standard_link/crt0.S.obj
                0x0000000010000100                __vectors
                0x0000000010000100                __VECTOR_TABLE
                0x00000000100001c0                isr_invalid
                0x00000000100001c0                __default_isrs_start
                0x00000000100001c2                isr_nmi
                0x00000000100001c4                isr_hardfault
                0x00000000100001c6                isr_svcall
                0x00000000100001c8                isr_pendsv
                0x00000000100001ca                isr_systick
                0x00000000100001cc                isr_irq30
                0x00000000100001cc                __unhandled_user_irq
                0x00000000100001cc                isr_irq13
                0x00000000100001cc                isr_irq27
                0x00000000100001cc                isr_irq31
                0x00000000100001cc                isr_irq5
                0x00000000100001cc                isr_irq11
                0x00000000100001cc                isr_irq23
                0x00000000100001cc                isr_irq18
                0x00000000100001cc                isr_irq28
                0x00000000100001cc                isr_irq19
                0x00000000100001cc                isr_irq0
                0x00000000100001cc                isr_irq6
                0x00000000100001cc                isr_irq22
                0x00000000100001cc                isr_irq17
                0x00000000100001cc                isr_irq14
                0x00000000100001cc                isr_irq2
                0x00000000100001cc                isr_irq10
                0x00000000100001cc                isr_irq8
                0x00000000100001cc                isr_irq24
                0x00000000100001cc                isr_irq1
                0x00000000100001cc                isr_irq7
                0x00000000100001cc                isr_irq21
                0x00000000100001cc                isr_irq20
                0x00000000100001cc                isr_irq15
                0x00000000100001cc                isr_irq25
                0x00000000100001cc                isr_irq4
                0x00000000100001cc                isr_irq16
                0x00000000100001cc                isr_irq29
                0x00000000100001cc                isr_irq26
                0x00000000100001cc                __default_isrs_end
                0x00000000100001cc                isr_irq3
                0x00000000100001cc                isr_irq12
                0x00000000100001cc                isr_irq9
                0x00000000100001d2                unhandled_user_irq_num_in_r0
 *(.binary_info_header)
 .binary_info_header
                0x00000000100001d4       0x14 CMakeFiles/tinyusb_host_cdc_msc_hid.dir/home/boemmelsebastian/pico/pico-sdk/src/rp2_common/pico_standard_link/crt0.S.obj
                0x00000000100001e8                __binary_info_header_end = .
 *(.reset)
 .reset         0x00000000100001e8       0xa8 CMakeFiles/tinyusb_host_cdc_msc_hid.dir/home/boemmelsebastian/pico/pico-sdk/src/rp2_common/pico_standard_link/crt0.S.obj
                0x00000000100001e8                _entry_point
                0x0000000010000266                __get_current_exception
 .reset         0x0000000010000290       0x30 CMakeFiles/tinyusb_host_cdc_msc_hid.dir/home/boemmelsebastian/pico/pico-sdk/src/rp2_common/pico_standard_link/binary_info.c.obj
 *(.init)
 .init          0x00000000100002c0        0x4 /usr/lib/gcc/arm-none-eabi/8.3.1/thumb/v6-m/nofp/crti.o
                0x00000000100002c0                _init
 *(EXCLUDE_FILE(*libm.a: *libc.a:*lib_a-mem*.o *libgcc.a:) .text*)
 .text          0x00000000100002c4       0x98 /usr/lib/gcc/arm-none-eabi/8.3.1/thumb/v6-m/nofp/crtbegin.o
 .text.process_kbd_report
                0x000000001000035c       0x84 CMakeFiles/tinyusb_host_cdc_msc_hid.dir/src/hid_app.c.obj
 .text.hid_app_task
                0x00000000100003e0        0x2 CMakeFiles/tinyusb_host_cdc_msc_hid.dir/src/hid_app.c.obj
                0x00000000100003e0                hid_app_task
 *fill*         0x00000000100003e2        0x2 
 .text.tuh_hid_mount_cb
                0x00000000100003e4       0x90 CMakeFiles/tinyusb_host_cdc_msc_hid.dir/src/hid_app.c.obj
                0x00000000100003e4                tuh_hid_mount_cb
 .text.tuh_hid_umount_cb
                0x0000000010000474       0x14 CMakeFiles/tinyusb_host_cdc_msc_hid.dir/src/hid_app.c.obj
                0x0000000010000474                tuh_hid_umount_cb
 .text.cursor_movement
                0x0000000010000488       0x14 CMakeFiles/tinyusb_host_cdc_msc_hid.dir/src/hid_app.c.obj
                0x0000000010000488                cursor_movement
 .text.process_mouse_report
                0x000000001000049c       0x44 CMakeFiles/tinyusb_host_cdc_msc_hid.dir/src/hid_app.c.obj
 .text.process_generic_report
                0x00000000100004e0       0x88 CMakeFiles/tinyusb_host_cdc_msc_hid.dir/src/hid_app.c.obj
 .text.tuh_hid_report_received_cb
                0x0000000010000568       0x4c CMakeFiles/tinyusb_host_cdc_msc_hid.dir/src/hid_app.c.obj
                0x0000000010000568                tuh_hid_report_received_cb
 .text.tuh_mount_cb
                0x00000000100005b4       0x24 CMakeFiles/tinyusb_host_cdc_msc_hid.dir/src/main.c.obj
                0x00000000100005b4                tuh_mount_cb
 .text.tuh_umount_cb
                0x00000000100005d8       0x10 CMakeFiles/tinyusb_host_cdc_msc_hid.dir/src/main.c.obj
                0x00000000100005d8                tuh_umount_cb
 .text.tuh_cdc_xfer_isr
                0x00000000100005e8       0x28 CMakeFiles/tinyusb_host_cdc_msc_hid.dir/src/main.c.obj
                0x00000000100005e8                tuh_cdc_xfer_isr
 .text.led_blinking_task
                0x0000000010000610       0x70 CMakeFiles/tinyusb_host_cdc_msc_hid.dir/src/main.c.obj
                0x0000000010000610                led_blinking_task
 .text.main     0x0000000010000680       0x24 CMakeFiles/tinyusb_host_cdc_msc_hid.dir/src/main.c.obj
                0x0000000010000680                main
 .text.inquiry_complete_cb
                0x00000000100006a4       0x78 CMakeFiles/tinyusb_host_cdc_msc_hid.dir/src/msc_app.c.obj
                0x00000000100006a4                inquiry_complete_cb
 .text.tuh_msc_mount_cb
                0x000000001000071c       0x24 CMakeFiles/tinyusb_host_cdc_msc_hid.dir/src/msc_app.c.obj
                0x000000001000071c                tuh_msc_mount_cb
 .text.tuh_msc_umount_cb
                0x0000000010000740       0x10 CMakeFiles/tinyusb_host_cdc_msc_hid.dir/src/msc_app.c.obj
                0x0000000010000740                tuh_msc_umount_cb
 .text.gpio_set_function
                0x0000000010000750       0x30 CMakeFiles/tinyusb_host_cdc_msc_hid.dir/home/boemmelsebastian/pico/pico-sdk/src/rp2_common/hardware_gpio/gpio.c.obj
                0x0000000010000750                gpio_set_function
 .text.gpio_init
                0x0000000010000780       0x16 CMakeFiles/tinyusb_host_cdc_msc_hid.dir/home/boemmelsebastian/pico/pico-sdk/src/rp2_common/hardware_gpio/gpio.c.obj
                0x0000000010000780                gpio_init
 *fill*         0x0000000010000796        0x2 
 .text.hw_claim_lock
                0x0000000010000798       0x18 CMakeFiles/tinyusb_host_cdc_msc_hid.dir/home/boemmelsebastian/pico/pico-sdk/src/rp2_common/hardware_claim/claim.c.obj
                0x0000000010000798                hw_claim_lock
 .text.hw_claim_unlock
                0x00000000100007b0       0x14 CMakeFiles/tinyusb_host_cdc_msc_hid.dir/home/boemmelsebastian/pico/pico-sdk/src/rp2_common/hardware_claim/claim.c.obj
                0x00000000100007b0                hw_claim_unlock
 .text.hw_claim_or_assert
                0x00000000100007c4       0x32 CMakeFiles/tinyusb_host_cdc_msc_hid.dir/home/boemmelsebastian/pico/pico-sdk/src/rp2_common/hardware_claim/claim.c.obj
                0x00000000100007c4                hw_claim_or_assert
 .text.hw_claim_unused_from_range
                0x00000000100007f6       0x50 CMakeFiles/tinyusb_host_cdc_msc_hid.dir/home/boemmelsebastian/pico/pico-sdk/src/rp2_common/hardware_claim/claim.c.obj
                0x00000000100007f6                hw_claim_unused_from_range
 *fill*         0x0000000010000846        0x2 
 .text.running_on_fpga
                0x0000000010000848       0x14 CMakeFiles/tinyusb_host_cdc_msc_hid.dir/home/boemmelsebastian/pico/pico-sdk/src/rp2_common/pico_platform/platform.c.obj
                0x0000000010000848                running_on_fpga
 .text.spin_locks_reset
                0x000000001000085c       0x20 CMakeFiles/tinyusb_host_cdc_msc_hid.dir/home/boemmelsebastian/pico/pico-sdk/src/rp2_common/hardware_sync/sync.c.obj
                0x000000001000085c                spin_locks_reset
 .text.next_striped_spin_lock_num
                0x000000001000087c       0x1c CMakeFiles/tinyusb_host_cdc_msc_hid.dir/home/boemmelsebastian/pico/pico-sdk/src/rp2_common/hardware_sync/sync.c.obj
                0x000000001000087c                next_striped_spin_lock_num
 .text.spin_lock_claim_unused
                0x0000000010000898       0x20 CMakeFiles/tinyusb_host_cdc_msc_hid.dir/home/boemmelsebastian/pico/pico-sdk/src/rp2_common/hardware_sync/sync.c.obj
                0x0000000010000898                spin_lock_claim_unused
 .text.uart_set_baudrate
                0x00000000100008b8       0x5c CMakeFiles/tinyusb_host_cdc_msc_hid.dir/home/boemmelsebastian/pico/pico-sdk/src/rp2_common/hardware_uart/uart.c.obj
                0x00000000100008b8                uart_set_baudrate
 .text.uart_set_translate_crlf
                0x0000000010000914       0x28 CMakeFiles/tinyusb_host_cdc_msc_hid.dir/home/boemmelsebastian/pico/pico-sdk/src/rp2_common/hardware_uart/uart.c.obj
                0x0000000010000914                uart_set_translate_crlf
 .text.uart_init
                0x000000001000093c       0x80 CMakeFiles/tinyusb_host_cdc_msc_hid.dir/home/boemmelsebastian/pico/pico-sdk/src/rp2_common/hardware_uart/uart.c.obj
                0x000000001000093c                uart_init
 .text.sleep_until_callback
                0x00000000100009bc       0x30 CMakeFiles/tinyusb_host_cdc_msc_hid.dir/home/boemmelsebastian/pico/pico-sdk/src/common/pico_time/time.c.obj
 .text.alarm_pool_post_alloc_init
                0x00000000100009ec       0x40 CMakeFiles/tinyusb_host_cdc_msc_hid.dir/home/boemmelsebastian/pico/pico-sdk/src/common/pico_time/time.c.obj
 .text.timer_pool_entry_comparator
                0x0000000010000a2c       0x7c CMakeFiles/tinyusb_host_cdc_msc_hid.dir/home/boemmelsebastian/pico/pico-sdk/src/common/pico_time/time.c.obj
                0x0000000010000a2c                timer_pool_entry_comparator
 .text.ph_add_child_node
                0x0000000010000aa8       0xa4 CMakeFiles/tinyusb_host_cdc_msc_hid.dir/home/boemmelsebastian/pico/pico-sdk/src/common/pico_time/time.c.obj
 .text.ph_merge_nodes
                0x0000000010000b4c       0x3e CMakeFiles/tinyusb_host_cdc_msc_hid.dir/home/boemmelsebastian/pico/pico-sdk/src/common/pico_time/time.c.obj
 *fill*         0x0000000010000b8a        0x2 
 .text.add_alarm_under_lock
                0x0000000010000b8c      0x180 CMakeFiles/tinyusb_host_cdc_msc_hid.dir/home/boemmelsebastian/pico/pico-sdk/src/common/pico_time/time.c.obj
 .text.alarm_pool_alarm_callback
                0x0000000010000d0c      0x328 CMakeFiles/tinyusb_host_cdc_msc_hid.dir/home/boemmelsebastian/pico/pico-sdk/src/common/pico_time/time.c.obj
 .text.alarm_pool_init_default
                0x0000000010001034       0x38 CMakeFiles/tinyusb_host_cdc_msc_hid.dir/home/boemmelsebastian/pico/pico-sdk/src/common/pico_time/time.c.obj
                0x0000000010001034                alarm_pool_init_default
 .text.alarm_pool_get_default
                0x000000001000106c       0x2c CMakeFiles/tinyusb_host_cdc_msc_hid.dir/home/boemmelsebastian/pico/pico-sdk/src/common/pico_time/time.c.obj
                0x000000001000106c                alarm_pool_get_default
 .text.alarm_pool_add_alarm_at
                0x0000000010001098      0x154 CMakeFiles/tinyusb_host_cdc_msc_hid.dir/home/boemmelsebastian/pico/pico-sdk/src/common/pico_time/time.c.obj
                0x0000000010001098                alarm_pool_add_alarm_at
 .text.alarm_pool_cancel_alarm
                0x00000000100011ec       0xec CMakeFiles/tinyusb_host_cdc_msc_hid.dir/home/boemmelsebastian/pico/pico-sdk/src/common/pico_time/time.c.obj
                0x00000000100011ec                alarm_pool_cancel_alarm
 .text.sleep_until
                0x00000000100012d8       0xf8 CMakeFiles/tinyusb_host_cdc_msc_hid.dir/home/boemmelsebastian/pico/pico-sdk/src/common/pico_time/time.c.obj
                0x00000000100012d8                sleep_until
 .text.sleep_us
                0x00000000100013d0       0x54 CMakeFiles/tinyusb_host_cdc_msc_hid.dir/home/boemmelsebastian/pico/pico-sdk/src/common/pico_time/time.c.obj
                0x00000000100013d0                sleep_us
 .text.sleep_ms
                0x0000000010001424       0x14 CMakeFiles/tinyusb_host_cdc_msc_hid.dir/home/boemmelsebastian/pico/pico-sdk/src/common/pico_time/time.c.obj
                0x0000000010001424                sleep_ms
 .text.best_effort_wfe_or_timeout
                0x0000000010001438       0x80 CMakeFiles/tinyusb_host_cdc_msc_hid.dir/home/boemmelsebastian/pico/pico-sdk/src/common/pico_time/time.c.obj
                0x0000000010001438                best_effort_wfe_or_timeout
 .text.hardware_alarm_irq_handler
                0x00000000100014b8       0x8c CMakeFiles/tinyusb_host_cdc_msc_hid.dir/home/boemmelsebastian/pico/pico-sdk/src/rp2_common/hardware_timer/timer.c.obj
 .text.hardware_alarm_claim
                0x0000000010001544       0x18 CMakeFiles/tinyusb_host_cdc_msc_hid.dir/home/boemmelsebastian/pico/pico-sdk/src/rp2_common/hardware_timer/timer.c.obj
                0x0000000010001544                hardware_alarm_claim
 .text.time_us_64
                0x000000001000155c       0x18 CMakeFiles/tinyusb_host_cdc_msc_hid.dir/home/boemmelsebastian/pico/pico-sdk/src/rp2_common/hardware_timer/timer.c.obj
                0x000000001000155c                time_us_64
 .text.busy_wait_until
                0x0000000010001574       0x24 CMakeFiles/tinyusb_host_cdc_msc_hid.dir/home/boemmelsebastian/pico/pico-sdk/src/rp2_common/hardware_timer/timer.c.obj
                0x0000000010001574                busy_wait_until
 .text.busy_wait_us
                0x0000000010001598       0x48 CMakeFiles/tinyusb_host_cdc_msc_hid.dir/home/boemmelsebastian/pico/pico-sdk/src/rp2_common/hardware_timer/timer.c.obj
                0x0000000010001598                busy_wait_us
 .text.hardware_alarm_set_callback
                0x00000000100015e0       0x90 CMakeFiles/tinyusb_host_cdc_msc_hid.dir/home/boemmelsebastian/pico/pico-sdk/src/rp2_common/hardware_timer/timer.c.obj
                0x00000000100015e0                hardware_alarm_set_callback
 .text.hardware_alarm_set_target
                0x0000000010001670       0xe8 CMakeFiles/tinyusb_host_cdc_msc_hid.dir/home/boemmelsebastian/pico/pico-sdk/src/rp2_common/hardware_timer/timer.c.obj
                0x0000000010001670                hardware_alarm_set_target
 .text.hardware_alarm_cancel
                0x0000000010001758       0x40 CMakeFiles/tinyusb_host_cdc_msc_hid.dir/home/boemmelsebastian/pico/pico-sdk/src/rp2_common/hardware_timer/timer.c.obj
                0x0000000010001758                hardware_alarm_cancel
 .text.lock_init
                0x0000000010001798       0x10 CMakeFiles/tinyusb_host_cdc_msc_hid.dir/home/boemmelsebastian/pico/pico-sdk/src/common/pico_sync/lock_core.c.obj
                0x0000000010001798                lock_init
 .text.mutex_init
                0x00000000100017a8       0x1a CMakeFiles/tinyusb_host_cdc_msc_hid.dir/home/boemmelsebastian/pico/pico-sdk/src/common/pico_sync/mutex.c.obj
                0x00000000100017a8                mutex_init
 .text.recursive_mutex_init
                0x00000000100017c2       0x1e CMakeFiles/tinyusb_host_cdc_msc_hid.dir/home/boemmelsebastian/pico/pico-sdk/src/common/pico_sync/mutex.c.obj
                0x00000000100017c2                recursive_mutex_init
 .text.critical_section_init_with_lock_num
                0x00000000100017e0       0x14 CMakeFiles/tinyusb_host_cdc_msc_hid.dir/home/boemmelsebastian/pico/pico-sdk/src/common/pico_sync/critical_section.c.obj
                0x00000000100017e0                critical_section_init_with_lock_num
 .text.critical_section_init
                0x00000000100017f4       0x14 CMakeFiles/tinyusb_host_cdc_msc_hid.dir/home/boemmelsebastian/pico/pico-sdk/src/common/pico_sync/critical_section.c.obj
                0x00000000100017f4                critical_section_init
 .text.ph_add_child_node
                0x0000000010001808       0xa4 CMakeFiles/tinyusb_host_cdc_msc_hid.dir/home/boemmelsebastian/pico/pico-sdk/src/common/pico_util/pheap.c.obj
 .text.ph_merge_nodes
                0x00000000100018ac       0x3e CMakeFiles/tinyusb_host_cdc_msc_hid.dir/home/boemmelsebastian/pico/pico-sdk/src/common/pico_util/pheap.c.obj
 *fill*         0x00000000100018ea        0x2 
 .text.ph_clear
                0x00000000100018ec       0x70 CMakeFiles/tinyusb_host_cdc_msc_hid.dir/home/boemmelsebastian/pico/pico-sdk/src/common/pico_util/pheap.c.obj
                0x00000000100018ec                ph_clear
 .text.ph_post_alloc_init
                0x000000001000195c        0xe CMakeFiles/tinyusb_host_cdc_msc_hid.dir/home/boemmelsebastian/pico/pico-sdk/src/common/pico_util/pheap.c.obj
                0x000000001000195c                ph_post_alloc_init
 *fill*         0x000000001000196a        0x2 
 .text.ph_merge_two_pass
                0x000000001000196c       0xac CMakeFiles/tinyusb_host_cdc_msc_hid.dir/home/boemmelsebastian/pico/pico-sdk/src/common/pico_util/pheap.c.obj
                0x000000001000196c                ph_merge_two_pass
 .text.ph_remove_any_head
                0x0000000010001a18      0x108 CMakeFiles/tinyusb_host_cdc_msc_hid.dir/home/boemmelsebastian/pico/pico-sdk/src/common/pico_util/pheap.c.obj
 .text.ph_remove_head
                0x0000000010001b20       0x14 CMakeFiles/tinyusb_host_cdc_msc_hid.dir/home/boemmelsebastian/pico/pico-sdk/src/common/pico_util/pheap.c.obj
                0x0000000010001b20                ph_remove_head
 .text.ph_remove_and_free_node
                0x0000000010001b34       0xf8 CMakeFiles/tinyusb_host_cdc_msc_hid.dir/home/boemmelsebastian/pico/pico-sdk/src/common/pico_util/pheap.c.obj
                0x0000000010001b34                ph_remove_and_free_node
 .text._exit    0x0000000010001c2c        0x4 CMakeFiles/tinyusb_host_cdc_msc_hid.dir/home/boemmelsebastian/pico/pico-sdk/src/rp2_common/pico_runtime/runtime.c.obj
                0x0000000010001c2c                _exit
 .text._sbrk    0x0000000010001c30       0x38 CMakeFiles/tinyusb_host_cdc_msc_hid.dir/home/boemmelsebastian/pico/pico-sdk/src/rp2_common/pico_runtime/runtime.c.obj
                0x0000000010001c30                _sbrk
 .text.exit     0x0000000010001c68        0x6 CMakeFiles/tinyusb_host_cdc_msc_hid.dir/home/boemmelsebastian/pico/pico-sdk/src/rp2_common/pico_runtime/runtime.c.obj
                0x0000000010001c68                exit
 *fill*         0x0000000010001c6e        0x2 
 .text.__assert_func
                0x0000000010001c70       0x3c CMakeFiles/tinyusb_host_cdc_msc_hid.dir/home/boemmelsebastian/pico/pico-sdk/src/rp2_common/pico_runtime/runtime.c.obj
                0x0000000010001c70                __assert_func
 .text.runtime_init
                0x0000000010001cac       0xf8 CMakeFiles/tinyusb_host_cdc_msc_hid.dir/home/boemmelsebastian/pico/pico-sdk/src/rp2_common/pico_runtime/runtime.c.obj
                0x0000000010001cac                runtime_init
 .text.panic    0x0000000010001da4       0x30 CMakeFiles/tinyusb_host_cdc_msc_hid.dir/home/boemmelsebastian/pico/pico-sdk/src/rp2_common/pico_runtime/runtime.c.obj
                0x0000000010001da4                panic
 .text.clock_configure
                0x0000000010001dd4       0xfc CMakeFiles/tinyusb_host_cdc_msc_hid.dir/home/boemmelsebastian/pico/pico-sdk/src/rp2_common/hardware_clocks/clocks.c.obj
                0x0000000010001dd4                clock_configure
 .text.clocks_init
                0x0000000010001ed0      0x100 CMakeFiles/tinyusb_host_cdc_msc_hid.dir/home/boemmelsebastian/pico/pico-sdk/src/rp2_common/hardware_clocks/clocks.c.obj
                0x0000000010001ed0                clocks_init
 .text.clock_get_hz
                0x0000000010001fd0        0xc CMakeFiles/tinyusb_host_cdc_msc_hid.dir/home/boemmelsebastian/pico/pico-sdk/src/rp2_common/hardware_clocks/clocks.c.obj
                0x0000000010001fd0                clock_get_hz
 .text.set_raw_irq_handler_and_unlock
                0x0000000010001fdc       0x28 CMakeFiles/tinyusb_host_cdc_msc_hid.dir/home/boemmelsebastian/pico/pico-sdk/src/rp2_common/hardware_irq/irq.c.obj
 .text.make_branch
                0x0000000010002004       0x48 CMakeFiles/tinyusb_host_cdc_msc_hid.dir/home/boemmelsebastian/pico/pico-sdk/src/rp2_common/hardware_irq/irq.c.obj
 .text.insert_branch_and_link
                0x000000001000204c       0x40 CMakeFiles/tinyusb_host_cdc_msc_hid.dir/home/boemmelsebastian/pico/pico-sdk/src/rp2_common/hardware_irq/irq.c.obj
 .text.irq_is_enabled
                0x000000001000208c       0x18 CMakeFiles/tinyusb_host_cdc_msc_hid.dir/home/boemmelsebastian/pico/pico-sdk/src/rp2_common/hardware_irq/irq.c.obj
                0x000000001000208c                irq_is_enabled
 .text.irq_set_mask_enabled
                0x00000000100020a4       0x20 CMakeFiles/tinyusb_host_cdc_msc_hid.dir/home/boemmelsebastian/pico/pico-sdk/src/rp2_common/hardware_irq/irq.c.obj
                0x00000000100020a4                irq_set_mask_enabled
 .text.irq_set_enabled
                0x00000000100020c4        0xe CMakeFiles/tinyusb_host_cdc_msc_hid.dir/home/boemmelsebastian/pico/pico-sdk/src/rp2_common/hardware_irq/irq.c.obj
                0x00000000100020c4                irq_set_enabled
 *fill*         0x00000000100020d2        0x2 
 .text.irq_get_vtable_handler
                0x00000000100020d4       0x10 CMakeFiles/tinyusb_host_cdc_msc_hid.dir/home/boemmelsebastian/pico/pico-sdk/src/rp2_common/hardware_irq/irq.c.obj
                0x00000000100020d4                irq_get_vtable_handler
 .text.irq_set_exclusive_handler
                0x00000000100020e4       0x54 CMakeFiles/tinyusb_host_cdc_msc_hid.dir/home/boemmelsebastian/pico/pico-sdk/src/rp2_common/hardware_irq/irq.c.obj
                0x00000000100020e4                irq_set_exclusive_handler
 .text.irq_remove_handler
                0x0000000010002138      0x1a0 CMakeFiles/tinyusb_host_cdc_msc_hid.dir/home/boemmelsebastian/pico/pico-sdk/src/rp2_common/hardware_irq/irq.c.obj
                0x0000000010002138                irq_remove_handler
 .text.irq_add_tail_to_free_list
                0x00000000100022d8       0xf0 CMakeFiles/tinyusb_host_cdc_msc_hid.dir/home/boemmelsebastian/pico/pico-sdk/src/rp2_common/hardware_irq/irq.c.obj
                0x00000000100022d8                irq_add_tail_to_free_list
 .text.irq_init_priorities
                0x00000000100023c8       0x1c CMakeFiles/tinyusb_host_cdc_msc_hid.dir/home/boemmelsebastian/pico/pico-sdk/src/rp2_common/hardware_irq/irq.c.obj
                0x00000000100023c8                irq_init_priorities
 .text.pll_init
                0x00000000100023e4      0x11c CMakeFiles/tinyusb_host_cdc_msc_hid.dir/home/boemmelsebastian/pico/pico-sdk/src/rp2_common/hardware_pll/pll.c.obj
                0x00000000100023e4                pll_init
 .text.watchdog_start_tick
                0x0000000010002500       0x10 CMakeFiles/tinyusb_host_cdc_msc_hid.dir/home/boemmelsebastian/pico/pico-sdk/src/rp2_common/hardware_watchdog/watchdog.c.obj
                0x0000000010002500                watchdog_start_tick
 .text.xosc_init
                0x0000000010002510       0x28 CMakeFiles/tinyusb_host_cdc_msc_hid.dir/home/boemmelsebastian/pico/pico-sdk/src/rp2_common/hardware_xosc/xosc.c.obj
                0x0000000010002510                xosc_init
 .text._out_null
                0x0000000010002538        0x2 CMakeFiles/tinyusb_host_cdc_msc_hid.dir/home/boemmelsebastian/pico/pico-sdk/src/rp2_common/pico_printf/printf.c.obj
 .text._out_fct
                0x000000001000253a        0xe CMakeFiles/tinyusb_host_cdc_msc_hid.dir/home/boemmelsebastian/pico/pico-sdk/src/rp2_common/pico_printf/printf.c.obj
 .text._atoi    0x0000000010002548       0x28 CMakeFiles/tinyusb_host_cdc_msc_hid.dir/home/boemmelsebastian/pico/pico-sdk/src/rp2_common/pico_printf/printf.c.obj
 .text._out_rev
                0x0000000010002570       0x8c CMakeFiles/tinyusb_host_cdc_msc_hid.dir/home/boemmelsebastian/pico/pico-sdk/src/rp2_common/pico_printf/printf.c.obj
 .text._ntoa_format
                0x00000000100025fc      0x10c CMakeFiles/tinyusb_host_cdc_msc_hid.dir/home/boemmelsebastian/pico/pico-sdk/src/rp2_common/pico_printf/printf.c.obj
 .text._ntoa_long
                0x0000000010002708       0xb0 CMakeFiles/tinyusb_host_cdc_msc_hid.dir/home/boemmelsebastian/pico/pico-sdk/src/rp2_common/pico_printf/printf.c.obj
 .text._ntoa_long_long
                0x00000000100027b8       0xe6 CMakeFiles/tinyusb_host_cdc_msc_hid.dir/home/boemmelsebastian/pico/pico-sdk/src/rp2_common/pico_printf/printf.c.obj
 *fill*         0x000000001000289e        0x2 
 .text._etoa    0x00000000100028a0      0x408 CMakeFiles/tinyusb_host_cdc_msc_hid.dir/home/boemmelsebastian/pico/pico-sdk/src/rp2_common/pico_printf/printf.c.obj
 .text._ftoa    0x0000000010002ca8      0x344 CMakeFiles/tinyusb_host_cdc_msc_hid.dir/home/boemmelsebastian/pico/pico-sdk/src/rp2_common/pico_printf/printf.c.obj
 .text._vsnprintf
                0x0000000010002fec      0x61c CMakeFiles/tinyusb_host_cdc_msc_hid.dir/home/boemmelsebastian/pico/pico-sdk/src/rp2_common/pico_printf/printf.c.obj
 .text.vfctprintf
                0x0000000010003608       0x20 CMakeFiles/tinyusb_host_cdc_msc_hid.dir/home/boemmelsebastian/pico/pico-sdk/src/rp2_common/pico_printf/printf.c.obj
                0x0000000010003608                vfctprintf
 .text          0x0000000010003628       0x10 CMakeFiles/tinyusb_host_cdc_msc_hid.dir/home/boemmelsebastian/pico/pico-sdk/src/rp2_common/pico_bit_ops/bit_ops_aeabi.S.obj
 .text.rom_func_lookup
                0x0000000010003638       0x10 CMakeFiles/tinyusb_host_cdc_msc_hid.dir/home/boemmelsebastian/pico/pico-sdk/src/rp2_common/pico_bootrom/bootrom.c.obj
                0x0000000010003638                rom_func_lookup
 .text.rom_data_lookup
                0x0000000010003648       0x10 CMakeFiles/tinyusb_host_cdc_msc_hid.dir/home/boemmelsebastian/pico/pico-sdk/src/rp2_common/pico_bootrom/bootrom.c.obj
                0x0000000010003648                rom_data_lookup
 .text.rom_funcs_lookup
                0x0000000010003658       0x36 CMakeFiles/tinyusb_host_cdc_msc_hid.dir/home/boemmelsebastian/pico/pico-sdk/src/rp2_common/pico_bootrom/bootrom.c.obj
                0x0000000010003658                rom_funcs_lookup
 *fill*         0x000000001000368e        0x2 
 .text.__wrap___aeabi_idiv
                0x0000000010003690       0x50 CMakeFiles/tinyusb_host_cdc_msc_hid.dir/home/boemmelsebastian/pico/pico-sdk/src/rp2_common/pico_divider/divider.S.obj
                0x0000000010003690                __wrap___aeabi_idivmod
                0x0000000010003690                divmod_s32s32
                0x0000000010003690                div_s32s32
                0x0000000010003690                __wrap___aeabi_idiv
                0x0000000010003698                divmod_s32s32_unsafe
                0x00000000100036c4                divmod_s32s32_savestate
 .text.__wrap___aeabi_uidiv
                0x00000000100036e0       0x4c CMakeFiles/tinyusb_host_cdc_msc_hid.dir/home/boemmelsebastian/pico/pico-sdk/src/rp2_common/pico_divider/divider.S.obj
                0x00000000100036e0                __wrap___aeabi_uidiv
                0x00000000100036e0                __wrap___aeabi_uidivmod
                0x00000000100036e0                div_u32u32
                0x00000000100036e0                divmod_u32u32
                0x00000000100036e8                divmod_u32u32_unsafe
                0x0000000010003710                divmod_u32u32_savestate
 .text.__wrap___aeabi_ldiv
                0x000000001000372c      0x434 CMakeFiles/tinyusb_host_cdc_msc_hid.dir/home/boemmelsebastian/pico/pico-sdk/src/rp2_common/pico_divider/divider.S.obj
                0x000000001000372c                div_s64s64
                0x000000001000372c                divmod_s64s64
                0x000000001000372c                __wrap___aeabi_ldivmod
                0x0000000010003764                div_u64u64
                0x0000000010003764                divmod_u64u64
                0x0000000010003764                __wrap___aeabi_uldivmod
                0x0000000010003774                divmod_u64u64_savestate
                0x000000001000379c                divmod_s64s64_unsafe
                0x0000000010003824                divmod_u64u64_unsafe
 .text.__wrap___aeabi_darithmetic
                0x0000000010003b60       0x80 CMakeFiles/tinyusb_host_cdc_msc_hid.dir/home/boemmelsebastian/pico/pico-sdk/src/rp2_common/pico_double/double_aeabi.S.obj
                0x0000000010003b60                __wrap___aeabi_drsub
                0x0000000010003b66                __wrap___aeabi_dsub
                0x0000000010003b78                __wrap___aeabi_dadd
                0x0000000010003b8a                __wrap___aeabi_ddiv
                0x0000000010003bc6                __wrap___aeabi_dmul
 .text.__wrap___aeabi_cdcmple
                0x0000000010003be0       0x6c CMakeFiles/tinyusb_host_cdc_msc_hid.dir/home/boemmelsebastian/pico/pico-sdk/src/rp2_common/pico_double/double_aeabi.S.obj
                0x0000000010003be0                __wrap___aeabi_cdrcmple
                0x0000000010003bf0                __wrap___aeabi_cdcmple
                0x0000000010003bf0                __wrap___aeabi_cdcmpeq
 .text.__wrap___aeabi_dcmplt
                0x0000000010003c4c        0xc CMakeFiles/tinyusb_host_cdc_msc_hid.dir/home/boemmelsebastian/pico/pico-sdk/src/rp2_common/pico_double/double_aeabi.S.obj
                0x0000000010003c4c                __wrap___aeabi_dcmplt
 .text.__wrap___aeabi_dcmple
                0x0000000010003c58       0x10 CMakeFiles/tinyusb_host_cdc_msc_hid.dir/home/boemmelsebastian/pico/pico-sdk/src/rp2_common/pico_double/double_aeabi.S.obj
                0x0000000010003c58                __wrap___aeabi_dcmple
 .text.__wrap___aeabi_dcmpge
                0x0000000010003c68       0x10 CMakeFiles/tinyusb_host_cdc_msc_hid.dir/home/boemmelsebastian/pico/pico-sdk/src/rp2_common/pico_double/double_aeabi.S.obj
                0x0000000010003c68                __wrap___aeabi_dcmpge
 .text.__wrap___aeabi_dcmpgt
                0x0000000010003c78        0xa CMakeFiles/tinyusb_host_cdc_msc_hid.dir/home/boemmelsebastian/pico/pico-sdk/src/rp2_common/pico_double/double_aeabi.S.obj
                0x0000000010003c78                __wrap___aeabi_dcmpgt
 .text.__wrap___aeabi_dcmpun
                0x0000000010003c82       0x1c CMakeFiles/tinyusb_host_cdc_msc_hid.dir/home/boemmelsebastian/pico/pico-sdk/src/rp2_common/pico_double/double_aeabi.S.obj
                0x0000000010003c82                __wrap___aeabi_dcmpun
 *fill*         0x0000000010003c9e        0x2 
 .text.__wrap___aeabi_i2d
                0x0000000010003ca0       0x38 CMakeFiles/tinyusb_host_cdc_msc_hid.dir/home/boemmelsebastian/pico/pico-sdk/src/rp2_common/pico_double/double_aeabi.S.obj
                0x0000000010003ca0                __wrap___aeabi_ui2d
                0x0000000010003ca8                __wrap___aeabi_i2d
 .text.__wrap___aeabi_d2iz
                0x0000000010003cd8       0x48 CMakeFiles/tinyusb_host_cdc_msc_hid.dir/home/boemmelsebastian/pico/pico-sdk/src/rp2_common/pico_double/double_aeabi.S.obj
                0x0000000010003cd8                __wrap___aeabi_d2iz
                0x0000000010003cd8                double2int_z
 .text.__wrap___aeabi_d2uiz
                0x0000000010003d20       0x18 CMakeFiles/tinyusb_host_cdc_msc_hid.dir/home/boemmelsebastian/pico/pico-sdk/src/rp2_common/pico_double/double_aeabi.S.obj
                0x0000000010003d20                double2uint
                0x0000000010003d20                __wrap___aeabi_d2uiz
 .text.__aeabi_double_init
                0x0000000010003d38       0xc8 CMakeFiles/tinyusb_host_cdc_msc_hid.dir/home/boemmelsebastian/pico/pico-sdk/src/rp2_common/pico_double/double_init_rom.c.obj
                0x0000000010003d38                __aeabi_double_init
 .text.double_table_shim_on_use_helper
                0x0000000010003e00       0x34 CMakeFiles/tinyusb_host_cdc_msc_hid.dir/home/boemmelsebastian/pico/pico-sdk/src/rp2_common/pico_double/double_v1_rom_shim.S.obj
                0x0000000010003e00                double_table_shim_on_use_helper
 .text.__wrap___aeabi_dsub
                0x0000000010003e34       0x10 CMakeFiles/tinyusb_host_cdc_msc_hid.dir/home/boemmelsebastian/pico/pico-sdk/src/rp2_common/pico_double/double_v1_rom_shim.S.obj
                0x0000000010003e34                drsub_shim
                0x0000000010003e3a                dsub_shim
 .text.dadd_shim
                0x0000000010003e44      0x15c CMakeFiles/tinyusb_host_cdc_msc_hid.dir/home/boemmelsebastian/pico/pico-sdk/src/rp2_common/pico_double/double_v1_rom_shim.S.obj
                0x0000000010003e44                dadd_shim
 .text.dmul_shim
                0x0000000010003fa0      0x15c CMakeFiles/tinyusb_host_cdc_msc_hid.dir/home/boemmelsebastian/pico/pico-sdk/src/rp2_common/pico_double/double_v1_rom_shim.S.obj
                0x0000000010003fa0                dmul_shim
 .text.ddiv_shim
                0x00000000100040fc      0x1b0 CMakeFiles/tinyusb_host_cdc_msc_hid.dir/home/boemmelsebastian/pico/pico-sdk/src/rp2_common/pico_double/double_v1_rom_shim.S.obj
                0x00000000100040fc                ddiv_shim
 .text.double2uint_shim
                0x00000000100042ac        0xe CMakeFiles/tinyusb_host_cdc_msc_hid.dir/home/boemmelsebastian/pico/pico-sdk/src/rp2_common/pico_double/double_v1_rom_shim.S.obj
                0x00000000100042ac                double2uint_shim
                0x00000000100042ae                double2ufix_shim
 *fill*         0x00000000100042ba        0x2 
 .text.double2uint64_shim
                0x00000000100042bc       0x70 CMakeFiles/tinyusb_host_cdc_msc_hid.dir/home/boemmelsebastian/pico/pico-sdk/src/rp2_common/pico_double/double_v1_rom_shim.S.obj
                0x00000000100042bc                double2uint64_shim
                0x00000000100042be                double2ufix64_shim
                0x00000000100042de                d2fix_a
 .text.dunpacks
                0x000000001000432c       0x3c CMakeFiles/tinyusb_host_cdc_msc_hid.dir/home/boemmelsebastian/pico/pico-sdk/src/rp2_common/pico_double/double_v1_rom_shim.S.obj
                0x000000001000432c                dunpacks
 .text.__aeabi_lmul
                0x0000000010004368       0x32 CMakeFiles/tinyusb_host_cdc_msc_hid.dir/home/boemmelsebastian/pico/pico-sdk/src/rp2_common/pico_int64_ops/pico_int64_ops_aeabi.S.obj
                0x0000000010004368                __wrap___aeabi_lmul
 *fill*         0x000000001000439a        0x2 
 .text.__aeabi_float_init
                0x000000001000439c       0xfc CMakeFiles/tinyusb_host_cdc_msc_hid.dir/home/boemmelsebastian/pico/pico-sdk/src/rp2_common/pico_float/float_init_rom.c.obj
                0x000000001000439c                __aeabi_float_init
 .text.float_table_shim_on_use_helper
                0x0000000010004498       0x34 CMakeFiles/tinyusb_host_cdc_msc_hid.dir/home/boemmelsebastian/pico/pico-sdk/src/rp2_common/pico_float/float_v1_rom_shim.S.obj
                0x0000000010004498                float_table_shim_on_use_helper
 .text          0x00000000100044cc       0x10 CMakeFiles/tinyusb_host_cdc_msc_hid.dir/home/boemmelsebastian/pico/pico-sdk/src/rp2_common/pico_mem_ops/mem_ops_aeabi.S.obj
                0x00000000100044cc                __aeabi_mem_init
 .text.memset   0x00000000100044dc        0xc CMakeFiles/tinyusb_host_cdc_msc_hid.dir/home/boemmelsebastian/pico/pico-sdk/src/rp2_common/pico_mem_ops/mem_ops_aeabi.S.obj
                0x00000000100044dc                __wrap_memset
 .text.memcpy   0x00000000100044e8        0xc CMakeFiles/tinyusb_host_cdc_msc_hid.dir/home/boemmelsebastian/pico/pico-sdk/src/rp2_common/pico_mem_ops/mem_ops_aeabi.S.obj
                0x00000000100044e8                __wrap___aeabi_memcpy
                0x00000000100044e8                __wrap_memcpy
 .text.stdio_out_chars_no_crlf
                0x00000000100044f4        0xe CMakeFiles/tinyusb_host_cdc_msc_hid.dir/home/boemmelsebastian/pico/pico-sdk/src/rp2_common/pico_stdio/stdio.c.obj
 *fill*         0x0000000010004502        0x2 
 .text.stdio_out_chars_crlf
                0x0000000010004504       0x80 CMakeFiles/tinyusb_host_cdc_msc_hid.dir/home/boemmelsebastian/pico/pico-sdk/src/rp2_common/pico_stdio/stdio.c.obj
 .text.stdio_stack_buffer_flush
                0x0000000010004584       0x44 CMakeFiles/tinyusb_host_cdc_msc_hid.dir/home/boemmelsebastian/pico/pico-sdk/src/rp2_common/pico_stdio/stdio.c.obj
 .text.stdio_buffered_printer
                0x00000000100045c8       0x20 CMakeFiles/tinyusb_host_cdc_msc_hid.dir/home/boemmelsebastian/pico/pico-sdk/src/rp2_common/pico_stdio/stdio.c.obj
 .text.stdio_get_until
                0x00000000100045e8       0x7c CMakeFiles/tinyusb_host_cdc_msc_hid.dir/home/boemmelsebastian/pico/pico-sdk/src/rp2_common/pico_stdio/stdio.c.obj
 .text.stdout_serialize_begin
                0x0000000010004664       0x30 CMakeFiles/tinyusb_host_cdc_msc_hid.dir/home/boemmelsebastian/pico/pico-sdk/src/rp2_common/pico_stdio/stdio.c.obj
                0x0000000010004664                stdout_serialize_begin
 .text.stdout_serialize_end
                0x0000000010004694       0x10 CMakeFiles/tinyusb_host_cdc_msc_hid.dir/home/boemmelsebastian/pico/pico-sdk/src/rp2_common/pico_stdio/stdio.c.obj
                0x0000000010004694                stdout_serialize_end
 .text.stdio_put_string
                0x00000000100046a4       0x94 CMakeFiles/tinyusb_host_cdc_msc_hid.dir/home/boemmelsebastian/pico/pico-sdk/src/rp2_common/pico_stdio/stdio.c.obj
 .text.__wrap_putchar
                0x0000000010004738       0x1c CMakeFiles/tinyusb_host_cdc_msc_hid.dir/home/boemmelsebastian/pico/pico-sdk/src/rp2_common/pico_stdio/stdio.c.obj
                0x0000000010004738                __wrap_putchar
 .text._read    0x0000000010004754       0x24 CMakeFiles/tinyusb_host_cdc_msc_hid.dir/home/boemmelsebastian/pico/pico-sdk/src/rp2_common/pico_stdio/stdio.c.obj
                0x0000000010004754                _read
 .text._write   0x0000000010004778       0x20 CMakeFiles/tinyusb_host_cdc_msc_hid.dir/home/boemmelsebastian/pico/pico-sdk/src/rp2_common/pico_stdio/stdio.c.obj
                0x0000000010004778                _write
 .text.stdio_set_driver_enabled
                0x0000000010004798       0x2c CMakeFiles/tinyusb_host_cdc_msc_hid.dir/home/boemmelsebastian/pico/pico-sdk/src/rp2_common/pico_stdio/stdio.c.obj
                0x0000000010004798                stdio_set_driver_enabled
 .text.stdio_flush
                0x00000000100047c4       0x20 CMakeFiles/tinyusb_host_cdc_msc_hid.dir/home/boemmelsebastian/pico/pico-sdk/src/rp2_common/pico_stdio/stdio.c.obj
                0x00000000100047c4                stdio_flush
 .text.__wrap_puts
                0x00000000100047e4       0x1e CMakeFiles/tinyusb_host_cdc_msc_hid.dir/home/boemmelsebastian/pico/pico-sdk/src/rp2_common/pico_stdio/stdio.c.obj
                0x00000000100047e4                __wrap_puts
 *fill*         0x0000000010004802        0x2 
 .text.__wrap_vprintf
                0x0000000010004804       0x44 CMakeFiles/tinyusb_host_cdc_msc_hid.dir/home/boemmelsebastian/pico/pico-sdk/src/rp2_common/pico_stdio/stdio.c.obj
                0x0000000010004804                __wrap_vprintf
 .text.__wrap_printf
                0x0000000010004848       0x18 CMakeFiles/tinyusb_host_cdc_msc_hid.dir/home/boemmelsebastian/pico/pico-sdk/src/rp2_common/pico_stdio/stdio.c.obj
                0x0000000010004848                __wrap_printf
 .text.stdio_uart_out_chars
                0x0000000010004860       0x74 CMakeFiles/tinyusb_host_cdc_msc_hid.dir/home/boemmelsebastian/pico/pico-sdk/src/rp2_common/pico_stdio_uart/stdio_uart.c.obj
 .text.stdio_uart_in_chars
                0x00000000100048d4       0x54 CMakeFiles/tinyusb_host_cdc_msc_hid.dir/home/boemmelsebastian/pico/pico-sdk/src/rp2_common/pico_stdio_uart/stdio_uart.c.obj
                0x00000000100048d4                stdio_uart_in_chars
 .text.stdio_uart_init_full
                0x0000000010004928       0x3c CMakeFiles/tinyusb_host_cdc_msc_hid.dir/home/boemmelsebastian/pico/pico-sdk/src/rp2_common/pico_stdio_uart/stdio_uart.c.obj
                0x0000000010004928                stdio_uart_init_full
 .text.boot_double_tap_check
                0x0000000010004964       0x64 CMakeFiles/tinyusb_host_cdc_msc_hid.dir/home/boemmelsebastian/pico/pico-sdk/src/rp2_common/pico_bootsel_via_double_reset/pico_bootsel_via_double_reset.c.obj
 .text.board_init
                0x00000000100049c8       0x30 CMakeFiles/tinyusb_host_cdc_msc_hid.dir/home/boemmelsebastian/pico/pico-sdk/lib/tinyusb/hw/bsp/rp2040/family.c.obj
                0x00000000100049c8                board_init
 .text.board_led_write
                0x00000000100049f8       0x1c CMakeFiles/tinyusb_host_cdc_msc_hid.dir/home/boemmelsebastian/pico/pico-sdk/lib/tinyusb/hw/bsp/rp2040/family.c.obj
                0x00000000100049f8                board_led_write
 .text.get_dev_ep
                0x0000000010004a14       0x40 CMakeFiles/tinyusb_host_cdc_msc_hid.dir/home/boemmelsebastian/pico/pico-sdk/lib/tinyusb/src/portable/raspberrypi/rp2040/hcd_rp2040.c.obj
 .text._next_free_interrupt_ep
                0x0000000010004a54       0x30 CMakeFiles/tinyusb_host_cdc_msc_hid.dir/home/boemmelsebastian/pico/pico-sdk/lib/tinyusb/src/portable/raspberrypi/rp2040/hcd_rp2040.c.obj
 .text._hw_endpoint_allocate
                0x0000000010004a84       0x74 CMakeFiles/tinyusb_host_cdc_msc_hid.dir/home/boemmelsebastian/pico/pico-sdk/lib/tinyusb/src/portable/raspberrypi/rp2040/hcd_rp2040.c.obj
 .text.hw_xfer_complete
                0x0000000010004af8       0x24 CMakeFiles/tinyusb_host_cdc_msc_hid.dir/home/boemmelsebastian/pico/pico-sdk/lib/tinyusb/src/portable/raspberrypi/rp2040/hcd_rp2040.c.obj
 .text._handle_buff_status_bit
                0x0000000010004b1c       0x24 CMakeFiles/tinyusb_host_cdc_msc_hid.dir/home/boemmelsebastian/pico/pico-sdk/lib/tinyusb/src/portable/raspberrypi/rp2040/hcd_rp2040.c.obj
 .text.hw_handle_buff_status
                0x0000000010004b40       0x60 CMakeFiles/tinyusb_host_cdc_msc_hid.dir/home/boemmelsebastian/pico/pico-sdk/lib/tinyusb/src/portable/raspberrypi/rp2040/hcd_rp2040.c.obj
 .text.hw_trans_complete
                0x0000000010004ba0       0x40 CMakeFiles/tinyusb_host_cdc_msc_hid.dir/home/boemmelsebastian/pico/pico-sdk/lib/tinyusb/src/portable/raspberrypi/rp2040/hcd_rp2040.c.obj
 .text.hcd_rp2040_irq
                0x0000000010004be0       0xb8 CMakeFiles/tinyusb_host_cdc_msc_hid.dir/home/boemmelsebastian/pico/pico-sdk/lib/tinyusb/src/portable/raspberrypi/rp2040/hcd_rp2040.c.obj
 .text.hcd_init
                0x0000000010004c98       0x64 CMakeFiles/tinyusb_host_cdc_msc_hid.dir/home/boemmelsebastian/pico/pico-sdk/lib/tinyusb/src/portable/raspberrypi/rp2040/hcd_rp2040.c.obj
                0x0000000010004c98                hcd_init
 .text.hcd_port_reset
                0x0000000010004cfc       0x24 CMakeFiles/tinyusb_host_cdc_msc_hid.dir/home/boemmelsebastian/pico/pico-sdk/lib/tinyusb/src/portable/raspberrypi/rp2040/hcd_rp2040.c.obj
                0x0000000010004cfc                hcd_port_reset
 .text.hcd_port_connect_status
                0x0000000010004d20       0x38 CMakeFiles/tinyusb_host_cdc_msc_hid.dir/home/boemmelsebastian/pico/pico-sdk/lib/tinyusb/src/portable/raspberrypi/rp2040/hcd_rp2040.c.obj
                0x0000000010004d20                hcd_port_connect_status
 .text.hcd_port_speed_get
                0x0000000010004d58       0x48 CMakeFiles/tinyusb_host_cdc_msc_hid.dir/home/boemmelsebastian/pico/pico-sdk/lib/tinyusb/src/portable/raspberrypi/rp2040/hcd_rp2040.c.obj
                0x0000000010004d58                hcd_port_speed_get
 .text.need_pre
                0x0000000010004da0       0x1c CMakeFiles/tinyusb_host_cdc_msc_hid.dir/home/boemmelsebastian/pico/pico-sdk/lib/tinyusb/src/portable/raspberrypi/rp2040/hcd_rp2040.c.obj
 .text._hw_endpoint_init
                0x0000000010004dbc      0x120 CMakeFiles/tinyusb_host_cdc_msc_hid.dir/home/boemmelsebastian/pico/pico-sdk/lib/tinyusb/src/portable/raspberrypi/rp2040/hcd_rp2040.c.obj
 .text.hcd_device_close
                0x0000000010004edc        0x2 CMakeFiles/tinyusb_host_cdc_msc_hid.dir/home/boemmelsebastian/pico/pico-sdk/lib/tinyusb/src/portable/raspberrypi/rp2040/hcd_rp2040.c.obj
                0x0000000010004edc                hcd_device_close
 *fill*         0x0000000010004ede        0x2 
 .text.hcd_int_enable
                0x0000000010004ee0       0x2c CMakeFiles/tinyusb_host_cdc_msc_hid.dir/home/boemmelsebastian/pico/pico-sdk/lib/tinyusb/src/portable/raspberrypi/rp2040/hcd_rp2040.c.obj
                0x0000000010004ee0                hcd_int_enable
 .text.hcd_edpt_open
                0x0000000010004f0c       0x38 CMakeFiles/tinyusb_host_cdc_msc_hid.dir/home/boemmelsebastian/pico/pico-sdk/lib/tinyusb/src/portable/raspberrypi/rp2040/hcd_rp2040.c.obj
                0x0000000010004f0c                hcd_edpt_open
 .text.hcd_edpt_xfer
                0x0000000010004f44       0xd0 CMakeFiles/tinyusb_host_cdc_msc_hid.dir/home/boemmelsebastian/pico/pico-sdk/lib/tinyusb/src/portable/raspberrypi/rp2040/hcd_rp2040.c.obj
                0x0000000010004f44                hcd_edpt_xfer
 .text.hcd_setup_send
                0x0000000010005014       0x80 CMakeFiles/tinyusb_host_cdc_msc_hid.dir/home/boemmelsebastian/pico/pico-sdk/lib/tinyusb/src/portable/raspberrypi/rp2040/hcd_rp2040.c.obj
                0x0000000010005014                hcd_setup_send
 .text.prepare_ep_buffer
                0x0000000010005094       0x70 CMakeFiles/tinyusb_host_cdc_msc_hid.dir/home/boemmelsebastian/pico/pico-sdk/lib/tinyusb/src/portable/raspberrypi/rp2040/rp2040_usb.c.obj
 .text.sync_ep_buffer
                0x0000000010005104       0x7c CMakeFiles/tinyusb_host_cdc_msc_hid.dir/home/boemmelsebastian/pico/pico-sdk/lib/tinyusb/src/portable/raspberrypi/rp2040/rp2040_usb.c.obj
 .text._hw_endpoint_xfer_sync
                0x0000000010005180       0x28 CMakeFiles/tinyusb_host_cdc_msc_hid.dir/home/boemmelsebastian/pico/pico-sdk/lib/tinyusb/src/portable/raspberrypi/rp2040/rp2040_usb.c.obj
 .text.rp2040_usb_init
                0x00000000100051a8       0x4c CMakeFiles/tinyusb_host_cdc_msc_hid.dir/home/boemmelsebastian/pico/pico-sdk/lib/tinyusb/src/portable/raspberrypi/rp2040/rp2040_usb.c.obj
                0x00000000100051a8                rp2040_usb_init
 .text.hw_endpoint_reset_transfer
                0x00000000100051f4        0xc CMakeFiles/tinyusb_host_cdc_msc_hid.dir/home/boemmelsebastian/pico/pico-sdk/lib/tinyusb/src/portable/raspberrypi/rp2040/rp2040_usb.c.obj
                0x00000000100051f4                hw_endpoint_reset_transfer
 .text._hw_endpoint_buffer_control_update32
                0x0000000010005200       0x4c CMakeFiles/tinyusb_host_cdc_msc_hid.dir/home/boemmelsebastian/pico/pico-sdk/lib/tinyusb/src/portable/raspberrypi/rp2040/rp2040_usb.c.obj
                0x0000000010005200                _hw_endpoint_buffer_control_update32
 .text._hw_endpoint_start_next_buffer
                0x000000001000524c       0x74 CMakeFiles/tinyusb_host_cdc_msc_hid.dir/home/boemmelsebastian/pico/pico-sdk/lib/tinyusb/src/portable/raspberrypi/rp2040/rp2040_usb.c.obj
 .text.hw_endpoint_xfer_start
                0x00000000100052c0       0x48 CMakeFiles/tinyusb_host_cdc_msc_hid.dir/home/boemmelsebastian/pico/pico-sdk/lib/tinyusb/src/portable/raspberrypi/rp2040/rp2040_usb.c.obj
                0x00000000100052c0                hw_endpoint_xfer_start
 .text.hw_endpoint_xfer_continue
                0x0000000010005308       0x38 CMakeFiles/tinyusb_host_cdc_msc_hid.dir/home/boemmelsebastian/pico/pico-sdk/lib/tinyusb/src/portable/raspberrypi/rp2040/rp2040_usb.c.obj
                0x0000000010005308                hw_endpoint_xfer_continue
 .text.get_new_address
                0x0000000010005340       0x40 CMakeFiles/tinyusb_host_cdc_msc_hid.dir/home/boemmelsebastian/pico/pico-sdk/lib/tinyusb/src/host/usbh.c.obj
 .text.enum_hub_get_status0_complete
                0x0000000010005380       0x74 CMakeFiles/tinyusb_host_cdc_msc_hid.dir/home/boemmelsebastian/pico/pico-sdk/lib/tinyusb/src/host/usbh.c.obj
 .text.enum_hub_get_status1_complete
                0x00000000100053f4       0x60 CMakeFiles/tinyusb_host_cdc_msc_hid.dir/home/boemmelsebastian/pico/pico-sdk/lib/tinyusb/src/host/usbh.c.obj
 .text.enum_request_set_addr
                0x0000000010005454       0xcc CMakeFiles/tinyusb_host_cdc_msc_hid.dir/home/boemmelsebastian/pico/pico-sdk/lib/tinyusb/src/host/usbh.c.obj
 .text.enum_hub_clear_reset1_complete
                0x0000000010005520       0x34 CMakeFiles/tinyusb_host_cdc_msc_hid.dir/home/boemmelsebastian/pico/pico-sdk/lib/tinyusb/src/host/usbh.c.obj
 .text.enum_get_device_desc_complete
                0x0000000010005554       0x98 CMakeFiles/tinyusb_host_cdc_msc_hid.dir/home/boemmelsebastian/pico/pico-sdk/lib/tinyusb/src/host/usbh.c.obj
 .text.enum_get_9byte_config_desc_complete
                0x00000000100055ec       0x90 CMakeFiles/tinyusb_host_cdc_msc_hid.dir/home/boemmelsebastian/pico/pico-sdk/lib/tinyusb/src/host/usbh.c.obj
 .text.process_device_unplugged
                0x000000001000567c       0xe8 CMakeFiles/tinyusb_host_cdc_msc_hid.dir/home/boemmelsebastian/pico/pico-sdk/lib/tinyusb/src/host/usbh.c.obj
 .text.parse_configuration_descriptor
                0x0000000010005764      0x130 CMakeFiles/tinyusb_host_cdc_msc_hid.dir/home/boemmelsebastian/pico/pico-sdk/lib/tinyusb/src/host/usbh.c.obj
 .text.enum_get_config_desc_complete
                0x0000000010005894       0x7c CMakeFiles/tinyusb_host_cdc_msc_hid.dir/home/boemmelsebastian/pico/pico-sdk/lib/tinyusb/src/host/usbh.c.obj
 .text.tuh_speed_get
                0x0000000010005910       0x24 CMakeFiles/tinyusb_host_cdc_msc_hid.dir/home/boemmelsebastian/pico/pico-sdk/lib/tinyusb/src/host/usbh.c.obj
                0x0000000010005910                tuh_speed_get
 .text.tuh_inited
                0x0000000010005934        0xc CMakeFiles/tinyusb_host_cdc_msc_hid.dir/home/boemmelsebastian/pico/pico-sdk/lib/tinyusb/src/host/usbh.c.obj
                0x0000000010005934                tuh_inited
 .text.tuh_init
                0x0000000010005940      0x10c CMakeFiles/tinyusb_host_cdc_msc_hid.dir/home/boemmelsebastian/pico/pico-sdk/lib/tinyusb/src/host/usbh.c.obj
                0x0000000010005940                tuh_init
 .text.usbh_get_rhport
                0x0000000010005a4c       0x20 CMakeFiles/tinyusb_host_cdc_msc_hid.dir/home/boemmelsebastian/pico/pico-sdk/lib/tinyusb/src/host/usbh.c.obj
                0x0000000010005a4c                usbh_get_rhport
 .text.usbh_edpt_control_open
                0x0000000010005a6c       0x32 CMakeFiles/tinyusb_host_cdc_msc_hid.dir/home/boemmelsebastian/pico/pico-sdk/lib/tinyusb/src/host/usbh.c.obj
 *fill*         0x0000000010005a9e        0x2 
 .text.enum_request_addr0_device_desc
                0x0000000010005aa0       0x64 CMakeFiles/tinyusb_host_cdc_msc_hid.dir/home/boemmelsebastian/pico/pico-sdk/lib/tinyusb/src/host/usbh.c.obj
 .text.enum_new_device
                0x0000000010005b04       0x80 CMakeFiles/tinyusb_host_cdc_msc_hid.dir/home/boemmelsebastian/pico/pico-sdk/lib/tinyusb/src/host/usbh.c.obj
 .text.tuh_task
                0x0000000010005b84      0x12c CMakeFiles/tinyusb_host_cdc_msc_hid.dir/home/boemmelsebastian/pico/pico-sdk/lib/tinyusb/src/host/usbh.c.obj
                0x0000000010005b84                tuh_task
 .text.enum_get_addr0_device_desc_complete
                0x0000000010005cb0       0xc8 CMakeFiles/tinyusb_host_cdc_msc_hid.dir/home/boemmelsebastian/pico/pico-sdk/lib/tinyusb/src/host/usbh.c.obj
 .text.enum_hub_clear_reset0_complete
                0x0000000010005d78       0x28 CMakeFiles/tinyusb_host_cdc_msc_hid.dir/home/boemmelsebastian/pico/pico-sdk/lib/tinyusb/src/host/usbh.c.obj
 .text.enum_set_address_complete
                0x0000000010005da0       0xcc CMakeFiles/tinyusb_host_cdc_msc_hid.dir/home/boemmelsebastian/pico/pico-sdk/lib/tinyusb/src/host/usbh.c.obj
 .text.usbh_get_enum_buf
                0x0000000010005e6c        0x8 CMakeFiles/tinyusb_host_cdc_msc_hid.dir/home/boemmelsebastian/pico/pico-sdk/lib/tinyusb/src/host/usbh.c.obj
                0x0000000010005e6c                usbh_get_enum_buf
 .text.hcd_event_handler
                0x0000000010005e74       0x50 CMakeFiles/tinyusb_host_cdc_msc_hid.dir/home/boemmelsebastian/pico/pico-sdk/lib/tinyusb/src/host/usbh.c.obj
                0x0000000010005e74                hcd_event_handler
 .text.hcd_event_xfer_complete
                0x0000000010005ec4       0x26 CMakeFiles/tinyusb_host_cdc_msc_hid.dir/home/boemmelsebastian/pico/pico-sdk/lib/tinyusb/src/host/usbh.c.obj
                0x0000000010005ec4                hcd_event_xfer_complete
 .text.hcd_event_device_attach
                0x0000000010005eea       0x22 CMakeFiles/tinyusb_host_cdc_msc_hid.dir/home/boemmelsebastian/pico/pico-sdk/lib/tinyusb/src/host/usbh.c.obj
                0x0000000010005eea                hcd_event_device_attach
 .text.hcd_event_device_remove
                0x0000000010005f0c       0x28 CMakeFiles/tinyusb_host_cdc_msc_hid.dir/home/boemmelsebastian/pico/pico-sdk/lib/tinyusb/src/host/usbh.c.obj
                0x0000000010005f0c                hcd_event_device_remove
 .text.usbh_driver_set_config_complete
                0x0000000010005f34       0x74 CMakeFiles/tinyusb_host_cdc_msc_hid.dir/home/boemmelsebastian/pico/pico-sdk/lib/tinyusb/src/host/usbh.c.obj
                0x0000000010005f34                usbh_driver_set_config_complete
 .text.enum_set_config_complete
                0x0000000010005fa8       0x60 CMakeFiles/tinyusb_host_cdc_msc_hid.dir/home/boemmelsebastian/pico/pico-sdk/lib/tinyusb/src/host/usbh.c.obj
 .text.usbh_edpt_claim
                0x0000000010006008       0xa0 CMakeFiles/tinyusb_host_cdc_msc_hid.dir/home/boemmelsebastian/pico/pico-sdk/lib/tinyusb/src/host/usbh.c.obj
                0x0000000010006008                usbh_edpt_claim
 .text.usbh_edpt_xfer
                0x00000000100060a8       0xa8 CMakeFiles/tinyusb_host_cdc_msc_hid.dir/home/boemmelsebastian/pico/pico-sdk/lib/tinyusb/src/host/usbh.c.obj
                0x00000000100060a8                usbh_edpt_xfer
 .text.usbh_edpt_open
                0x0000000010006150       0x64 CMakeFiles/tinyusb_host_cdc_msc_hid.dir/home/boemmelsebastian/pico/pico-sdk/lib/tinyusb/src/host/usbh.c.obj
                0x0000000010006150                usbh_edpt_open
 .text.usbh_edpt_busy
                0x00000000100061b4       0x44 CMakeFiles/tinyusb_host_cdc_msc_hid.dir/home/boemmelsebastian/pico/pico-sdk/lib/tinyusb/src/host/usbh.c.obj
                0x00000000100061b4                usbh_edpt_busy
 .text._xfer_complete
                0x00000000100061f8       0x18 CMakeFiles/tinyusb_host_cdc_msc_hid.dir/home/boemmelsebastian/pico/pico-sdk/lib/tinyusb/src/host/usbh_control.c.obj
 .text.tuh_control_xfer
                0x0000000010006210       0x54 CMakeFiles/tinyusb_host_cdc_msc_hid.dir/home/boemmelsebastian/pico/pico-sdk/lib/tinyusb/src/host/usbh_control.c.obj
                0x0000000010006210                tuh_control_xfer
 .text.usbh_control_xfer_cb
                0x0000000010006264       0x90 CMakeFiles/tinyusb_host_cdc_msc_hid.dir/home/boemmelsebastian/pico/pico-sdk/lib/tinyusb/src/host/usbh_control.c.obj
                0x0000000010006264                usbh_control_xfer_cb
 .text.connection_port_reset_complete
                0x00000000100062f4       0x4c CMakeFiles/tinyusb_host_cdc_msc_hid.dir/home/boemmelsebastian/pico/pico-sdk/lib/tinyusb/src/host/hub.c.obj
 .text.hub_port_clear_feature
                0x0000000010006340       0x50 CMakeFiles/tinyusb_host_cdc_msc_hid.dir/home/boemmelsebastian/pico/pico-sdk/lib/tinyusb/src/host/hub.c.obj
                0x0000000010006340                hub_port_clear_feature
 .text.hub_port_set_feature
                0x0000000010006390       0x50 CMakeFiles/tinyusb_host_cdc_msc_hid.dir/home/boemmelsebastian/pico/pico-sdk/lib/tinyusb/src/host/hub.c.obj
                0x0000000010006390                hub_port_set_feature
 .text.config_set_port_power
                0x00000000100063e0       0x44 CMakeFiles/tinyusb_host_cdc_msc_hid.dir/home/boemmelsebastian/pico/pico-sdk/lib/tinyusb/src/host/hub.c.obj
 .text.config_port_power_complete
                0x0000000010006424       0x80 CMakeFiles/tinyusb_host_cdc_msc_hid.dir/home/boemmelsebastian/pico/pico-sdk/lib/tinyusb/src/host/hub.c.obj
 .text.hub_port_reset
                0x00000000100064a4        0xc CMakeFiles/tinyusb_host_cdc_msc_hid.dir/home/boemmelsebastian/pico/pico-sdk/lib/tinyusb/src/host/hub.c.obj
                0x00000000100064a4                hub_port_reset
 .text.connection_clear_conn_change_complete
                0x00000000100064b0       0x70 CMakeFiles/tinyusb_host_cdc_msc_hid.dir/home/boemmelsebastian/pico/pico-sdk/lib/tinyusb/src/host/hub.c.obj
 .text.hub_port_get_status
                0x0000000010006520       0x54 CMakeFiles/tinyusb_host_cdc_msc_hid.dir/home/boemmelsebastian/pico/pico-sdk/lib/tinyusb/src/host/hub.c.obj
                0x0000000010006520                hub_port_get_status
 .text.hub_init
                0x0000000010006574       0x14 CMakeFiles/tinyusb_host_cdc_msc_hid.dir/home/boemmelsebastian/pico/pico-sdk/lib/tinyusb/src/host/hub.c.obj
                0x0000000010006574                hub_init
 .text.hub_open
                0x0000000010006588       0x90 CMakeFiles/tinyusb_host_cdc_msc_hid.dir/home/boemmelsebastian/pico/pico-sdk/lib/tinyusb/src/host/hub.c.obj
                0x0000000010006588                hub_open
 .text.hub_close
                0x0000000010006618       0x24 CMakeFiles/tinyusb_host_cdc_msc_hid.dir/home/boemmelsebastian/pico/pico-sdk/lib/tinyusb/src/host/hub.c.obj
                0x0000000010006618                hub_close
 .text.hub_status_pipe_queue
                0x000000001000663c       0x1c CMakeFiles/tinyusb_host_cdc_msc_hid.dir/home/boemmelsebastian/pico/pico-sdk/lib/tinyusb/src/host/hub.c.obj
                0x000000001000663c                hub_status_pipe_queue
 .text.connection_get_status_complete
                0x0000000010006658       0x4c CMakeFiles/tinyusb_host_cdc_msc_hid.dir/home/boemmelsebastian/pico/pico-sdk/lib/tinyusb/src/host/hub.c.obj
 .text.hub_set_config
                0x00000000100066a4       0x5c CMakeFiles/tinyusb_host_cdc_msc_hid.dir/home/boemmelsebastian/pico/pico-sdk/lib/tinyusb/src/host/hub.c.obj
                0x00000000100066a4                hub_set_config
 .text.hub_xfer_cb
                0x0000000010006700       0x60 CMakeFiles/tinyusb_host_cdc_msc_hid.dir/home/boemmelsebastian/pico/pico-sdk/lib/tinyusb/src/host/hub.c.obj
                0x0000000010006700                hub_xfer_cb
 .text.tuh_cdc_mounted
                0x0000000010006760       0x2c CMakeFiles/tinyusb_host_cdc_msc_hid.dir/home/boemmelsebastian/pico/pico-sdk/lib/tinyusb/src/class/cdc/cdc_host.c.obj
                0x0000000010006760                tuh_cdc_mounted
 .text.tuh_cdc_receive
                0x000000001000678c       0x4c CMakeFiles/tinyusb_host_cdc_msc_hid.dir/home/boemmelsebastian/pico/pico-sdk/lib/tinyusb/src/class/cdc/cdc_host.c.obj
                0x000000001000678c                tuh_cdc_receive
 .text.cdch_init
                0x00000000100067d8       0x14 CMakeFiles/tinyusb_host_cdc_msc_hid.dir/home/boemmelsebastian/pico/pico-sdk/lib/tinyusb/src/class/cdc/cdc_host.c.obj
                0x00000000100067d8                cdch_init
 .text.cdch_open
                0x00000000100067ec      0x14c CMakeFiles/tinyusb_host_cdc_msc_hid.dir/home/boemmelsebastian/pico/pico-sdk/lib/tinyusb/src/class/cdc/cdc_host.c.obj
                0x00000000100067ec                cdch_open
 .text.cdch_set_config
                0x0000000010006938        0x4 CMakeFiles/tinyusb_host_cdc_msc_hid.dir/home/boemmelsebastian/pico/pico-sdk/lib/tinyusb/src/class/cdc/cdc_host.c.obj
                0x0000000010006938                cdch_set_config
 .text.cdch_xfer_cb
                0x000000001000693c        0xe CMakeFiles/tinyusb_host_cdc_msc_hid.dir/home/boemmelsebastian/pico/pico-sdk/lib/tinyusb/src/class/cdc/cdc_host.c.obj
                0x000000001000693c                cdch_xfer_cb
 *fill*         0x000000001000694a        0x2 
 .text.cdch_close
                0x000000001000694c       0x24 CMakeFiles/tinyusb_host_cdc_msc_hid.dir/home/boemmelsebastian/pico/pico-sdk/lib/tinyusb/src/class/cdc/cdc_host.c.obj
                0x000000001000694c                cdch_close
 .text.get_instance_id_by_itfnum
                0x0000000010006970       0x68 CMakeFiles/tinyusb_host_cdc_msc_hid.dir/home/boemmelsebastian/pico/pico-sdk/lib/tinyusb/src/class/hid/hid_host.c.obj
 .text.get_instance_id_by_epaddr
                0x00000000100069d8       0x50 CMakeFiles/tinyusb_host_cdc_msc_hid.dir/home/boemmelsebastian/pico/pico-sdk/lib/tinyusb/src/class/hid/hid_host.c.obj
 .text.config_set_protocol
                0x0000000010006a28       0x84 CMakeFiles/tinyusb_host_cdc_msc_hid.dir/home/boemmelsebastian/pico/pico-sdk/lib/tinyusb/src/class/hid/hid_host.c.obj
 .text.config_driver_mount_complete
                0x0000000010006aac       0x30 CMakeFiles/tinyusb_host_cdc_msc_hid.dir/home/boemmelsebastian/pico/pico-sdk/lib/tinyusb/src/class/hid/hid_host.c.obj
 .text.config_get_report_desc
                0x0000000010006adc       0xd8 CMakeFiles/tinyusb_host_cdc_msc_hid.dir/home/boemmelsebastian/pico/pico-sdk/lib/tinyusb/src/class/hid/hid_host.c.obj
 .text.config_get_report_desc_complete
                0x0000000010006bb4       0x44 CMakeFiles/tinyusb_host_cdc_msc_hid.dir/home/boemmelsebastian/pico/pico-sdk/lib/tinyusb/src/class/hid/hid_host.c.obj
 .text.tuh_hid_interface_protocol
                0x0000000010006bf8       0x20 CMakeFiles/tinyusb_host_cdc_msc_hid.dir/home/boemmelsebastian/pico/pico-sdk/lib/tinyusb/src/class/hid/hid_host.c.obj
                0x0000000010006bf8                tuh_hid_interface_protocol
 .text.tuh_hid_receive_report
                0x0000000010006c18       0x54 CMakeFiles/tinyusb_host_cdc_msc_hid.dir/home/boemmelsebastian/pico/pico-sdk/lib/tinyusb/src/class/hid/hid_host.c.obj
                0x0000000010006c18                tuh_hid_receive_report
 .text.hidh_init
                0x0000000010006c6c       0x18 CMakeFiles/tinyusb_host_cdc_msc_hid.dir/home/boemmelsebastian/pico/pico-sdk/lib/tinyusb/src/class/hid/hid_host.c.obj
                0x0000000010006c6c                hidh_init
 .text.hidh_xfer_cb
                0x0000000010006c84       0x6c CMakeFiles/tinyusb_host_cdc_msc_hid.dir/home/boemmelsebastian/pico/pico-sdk/lib/tinyusb/src/class/hid/hid_host.c.obj
                0x0000000010006c84                hidh_xfer_cb
 .text.hidh_close
                0x0000000010006cf0       0x58 CMakeFiles/tinyusb_host_cdc_msc_hid.dir/home/boemmelsebastian/pico/pico-sdk/lib/tinyusb/src/class/hid/hid_host.c.obj
                0x0000000010006cf0                hidh_close
 .text.hidh_open
                0x0000000010006d48      0x158 CMakeFiles/tinyusb_host_cdc_msc_hid.dir/home/boemmelsebastian/pico/pico-sdk/lib/tinyusb/src/class/hid/hid_host.c.obj
                0x0000000010006d48                hidh_open
 .text.hidh_set_config
                0x0000000010006ea0       0x8c CMakeFiles/tinyusb_host_cdc_msc_hid.dir/home/boemmelsebastian/pico/pico-sdk/lib/tinyusb/src/class/hid/hid_host.c.obj
                0x0000000010006ea0                hidh_set_config
 .text.tuh_hid_parse_report_descriptor
                0x0000000010006f2c       0xe4 CMakeFiles/tinyusb_host_cdc_msc_hid.dir/home/boemmelsebastian/pico/pico-sdk/lib/tinyusb/src/class/hid/hid_host.c.obj
                0x0000000010006f2c                tuh_hid_parse_report_descriptor
 .text.config_read_capacity_complete
                0x0000000010007010       0x98 CMakeFiles/tinyusb_host_cdc_msc_hid.dir/home/boemmelsebastian/pico/pico-sdk/lib/tinyusb/src/class/msc/msc_host.c.obj
 .text.tuh_msc_get_block_count
                0x00000000100070a8       0x1c CMakeFiles/tinyusb_host_cdc_msc_hid.dir/home/boemmelsebastian/pico/pico-sdk/lib/tinyusb/src/class/msc/msc_host.c.obj
                0x00000000100070a8                tuh_msc_get_block_count
 .text.tuh_msc_get_block_size
                0x00000000100070c4       0x18 CMakeFiles/tinyusb_host_cdc_msc_hid.dir/home/boemmelsebastian/pico/pico-sdk/lib/tinyusb/src/class/msc/msc_host.c.obj
                0x00000000100070c4                tuh_msc_get_block_size
 .text.tuh_msc_scsi_command
                0x00000000100070dc       0x74 CMakeFiles/tinyusb_host_cdc_msc_hid.dir/home/boemmelsebastian/pico/pico-sdk/lib/tinyusb/src/class/msc/msc_host.c.obj
                0x00000000100070dc                tuh_msc_scsi_command
 .text.tuh_msc_read_capacity
                0x0000000010007150       0x68 CMakeFiles/tinyusb_host_cdc_msc_hid.dir/home/boemmelsebastian/pico/pico-sdk/lib/tinyusb/src/class/msc/msc_host.c.obj
                0x0000000010007150                tuh_msc_read_capacity
 .text.tuh_msc_inquiry
                0x00000000100071b8       0x80 CMakeFiles/tinyusb_host_cdc_msc_hid.dir/home/boemmelsebastian/pico/pico-sdk/lib/tinyusb/src/class/msc/msc_host.c.obj
                0x00000000100071b8                tuh_msc_inquiry
 .text.tuh_msc_test_unit_ready
                0x0000000010007238       0x5c CMakeFiles/tinyusb_host_cdc_msc_hid.dir/home/boemmelsebastian/pico/pico-sdk/lib/tinyusb/src/class/msc/msc_host.c.obj
                0x0000000010007238                tuh_msc_test_unit_ready
 .text.config_get_maxlun_complete
                0x0000000010007294       0x38 CMakeFiles/tinyusb_host_cdc_msc_hid.dir/home/boemmelsebastian/pico/pico-sdk/lib/tinyusb/src/class/msc/msc_host.c.obj
 .text.config_request_sense_complete
                0x00000000100072cc       0x44 CMakeFiles/tinyusb_host_cdc_msc_hid.dir/home/boemmelsebastian/pico/pico-sdk/lib/tinyusb/src/class/msc/msc_host.c.obj
 .text.tuh_msc_request_sense
                0x0000000010007310       0x6c CMakeFiles/tinyusb_host_cdc_msc_hid.dir/home/boemmelsebastian/pico/pico-sdk/lib/tinyusb/src/class/msc/msc_host.c.obj
                0x0000000010007310                tuh_msc_request_sense
 .text.config_test_unit_ready_complete
                0x000000001000737c       0x48 CMakeFiles/tinyusb_host_cdc_msc_hid.dir/home/boemmelsebastian/pico/pico-sdk/lib/tinyusb/src/class/msc/msc_host.c.obj
 .text.msch_init
                0x00000000100073c4       0x14 CMakeFiles/tinyusb_host_cdc_msc_hid.dir/home/boemmelsebastian/pico/pico-sdk/lib/tinyusb/src/class/msc/msc_host.c.obj
                0x00000000100073c4                msch_init
 .text.msch_close
                0x00000000100073d8       0x38 CMakeFiles/tinyusb_host_cdc_msc_hid.dir/home/boemmelsebastian/pico/pico-sdk/lib/tinyusb/src/class/msc/msc_host.c.obj
                0x00000000100073d8                msch_close
 .text.msch_xfer_cb
                0x0000000010007410      0x160 CMakeFiles/tinyusb_host_cdc_msc_hid.dir/home/boemmelsebastian/pico/pico-sdk/lib/tinyusb/src/class/msc/msc_host.c.obj
                0x0000000010007410                msch_xfer_cb
 .text.msch_open
                0x0000000010007570       0xe0 CMakeFiles/tinyusb_host_cdc_msc_hid.dir/home/boemmelsebastian/pico/pico-sdk/lib/tinyusb/src/class/msc/msc_host.c.obj
                0x0000000010007570                msch_open
 .text.msch_set_config
                0x0000000010007650       0x94 CMakeFiles/tinyusb_host_cdc_msc_hid.dir/home/boemmelsebastian/pico/pico-sdk/lib/tinyusb/src/class/msc/msc_host.c.obj
                0x0000000010007650                msch_set_config
 .text.tusb_init
                0x00000000100076e4       0x24 CMakeFiles/tinyusb_host_cdc_msc_hid.dir/home/boemmelsebastian/pico/pico-sdk/lib/tinyusb/src/tusb.c.obj
                0x00000000100076e4                tusb_init
 .text.tusb_inited
                0x0000000010007708        0xe CMakeFiles/tinyusb_host_cdc_msc_hid.dir/home/boemmelsebastian/pico/pico-sdk/lib/tinyusb/src/tusb.c.obj
                0x0000000010007708                tusb_inited
 *fill*         0x0000000010007716        0x2 
 .text.tu_edpt_validate
                0x0000000010007718       0xa8 CMakeFiles/tinyusb_host_cdc_msc_hid.dir/home/boemmelsebastian/pico/pico-sdk/lib/tinyusb/src/tusb.c.obj
                0x0000000010007718                tu_edpt_validate
 .text.tu_edpt_bind_driver
                0x00000000100077c0       0x2a CMakeFiles/tinyusb_host_cdc_msc_hid.dir/home/boemmelsebastian/pico/pico-sdk/lib/tinyusb/src/tusb.c.obj
                0x00000000100077c0                tu_edpt_bind_driver
 .text.tu_desc_get_interface_total_len
                0x00000000100077ea       0x3e CMakeFiles/tinyusb_host_cdc_msc_hid.dir/home/boemmelsebastian/pico/pico-sdk/lib/tinyusb/src/tusb.c.obj
                0x00000000100077ea                tu_desc_get_interface_total_len
 .text.advance_pointer
                0x0000000010007828       0x18 CMakeFiles/tinyusb_host_cdc_msc_hid.dir/home/boemmelsebastian/pico/pico-sdk/lib/tinyusb/src/common/tusb_fifo.c.obj
 .text.backward_pointer
                0x0000000010007840       0x1e CMakeFiles/tinyusb_host_cdc_msc_hid.dir/home/boemmelsebastian/pico/pico-sdk/lib/tinyusb/src/common/tusb_fifo.c.obj
 .text.get_relative_pointer
                0x000000001000785e       0x10 CMakeFiles/tinyusb_host_cdc_msc_hid.dir/home/boemmelsebastian/pico/pico-sdk/lib/tinyusb/src/common/tusb_fifo.c.obj
 .text._tu_fifo_peek
                0x000000001000786e       0x4c CMakeFiles/tinyusb_host_cdc_msc_hid.dir/home/boemmelsebastian/pico/pico-sdk/lib/tinyusb/src/common/tusb_fifo.c.obj
 .text.tu_fifo_read
                0x00000000100078ba       0x42 CMakeFiles/tinyusb_host_cdc_msc_hid.dir/home/boemmelsebastian/pico/pico-sdk/lib/tinyusb/src/common/tusb_fifo.c.obj
                0x00000000100078ba                tu_fifo_read
 .text.tu_fifo_write
                0x00000000100078fc       0x6c CMakeFiles/tinyusb_host_cdc_msc_hid.dir/home/boemmelsebastian/pico/pico-sdk/lib/tinyusb/src/common/tusb_fifo.c.obj
                0x00000000100078fc                tu_fifo_write
 .text.tu_fifo_clear
                0x0000000010007968       0x4c CMakeFiles/tinyusb_host_cdc_msc_hid.dir/home/boemmelsebastian/pico/pico-sdk/lib/tinyusb/src/common/tusb_fifo.c.obj
                0x0000000010007968                tu_fifo_clear
 .text          0x00000000100079b4      0x1b4 /usr/lib/gcc/arm-none-eabi/8.3.1/../../../arm-none-eabi/lib/thumb/v6-m/nofp/libg.a(lib_a-fflush.o)
                0x00000000100079b4                __sflush_r
                0x0000000010007b14                _fflush_r
                0x0000000010007b40                fflush
 .text          0x0000000010007b68      0x220 /usr/lib/gcc/arm-none-eabi/8.3.1/../../../arm-none-eabi/lib/thumb/v6-m/nofp/libg.a(lib_a-findfp.o)
                0x0000000010007b6c                _cleanup_r
                0x0000000010007c68                __sfmoreglue
                0x0000000010007c98                __sfp
                0x0000000010007d20                _cleanup
                0x0000000010007d38                __sinit
                0x0000000010007d48                __sfp_lock_acquire
                0x0000000010007d4c                __sfp_lock_release
                0x0000000010007d50                __sinit_lock_acquire
                0x0000000010007d54                __sinit_lock_release
                0x0000000010007d58                __fp_lock_all
                0x0000000010007d70                __fp_unlock_all
 .text          0x0000000010007d88      0x27c /usr/lib/gcc/arm-none-eabi/8.3.1/../../../arm-none-eabi/lib/thumb/v6-m/nofp/libg.a(lib_a-freer.o)
                0x0000000010007d88                _malloc_trim_r
                0x0000000010007e28                _free_r
 .text          0x0000000010008004       0x90 /usr/lib/gcc/arm-none-eabi/8.3.1/../../../arm-none-eabi/lib/thumb/v6-m/nofp/libg.a(lib_a-fwalk.o)
                0x0000000010008004                _fwalk
                0x0000000010008048                _fwalk_reent
 .text          0x0000000010008094      0x58c /usr/lib/gcc/arm-none-eabi/8.3.1/../../../arm-none-eabi/lib/thumb/v6-m/nofp/libg.a(lib_a-mallocr.o)
                0x0000000010008094                _malloc_r
 .text          0x0000000010008620        0x8 /usr/lib/gcc/arm-none-eabi/8.3.1/../../../arm-none-eabi/lib/thumb/v6-m/nofp/libg.a(lib_a-mlock.o)
                0x0000000010008620                __malloc_lock
                0x0000000010008624                __malloc_unlock
 .text          0x0000000010008628       0x24 /usr/lib/gcc/arm-none-eabi/8.3.1/../../../arm-none-eabi/lib/thumb/v6-m/nofp/libg.a(lib_a-sbrkr.o)
                0x0000000010008628                _sbrk_r
 .text          0x000000001000864c       0xa4 /usr/lib/gcc/arm-none-eabi/8.3.1/../../../arm-none-eabi/lib/thumb/v6-m/nofp/libg.a(lib_a-stdio.o)
                0x000000001000864c                __sread
                0x0000000010008674                __seofread
                0x0000000010008678                __swrite
                0x00000000100086b8                __sseek
                0x00000000100086e4                __sclose
 .text          0x00000000100086f0       0x68 /usr/lib/gcc/arm-none-eabi/8.3.1/../../../arm-none-eabi/lib/thumb/v6-m/nofp/libg.a(lib_a-strlen-stub.o)
                0x00000000100086f0                strlen
 .text          0x0000000010008758       0x28 /usr/lib/gcc/arm-none-eabi/8.3.1/../../../arm-none-eabi/lib/thumb/v6-m/nofp/libg.a(lib_a-writer.o)
                0x0000000010008758                _write_r
 .text          0x0000000010008780       0x24 /usr/lib/gcc/arm-none-eabi/8.3.1/../../../arm-none-eabi/lib/thumb/v6-m/nofp/libg.a(lib_a-closer.o)
                0x0000000010008780                _close_r
 .text          0x00000000100087a4       0xac /usr/lib/gcc/arm-none-eabi/8.3.1/../../../arm-none-eabi/lib/thumb/v6-m/nofp/libg.a(lib_a-fclose.o)
                0x00000000100087a4                _fclose_r
                0x000000001000883c                fclose
 .text          0x0000000010008850       0x28 /usr/lib/gcc/arm-none-eabi/8.3.1/../../../arm-none-eabi/lib/thumb/v6-m/nofp/libg.a(lib_a-lseekr.o)
                0x0000000010008850                _lseek_r
 .text          0x0000000010008878       0x28 /usr/lib/gcc/arm-none-eabi/8.3.1/../../../arm-none-eabi/lib/thumb/v6-m/nofp/libg.a(lib_a-readr.o)
                0x0000000010008878                _read_r
 .text          0x00000000100088a0       0x10 /usr/lib/gcc/arm-none-eabi/8.3.1/../../../arm-none-eabi/lib/thumb/v6-m/nofp/libnosys.a(close.o)
                0x00000000100088a0                _close
 .text          0x00000000100088b0       0x10 /usr/lib/gcc/arm-none-eabi/8.3.1/../../../arm-none-eabi/lib/thumb/v6-m/nofp/libnosys.a(lseek.o)
                0x00000000100088b0                _lseek
 *(.fini)
 .fini          0x00000000100088c0        0x4 /usr/lib/gcc/arm-none-eabi/8.3.1/thumb/v6-m/nofp/crti.o
                0x00000000100088c0                _fini
 *fill*         0x00000000100088c4        0x4 
 .fini.__stub   0x00000000100088c8       0x60 linker stubs
 *crtbegin.o(.ctors)
 *crtbegin?.o(.ctors)
 *(EXCLUDE_FILE(*crtend.o *crtend?.o) .ctors)
 *(SORT_BY_NAME(.ctors.*))
 *(.ctors)
 *crtbegin.o(.dtors)
 *crtbegin?.o(.dtors)
 *(EXCLUDE_FILE(*crtend.o *crtend?.o) .dtors)
 *(SORT_BY_NAME(.dtors.*))
 *(.dtors)
 *(.eh_frame*)
 .eh_frame      0x0000000010008928        0x0 /usr/lib/gcc/arm-none-eabi/8.3.1/thumb/v6-m/nofp/crtbegin.o
                0x0000000010008928                . = ALIGN (0x4)

.glue_7         0x0000000010008928        0x0
 .glue_7        0x0000000010008928        0x0 linker stubs

.glue_7t        0x0000000010008928        0x0
 .glue_7t       0x0000000010008928        0x0 linker stubs

.vfp11_veneer   0x0000000010008928        0x0
 .vfp11_veneer  0x0000000010008928        0x0 linker stubs

.v4_bx          0x0000000010008928        0x0
 .v4_bx         0x0000000010008928        0x0 linker stubs

.iplt           0x0000000010008928        0x0
 .iplt          0x0000000010008928        0x0 /usr/lib/gcc/arm-none-eabi/8.3.1/thumb/v6-m/nofp/crtbegin.o

.rodata         0x0000000010008928     0x1b8c
 *(EXCLUDE_FILE(*libm.a: *libc.a:*lib_a-mem*.o *libgcc.a:) .rodata*)
 .rodata        0x0000000010008928        0xc CMakeFiles/tinyusb_host_cdc_msc_hid.dir/src/hid_app.c.obj
 .rodata.cursor_movement.str1.4
                0x0000000010008934        0xd CMakeFiles/tinyusb_host_cdc_msc_hid.dir/src/hid_app.c.obj
 *fill*         0x0000000010008941        0x3 
 .rodata.keycode2ascii
                0x0000000010008944      0x100 CMakeFiles/tinyusb_host_cdc_msc_hid.dir/src/hid_app.c.obj
 .rodata.process_generic_report.str1.4
                0x0000000010008a44       0x6e CMakeFiles/tinyusb_host_cdc_msc_hid.dir/src/hid_app.c.obj
 *fill*         0x0000000010008ab2        0x2 
 .rodata.process_mouse_report.str1.4
                0x0000000010008ab4        0x9 CMakeFiles/tinyusb_host_cdc_msc_hid.dir/src/hid_app.c.obj
 *fill*         0x0000000010008abd        0x3 
 .rodata.str1.4
                0x0000000010008ac0       0x1a CMakeFiles/tinyusb_host_cdc_msc_hid.dir/src/hid_app.c.obj
 *fill*         0x0000000010008ada        0x2 
 .rodata.tuh_hid_mount_cb.str1.4
                0x0000000010008adc       0x95 CMakeFiles/tinyusb_host_cdc_msc_hid.dir/src/hid_app.c.obj
 *fill*         0x0000000010008b71        0x3 
 .rodata.tuh_hid_umount_cb.str1.4
                0x0000000010008b74       0x36 CMakeFiles/tinyusb_host_cdc_msc_hid.dir/src/hid_app.c.obj
 *fill*         0x0000000010008baa        0x2 
 .rodata.__func__.6401
                0x0000000010008bac       0x15 CMakeFiles/tinyusb_host_cdc_msc_hid.dir/src/main.c.obj
 *fill*         0x0000000010008bc1        0x3 
 .rodata.led_blinking_task.str1.4
                0x0000000010008bc4       0x6b CMakeFiles/tinyusb_host_cdc_msc_hid.dir/src/main.c.obj
 *fill*         0x0000000010008c2f        0x1 
 .rodata.main.str1.4
                0x0000000010008c30       0x22 CMakeFiles/tinyusb_host_cdc_msc_hid.dir/src/main.c.obj
 *fill*         0x0000000010008c52        0x2 
 .rodata.tuh_mount_cb.str1.4
                0x0000000010008c54       0x26 CMakeFiles/tinyusb_host_cdc_msc_hid.dir/src/main.c.obj
 *fill*         0x0000000010008c7a        0x2 
 .rodata.tuh_umount_cb.str1.4
                0x0000000010008c7c       0x29 CMakeFiles/tinyusb_host_cdc_msc_hid.dir/src/main.c.obj
 *fill*         0x0000000010008ca5        0x3 
 .rodata.inquiry_complete_cb.str1.4
                0x0000000010008ca8       0x61 CMakeFiles/tinyusb_host_cdc_msc_hid.dir/src/msc_app.c.obj
 *fill*         0x0000000010008d09        0x3 
 .rodata.tuh_msc_mount_cb.str1.4
                0x0000000010008d0c       0x21 CMakeFiles/tinyusb_host_cdc_msc_hid.dir/src/msc_app.c.obj
 *fill*         0x0000000010008d2d        0x3 
 .rodata.tuh_msc_umount_cb.str1.4
                0x0000000010008d30       0x23 CMakeFiles/tinyusb_host_cdc_msc_hid.dir/src/msc_app.c.obj
 *fill*         0x0000000010008d53        0x1 
 .rodata.spin_lock_claim_unused.str1.4
                0x0000000010008d54       0x1b CMakeFiles/tinyusb_host_cdc_msc_hid.dir/home/boemmelsebastian/pico/pico-sdk/src/rp2_common/hardware_sync/sync.c.obj
 *fill*         0x0000000010008d6f        0x1 
 .rodata.__func__.5751
                0x0000000010008d70       0x15 CMakeFiles/tinyusb_host_cdc_msc_hid.dir/home/boemmelsebastian/pico/pico-sdk/src/common/pico_time/time.c.obj
 *fill*         0x0000000010008d85        0x3 
 .rodata.__func__.6063
                0x0000000010008d88        0xc CMakeFiles/tinyusb_host_cdc_msc_hid.dir/home/boemmelsebastian/pico/pico-sdk/src/common/pico_time/time.c.obj
 .rodata.__func__.6070
                0x0000000010008d94       0x12 CMakeFiles/tinyusb_host_cdc_msc_hid.dir/home/boemmelsebastian/pico/pico-sdk/src/common/pico_time/time.c.obj
 *fill*         0x0000000010008da6        0x2 
 .rodata.__func__.6086
                0x0000000010008da8        0xf CMakeFiles/tinyusb_host_cdc_msc_hid.dir/home/boemmelsebastian/pico/pico-sdk/src/common/pico_time/time.c.obj
 *fill*         0x0000000010008db7        0x1 
 .rodata.__func__.6108
                0x0000000010008db8        0xd CMakeFiles/tinyusb_host_cdc_msc_hid.dir/home/boemmelsebastian/pico/pico-sdk/src/common/pico_time/time.c.obj
 *fill*         0x0000000010008dc5        0x3 
 .rodata.__func__.6332
                0x0000000010008dc8        0xa CMakeFiles/tinyusb_host_cdc_msc_hid.dir/home/boemmelsebastian/pico/pico-sdk/src/common/pico_time/time.c.obj
 *fill*         0x0000000010008dd2        0x2 
 .rodata.__func__.6337
                0x0000000010008dd4       0x12 CMakeFiles/tinyusb_host_cdc_msc_hid.dir/home/boemmelsebastian/pico/pico-sdk/src/common/pico_time/time.c.obj
 *fill*         0x0000000010008de6        0x2 
 .rodata.__func__.6352
                0x0000000010008de8       0x17 CMakeFiles/tinyusb_host_cdc_msc_hid.dir/home/boemmelsebastian/pico/pico-sdk/src/common/pico_time/time.c.obj
 *fill*         0x0000000010008dff        0x1 
 .rodata.__func__.6363
                0x0000000010008e00       0x15 CMakeFiles/tinyusb_host_cdc_msc_hid.dir/home/boemmelsebastian/pico/pico-sdk/src/common/pico_time/time.c.obj
 *fill*         0x0000000010008e15        0x3 
 .rodata.__func__.6380
                0x0000000010008e18       0x1a CMakeFiles/tinyusb_host_cdc_msc_hid.dir/home/boemmelsebastian/pico/pico-sdk/src/common/pico_time/time.c.obj
 *fill*         0x0000000010008e32        0x2 
 .rodata.__func__.6419
                0x0000000010008e34       0x18 CMakeFiles/tinyusb_host_cdc_msc_hid.dir/home/boemmelsebastian/pico/pico-sdk/src/common/pico_time/time.c.obj
 .rodata.add_alarm_under_lock.str1.4
                0x0000000010008e4c       0x28 CMakeFiles/tinyusb_host_cdc_msc_hid.dir/home/boemmelsebastian/pico/pico-sdk/src/common/pico_time/time.c.obj
                                         0x2b (size before relaxing)
 .rodata.alarm_pool_alarm_callback.str1.4
                0x0000000010008e74       0x82 CMakeFiles/tinyusb_host_cdc_msc_hid.dir/home/boemmelsebastian/pico/pico-sdk/src/common/pico_time/time.c.obj
                                         0xee (size before relaxing)
 *fill*         0x0000000010008ef6        0x2 
 .rodata.alarm_pool_cancel_alarm.str1.4
                0x0000000010008ef8       0x27 CMakeFiles/tinyusb_host_cdc_msc_hid.dir/home/boemmelsebastian/pico/pico-sdk/src/common/pico_time/time.c.obj
 *fill*         0x0000000010008f1f        0x1 
 .rodata.alarm_pool_dump_key.str1.4
                0x0000000010008f20       0x33 CMakeFiles/tinyusb_host_cdc_msc_hid.dir/home/boemmelsebastian/pico/pico-sdk/src/common/pico_time/time.c.obj
 *fill*         0x0000000010008f53        0x1 
 .rodata.alarm_pool_get_default.str1.4
                0x0000000010008f54       0x21 CMakeFiles/tinyusb_host_cdc_msc_hid.dir/home/boemmelsebastian/pico/pico-sdk/src/common/pico_time/time.c.obj
 *fill*         0x0000000010008f75        0x3 
 .rodata.at_the_end_of_time
                0x0000000010008f78        0x8 CMakeFiles/tinyusb_host_cdc_msc_hid.dir/home/boemmelsebastian/pico/pico-sdk/src/common/pico_time/time.c.obj
                0x0000000010008f78                at_the_end_of_time
 .rodata.ph_add_child_node.str1.4
                0x0000000010008f80       0x9e CMakeFiles/tinyusb_host_cdc_msc_hid.dir/home/boemmelsebastian/pico/pico-sdk/src/common/pico_time/time.c.obj
 *fill*         0x000000001000901e        0x2 
 .rodata.repeating_timer_callback.str1.4
                0x0000000010009020       0x55 CMakeFiles/tinyusb_host_cdc_msc_hid.dir/home/boemmelsebastian/pico/pico-sdk/src/common/pico_time/time.c.obj
 *fill*         0x0000000010009075        0x3 
 .rodata.sleep_until.str1.4
                0x0000000010009078       0x4d CMakeFiles/tinyusb_host_cdc_msc_hid.dir/home/boemmelsebastian/pico/pico-sdk/src/common/pico_time/time.c.obj
 *fill*         0x00000000100090c5        0x3 
 .rodata.__func__.4243
                0x00000000100090c8       0x15 CMakeFiles/tinyusb_host_cdc_msc_hid.dir/home/boemmelsebastian/pico/pico-sdk/src/rp2_common/hardware_timer/timer.c.obj
 *fill*         0x00000000100090dd        0x3 
 .rodata.__func__.4612
                0x00000000100090e0       0x1a CMakeFiles/tinyusb_host_cdc_msc_hid.dir/home/boemmelsebastian/pico/pico-sdk/src/rp2_common/hardware_timer/timer.c.obj
 .rodata.busy_wait_us.str1.4
                0x00000000100090fa       0x6b CMakeFiles/tinyusb_host_cdc_msc_hid.dir/home/boemmelsebastian/pico/pico-sdk/src/rp2_common/hardware_timer/timer.c.obj
 *fill*         0x00000000100090fa        0x2 
 .rodata.hardware_alarm_claim.str1.4
                0x00000000100090fc       0x22 CMakeFiles/tinyusb_host_cdc_msc_hid.dir/home/boemmelsebastian/pico/pico-sdk/src/rp2_common/hardware_timer/timer.c.obj
 *fill*         0x000000001000911e        0x2 
 .rodata.hardware_alarm_set_target.str1.4
                0x0000000010009120       0x6f CMakeFiles/tinyusb_host_cdc_msc_hid.dir/home/boemmelsebastian/pico/pico-sdk/src/rp2_common/hardware_timer/timer.c.obj
 *fill*         0x000000001000918f        0x1 
 .rodata.__func__.4243
                0x0000000010009190       0x15 CMakeFiles/tinyusb_host_cdc_msc_hid.dir/home/boemmelsebastian/pico/pico-sdk/src/common/pico_sync/mutex.c.obj
 *fill*         0x00000000100091a5        0x3 
 .rodata.__func__.4737
                0x00000000100091a8       0x18 CMakeFiles/tinyusb_host_cdc_msc_hid.dir/home/boemmelsebastian/pico/pico-sdk/src/common/pico_sync/mutex.c.obj
 .rodata.__func__.4756
                0x00000000100091c0        0xb CMakeFiles/tinyusb_host_cdc_msc_hid.dir/home/boemmelsebastian/pico/pico-sdk/src/common/pico_sync/mutex.c.obj
 *fill*         0x00000000100091cb        0x1 
 .rodata.str1.4
                0x00000000100091cc       0x95 CMakeFiles/tinyusb_host_cdc_msc_hid.dir/home/boemmelsebastian/pico/pico-sdk/src/common/pico_sync/mutex.c.obj
                                        0x101 (size before relaxing)
 *fill*         0x0000000010009261        0x3 
 .rodata.__func__.5761
                0x0000000010009264        0xc CMakeFiles/tinyusb_host_cdc_msc_hid.dir/home/boemmelsebastian/pico/pico-sdk/src/common/pico_util/pheap.c.obj
 .rodata.__func__.5768
                0x0000000010009270       0x12 CMakeFiles/tinyusb_host_cdc_msc_hid.dir/home/boemmelsebastian/pico/pico-sdk/src/common/pico_util/pheap.c.obj
 *fill*         0x0000000010009282        0x2 
 .rodata.__func__.5854
                0x0000000010009284       0x13 CMakeFiles/tinyusb_host_cdc_msc_hid.dir/home/boemmelsebastian/pico/pico-sdk/src/common/pico_util/pheap.c.obj
 *fill*         0x0000000010009297        0x1 
 .rodata.__func__.5872
                0x0000000010009298       0x18 CMakeFiles/tinyusb_host_cdc_msc_hid.dir/home/boemmelsebastian/pico/pico-sdk/src/common/pico_util/pheap.c.obj
 .rodata.ph_add_child_node.str1.4
                0x00000000100092b0       0x9e CMakeFiles/tinyusb_host_cdc_msc_hid.dir/home/boemmelsebastian/pico/pico-sdk/src/common/pico_util/pheap.c.obj
 .rodata.ph_remove_and_free_node.str1.4
                0x00000000100092b0       0x26 CMakeFiles/tinyusb_host_cdc_msc_hid.dir/home/boemmelsebastian/pico/pico-sdk/src/common/pico_util/pheap.c.obj
 *fill*         0x00000000100092d6        0x2 
 .rodata.ph_remove_any_head.str1.4
                0x00000000100092d8       0x98 CMakeFiles/tinyusb_host_cdc_msc_hid.dir/home/boemmelsebastian/pico/pico-sdk/src/common/pico_util/pheap.c.obj
 .rodata.__assert_func.str1.4
                0x0000000010009370       0x3f CMakeFiles/tinyusb_host_cdc_msc_hid.dir/home/boemmelsebastian/pico/pico-sdk/src/rp2_common/pico_runtime/runtime.c.obj
                                         0x43 (size before relaxing)
 *fill*         0x00000000100093af        0x1 
 .rodata.__func__.5872
                0x00000000100093b0        0xd CMakeFiles/tinyusb_host_cdc_msc_hid.dir/home/boemmelsebastian/pico/pico-sdk/src/rp2_common/pico_runtime/runtime.c.obj
 *fill*         0x00000000100093bd        0x3 
 .rodata.panic.str1.4
                0x00000000100093c0       0x10 CMakeFiles/tinyusb_host_cdc_msc_hid.dir/home/boemmelsebastian/pico/pico-sdk/src/rp2_common/pico_runtime/runtime.c.obj
                                         0x12 (size before relaxing)
 .rodata.runtime_init.str1.4
                0x00000000100093d0       0x6b CMakeFiles/tinyusb_host_cdc_msc_hid.dir/home/boemmelsebastian/pico/pico-sdk/src/rp2_common/pico_runtime/runtime.c.obj
 *fill*         0x000000001000943b        0x1 
 .rodata.__func__.4759
                0x000000001000943c       0x10 CMakeFiles/tinyusb_host_cdc_msc_hid.dir/home/boemmelsebastian/pico/pico-sdk/src/rp2_common/hardware_clocks/clocks.c.obj
 .rodata.clock_configure.str1.4
                0x000000001000944c       0x61 CMakeFiles/tinyusb_host_cdc_msc_hid.dir/home/boemmelsebastian/pico/pico-sdk/src/rp2_common/hardware_clocks/clocks.c.obj
 *fill*         0x00000000100094ad        0x3 
 .rodata.__func__.4789
                0x00000000100094b0       0x1a CMakeFiles/tinyusb_host_cdc_msc_hid.dir/home/boemmelsebastian/pico/pico-sdk/src/rp2_common/hardware_irq/irq.c.obj
 *fill*         0x00000000100094ca        0x2 
 .rodata.__func__.4803
                0x00000000100094cc        0xc CMakeFiles/tinyusb_host_cdc_msc_hid.dir/home/boemmelsebastian/pico/pico-sdk/src/rp2_common/hardware_irq/irq.c.obj
 .rodata.__func__.4811
                0x00000000100094d8       0x17 CMakeFiles/tinyusb_host_cdc_msc_hid.dir/home/boemmelsebastian/pico/pico-sdk/src/rp2_common/hardware_irq/irq.c.obj
 *fill*         0x00000000100094ef        0x1 
 .rodata.__func__.4815
                0x00000000100094f0        0xf CMakeFiles/tinyusb_host_cdc_msc_hid.dir/home/boemmelsebastian/pico/pico-sdk/src/rp2_common/hardware_irq/irq.c.obj
 *fill*         0x00000000100094ff        0x1 
 .rodata.__func__.4854
                0x0000000010009500       0x13 CMakeFiles/tinyusb_host_cdc_msc_hid.dir/home/boemmelsebastian/pico/pico-sdk/src/rp2_common/hardware_irq/irq.c.obj
 *fill*         0x0000000010009513        0x1 
 .rodata.__func__.4876
                0x0000000010009514       0x1a CMakeFiles/tinyusb_host_cdc_msc_hid.dir/home/boemmelsebastian/pico/pico-sdk/src/rp2_common/hardware_irq/irq.c.obj
 *fill*         0x000000001000952e        0x2 
 .rodata.insert_branch_and_link.str1.4
                0x0000000010009530       0x10 CMakeFiles/tinyusb_host_cdc_msc_hid.dir/home/boemmelsebastian/pico/pico-sdk/src/rp2_common/hardware_irq/irq.c.obj
 .rodata.irq_add_shared_handler.str1.4
                0x0000000010009540       0xd9 CMakeFiles/tinyusb_host_cdc_msc_hid.dir/home/boemmelsebastian/pico/pico-sdk/src/rp2_common/hardware_irq/irq.c.obj
 *fill*         0x0000000010009619        0x3 
 .rodata.irq_add_tail_to_free_list.str1.4
                0x000000001000961c       0x32 CMakeFiles/tinyusb_host_cdc_msc_hid.dir/home/boemmelsebastian/pico/pico-sdk/src/rp2_common/hardware_irq/irq.c.obj
                                         0x3a (size before relaxing)
 *fill*         0x000000001000964e        0x2 
 .rodata.irq_remove_handler.str1.4
                0x0000000010009650       0x2a CMakeFiles/tinyusb_host_cdc_msc_hid.dir/home/boemmelsebastian/pico/pico-sdk/src/rp2_common/hardware_irq/irq.c.obj
 *fill*         0x000000001000967a        0x2 
 .rodata.irq_set_exclusive_handler.str1.4
                0x000000001000967c       0x36 CMakeFiles/tinyusb_host_cdc_msc_hid.dir/home/boemmelsebastian/pico/pico-sdk/src/rp2_common/hardware_irq/irq.c.obj
 *fill*         0x00000000100096b2        0x2 
 .rodata.make_branch.str1.4
                0x00000000100096b4       0x77 CMakeFiles/tinyusb_host_cdc_msc_hid.dir/home/boemmelsebastian/pico/pico-sdk/src/rp2_common/hardware_irq/irq.c.obj
 *fill*         0x000000001000972b        0x1 
 .rodata.__func__.4461
                0x000000001000972c        0x9 CMakeFiles/tinyusb_host_cdc_msc_hid.dir/home/boemmelsebastian/pico/pico-sdk/src/rp2_common/hardware_pll/pll.c.obj
 *fill*         0x0000000010009735        0x3 
 .rodata.pll_init.str1.4
                0x0000000010009738       0xe3 CMakeFiles/tinyusb_host_cdc_msc_hid.dir/home/boemmelsebastian/pico/pico-sdk/src/rp2_common/hardware_pll/pll.c.obj
 *fill*         0x000000001000981b        0x1 
 .rodata._vsnprintf
                0x000000001000981c      0x1e0 CMakeFiles/tinyusb_host_cdc_msc_hid.dir/home/boemmelsebastian/pico/pico-sdk/src/rp2_common/pico_printf/printf.c.obj
 .rodata._ftoa.str1.4
                0x00000000100099fc       0x15 CMakeFiles/tinyusb_host_cdc_msc_hid.dir/home/boemmelsebastian/pico/pico-sdk/src/rp2_common/pico_printf/printf.c.obj
 *fill*         0x0000000010009a11        0x7 
 .rodata.pow10.5475
                0x0000000010009a18       0x50 CMakeFiles/tinyusb_host_cdc_msc_hid.dir/home/boemmelsebastian/pico/pico-sdk/src/rp2_common/pico_printf/printf.c.obj
 .rodata.__aeabi_double_init.str1.4
                0x0000000010009a68       0xb2 CMakeFiles/tinyusb_host_cdc_msc_hid.dir/home/boemmelsebastian/pico/pico-sdk/src/rp2_common/pico_double/double_init_rom.c.obj
 *fill*         0x0000000010009b1a        0x2 
 .rodata.__func__.4772
                0x0000000010009b1c       0x14 CMakeFiles/tinyusb_host_cdc_msc_hid.dir/home/boemmelsebastian/pico/pico-sdk/src/rp2_common/pico_double/double_init_rom.c.obj
 .rodata.__aeabi_float_init.str1.4
                0x0000000010009b30       0x84 CMakeFiles/tinyusb_host_cdc_msc_hid.dir/home/boemmelsebastian/pico/pico-sdk/src/rp2_common/pico_float/float_init_rom.c.obj
                                         0x88 (size before relaxing)
 .rodata.__func__.4773
                0x0000000010009bb4       0x13 CMakeFiles/tinyusb_host_cdc_msc_hid.dir/home/boemmelsebastian/pico/pico-sdk/src/rp2_common/pico_float/float_init_rom.c.obj
 *fill*         0x0000000010009bc7        0x1 
 .rodata.__bi_44
                0x0000000010009bc8        0xc CMakeFiles/tinyusb_host_cdc_msc_hid.dir/home/boemmelsebastian/pico/pico-sdk/src/rp2_common/pico_standard_link/binary_info.c.obj
 .rodata.__bi_75
                0x0000000010009bd4        0xc CMakeFiles/tinyusb_host_cdc_msc_hid.dir/home/boemmelsebastian/pico/pico-sdk/src/rp2_common/pico_standard_link/binary_info.c.obj
 .rodata.__bi_81
                0x0000000010009be0        0xc CMakeFiles/tinyusb_host_cdc_msc_hid.dir/home/boemmelsebastian/pico/pico-sdk/src/rp2_common/pico_standard_link/binary_info.c.obj
 .rodata.str1.4
                0x0000000010009bec       0x50 CMakeFiles/tinyusb_host_cdc_msc_hid.dir/home/boemmelsebastian/pico/pico-sdk/src/rp2_common/pico_standard_link/binary_info.c.obj
 .rodata.crlf_str.6107
                0x0000000010009c3c        0x2 CMakeFiles/tinyusb_host_cdc_msc_hid.dir/home/boemmelsebastian/pico/pico-sdk/src/rp2_common/pico_stdio/stdio.c.obj
 *fill*         0x0000000010009c3e        0x2 
 .rodata.__bi_35
                0x0000000010009c40        0xc CMakeFiles/tinyusb_host_cdc_msc_hid.dir/home/boemmelsebastian/pico/pico-sdk/src/rp2_common/pico_bootsel_via_double_reset/pico_bootsel_via_double_reset.c.obj
 .rodata.magic_token
                0x0000000010009c4c        0xc CMakeFiles/tinyusb_host_cdc_msc_hid.dir/home/boemmelsebastian/pico/pico-sdk/src/rp2_common/pico_bootsel_via_double_reset/pico_bootsel_via_double_reset.c.obj
 .rodata.str1.4
                0x0000000010009c58       0x18 CMakeFiles/tinyusb_host_cdc_msc_hid.dir/home/boemmelsebastian/pico/pico-sdk/src/rp2_common/pico_bootsel_via_double_reset/pico_bootsel_via_double_reset.c.obj
 .rodata.__bi_121.8330
                0x0000000010009c70        0xc CMakeFiles/tinyusb_host_cdc_msc_hid.dir/home/boemmelsebastian/pico/pico-sdk/lib/tinyusb/hw/bsp/rp2040/family.c.obj
 .rodata.__bi_131.8333
                0x0000000010009c7c        0x8 CMakeFiles/tinyusb_host_cdc_msc_hid.dir/home/boemmelsebastian/pico/pico-sdk/lib/tinyusb/hw/bsp/rp2040/family.c.obj
 .rodata.str1.4
                0x0000000010009c84        0x4 CMakeFiles/tinyusb_host_cdc_msc_hid.dir/home/boemmelsebastian/pico/pico-sdk/lib/tinyusb/hw/bsp/rp2040/family.c.obj
 .rodata.__func__.6990
                0x0000000010009c88       0x12 CMakeFiles/tinyusb_host_cdc_msc_hid.dir/home/boemmelsebastian/pico/pico-sdk/lib/tinyusb/src/portable/raspberrypi/rp2040/hcd_rp2040.c.obj
 *fill*         0x0000000010009c9a        0x2 
 .rodata.__func__.7008
                0x0000000010009c9c       0x16 CMakeFiles/tinyusb_host_cdc_msc_hid.dir/home/boemmelsebastian/pico/pico-sdk/lib/tinyusb/src/portable/raspberrypi/rp2040/hcd_rp2040.c.obj
 *fill*         0x0000000010009cb2        0x2 
 .rodata.__func__.7017
                0x0000000010009cb4       0x12 CMakeFiles/tinyusb_host_cdc_msc_hid.dir/home/boemmelsebastian/pico/pico-sdk/lib/tinyusb/src/portable/raspberrypi/rp2040/hcd_rp2040.c.obj
 *fill*         0x0000000010009cc6        0x2 
 .rodata.__func__.7026
                0x0000000010009cc8        0x9 CMakeFiles/tinyusb_host_cdc_msc_hid.dir/home/boemmelsebastian/pico/pico-sdk/lib/tinyusb/src/portable/raspberrypi/rp2040/hcd_rp2040.c.obj
 *fill*         0x0000000010009cd1        0x3 
 .rodata.__func__.7030
                0x0000000010009cd4        0xf CMakeFiles/tinyusb_host_cdc_msc_hid.dir/home/boemmelsebastian/pico/pico-sdk/lib/tinyusb/src/portable/raspberrypi/rp2040/hcd_rp2040.c.obj
 *fill*         0x0000000010009ce3        0x1 
 .rodata.__func__.7034
                0x0000000010009ce4       0x18 CMakeFiles/tinyusb_host_cdc_msc_hid.dir/home/boemmelsebastian/pico/pico-sdk/lib/tinyusb/src/portable/raspberrypi/rp2040/hcd_rp2040.c.obj
 .rodata.__func__.7038
                0x0000000010009cfc       0x13 CMakeFiles/tinyusb_host_cdc_msc_hid.dir/home/boemmelsebastian/pico/pico-sdk/lib/tinyusb/src/portable/raspberrypi/rp2040/hcd_rp2040.c.obj
 *fill*         0x0000000010009d0f        0x1 
 .rodata.__func__.7052
                0x0000000010009d10        0xf CMakeFiles/tinyusb_host_cdc_msc_hid.dir/home/boemmelsebastian/pico/pico-sdk/lib/tinyusb/src/portable/raspberrypi/rp2040/hcd_rp2040.c.obj
 *fill*         0x0000000010009d1f        0x1 
 .rodata.__func__.7073
                0x0000000010009d20        0xe CMakeFiles/tinyusb_host_cdc_msc_hid.dir/home/boemmelsebastian/pico/pico-sdk/lib/tinyusb/src/portable/raspberrypi/rp2040/hcd_rp2040.c.obj
 *fill*         0x0000000010009d2e        0x2 
 .rodata.__func__.7081
                0x0000000010009d30        0xf CMakeFiles/tinyusb_host_cdc_msc_hid.dir/home/boemmelsebastian/pico/pico-sdk/lib/tinyusb/src/portable/raspberrypi/rp2040/hcd_rp2040.c.obj
 *fill*         0x0000000010009d3f        0x1 
 .rodata._hw_endpoint_allocate.str1.4
                0x0000000010009d40       0x62 CMakeFiles/tinyusb_host_cdc_msc_hid.dir/home/boemmelsebastian/pico/pico-sdk/lib/tinyusb/src/portable/raspberrypi/rp2040/hcd_rp2040.c.obj
 *fill*         0x0000000010009da2        0x2 
 .rodata._hw_endpoint_init.str1.4
                0x0000000010009da4       0x6b CMakeFiles/tinyusb_host_cdc_msc_hid.dir/home/boemmelsebastian/pico/pico-sdk/lib/tinyusb/src/portable/raspberrypi/rp2040/hcd_rp2040.c.obj
 *fill*         0x0000000010009e0f        0x1 
 .rodata.hcd_edpt_xfer.str1.4
                0x0000000010009e10        0xc CMakeFiles/tinyusb_host_cdc_msc_hid.dir/home/boemmelsebastian/pico/pico-sdk/lib/tinyusb/src/portable/raspberrypi/rp2040/hcd_rp2040.c.obj
 .rodata.hcd_init.str1.4
                0x0000000010009e1c        0xc CMakeFiles/tinyusb_host_cdc_msc_hid.dir/home/boemmelsebastian/pico/pico-sdk/lib/tinyusb/src/portable/raspberrypi/rp2040/hcd_rp2040.c.obj
 .rodata.hcd_port_speed_get.str1.4
                0x0000000010009e28        0xf CMakeFiles/tinyusb_host_cdc_msc_hid.dir/home/boemmelsebastian/pico/pico-sdk/lib/tinyusb/src/portable/raspberrypi/rp2040/hcd_rp2040.c.obj
 *fill*         0x0000000010009e37        0x1 
 .rodata.hcd_rp2040_irq.str1.4
                0x0000000010009e38       0x28 CMakeFiles/tinyusb_host_cdc_msc_hid.dir/home/boemmelsebastian/pico/pico-sdk/lib/tinyusb/src/portable/raspberrypi/rp2040/hcd_rp2040.c.obj
 .rodata.hcd_setup_send.str1.4
                0x0000000010009e60        0xf CMakeFiles/tinyusb_host_cdc_msc_hid.dir/home/boemmelsebastian/pico/pico-sdk/lib/tinyusb/src/portable/raspberrypi/rp2040/hcd_rp2040.c.obj
 *fill*         0x0000000010009e6f        0x1 
 .rodata.hw_handle_buff_status.str1.4
                0x0000000010009e70       0x15 CMakeFiles/tinyusb_host_cdc_msc_hid.dir/home/boemmelsebastian/pico/pico-sdk/lib/tinyusb/src/portable/raspberrypi/rp2040/hcd_rp2040.c.obj
 *fill*         0x0000000010009e85        0x3 
 .rodata.hw_trans_complete.str1.4
                0x0000000010009e88        0xb CMakeFiles/tinyusb_host_cdc_msc_hid.dir/home/boemmelsebastian/pico/pico-sdk/lib/tinyusb/src/portable/raspberrypi/rp2040/hcd_rp2040.c.obj
 *fill*         0x0000000010009e93        0x1 
 .rodata.__func__.6685
                0x0000000010009e94        0xf CMakeFiles/tinyusb_host_cdc_msc_hid.dir/home/boemmelsebastian/pico/pico-sdk/lib/tinyusb/src/portable/raspberrypi/rp2040/rp2040_usb.c.obj
 *fill*         0x0000000010009ea3        0x1 
 .rodata._hw_endpoint_buffer_control_update32.str1.4
                0x0000000010009ea4       0x1f CMakeFiles/tinyusb_host_cdc_msc_hid.dir/home/boemmelsebastian/pico/pico-sdk/lib/tinyusb/src/portable/raspberrypi/rp2040/rp2040_usb.c.obj
 *fill*         0x0000000010009ec3        0x1 
 .rodata.hw_endpoint_xfer_continue.str1.4
                0x0000000010009ec4       0x29 CMakeFiles/tinyusb_host_cdc_msc_hid.dir/home/boemmelsebastian/pico/pico-sdk/lib/tinyusb/src/portable/raspberrypi/rp2040/rp2040_usb.c.obj
 *fill*         0x0000000010009eed        0x3 
 .rodata.hw_endpoint_xfer_start.str1.4
                0x0000000010009ef0       0x38 CMakeFiles/tinyusb_host_cdc_msc_hid.dir/home/boemmelsebastian/pico/pico-sdk/lib/tinyusb/src/portable/raspberrypi/rp2040/rp2040_usb.c.obj
 .rodata.str1.4
                0x0000000010009f28        0x7 CMakeFiles/tinyusb_host_cdc_msc_hid.dir/home/boemmelsebastian/pico/pico-sdk/lib/tinyusb/src/portable/raspberrypi/rp2040/rp2040_usb.c.obj
 *fill*         0x0000000010009f2f        0x1 
 .rodata.sync_ep_buffer.str1.4
                0x0000000010009f30       0x9d CMakeFiles/tinyusb_host_cdc_msc_hid.dir/home/boemmelsebastian/pico/pico-sdk/lib/tinyusb/src/portable/raspberrypi/rp2040/rp2040_usb.c.obj
 *fill*         0x0000000010009fcd        0x3 
 .rodata        0x0000000010009fd0       0x20 CMakeFiles/tinyusb_host_cdc_msc_hid.dir/home/boemmelsebastian/pico/pico-sdk/lib/tinyusb/src/host/usbh.c.obj
 .rodata.__func__.6599
                0x0000000010009ff0       0x10 CMakeFiles/tinyusb_host_cdc_msc_hid.dir/home/boemmelsebastian/pico/pico-sdk/lib/tinyusb/src/host/usbh.c.obj
 .rodata.__func__.7991
                0x000000001000a000        0xb CMakeFiles/tinyusb_host_cdc_msc_hid.dir/home/boemmelsebastian/pico/pico-sdk/lib/tinyusb/src/host/usbh.c.obj
 *fill*         0x000000001000a00b        0x1 
 .rodata.__func__.8024
                0x000000001000a00c        0x9 CMakeFiles/tinyusb_host_cdc_msc_hid.dir/home/boemmelsebastian/pico/pico-sdk/lib/tinyusb/src/host/usbh.c.obj
 *fill*         0x000000001000a015        0x3 
 .rodata.__func__.8045
                0x000000001000a018        0x9 CMakeFiles/tinyusb_host_cdc_msc_hid.dir/home/boemmelsebastian/pico/pico-sdk/lib/tinyusb/src/host/usbh.c.obj
 *fill*         0x000000001000a021        0x3 
 .rodata.__func__.8157
                0x000000001000a024       0x1f CMakeFiles/tinyusb_host_cdc_msc_hid.dir/home/boemmelsebastian/pico/pico-sdk/lib/tinyusb/src/host/usbh.c.obj
 *fill*         0x000000001000a043        0x1 
 .rodata.__func__.8163
                0x000000001000a044       0x1f CMakeFiles/tinyusb_host_cdc_msc_hid.dir/home/boemmelsebastian/pico/pico-sdk/lib/tinyusb/src/host/usbh.c.obj
 *fill*         0x000000001000a063        0x1 
 .rodata.__func__.8169
                0x000000001000a064       0x1e CMakeFiles/tinyusb_host_cdc_msc_hid.dir/home/boemmelsebastian/pico/pico-sdk/lib/tinyusb/src/host/usbh.c.obj
 *fill*         0x000000001000a082        0x2 
 .rodata.__func__.8176
                0x000000001000a084       0x1e CMakeFiles/tinyusb_host_cdc_msc_hid.dir/home/boemmelsebastian/pico/pico-sdk/lib/tinyusb/src/host/usbh.c.obj
 *fill*         0x000000001000a0a2        0x2 
 .rodata.__func__.8181
                0x000000001000a0a4       0x10 CMakeFiles/tinyusb_host_cdc_msc_hid.dir/home/boemmelsebastian/pico/pico-sdk/lib/tinyusb/src/host/usbh.c.obj
 .rodata.__func__.8186
                0x000000001000a0b4       0x1f CMakeFiles/tinyusb_host_cdc_msc_hid.dir/home/boemmelsebastian/pico/pico-sdk/lib/tinyusb/src/host/usbh.c.obj
 *fill*         0x000000001000a0d3        0x1 
 .rodata.__func__.8193
                0x000000001000a0d4       0x24 CMakeFiles/tinyusb_host_cdc_msc_hid.dir/home/boemmelsebastian/pico/pico-sdk/lib/tinyusb/src/host/usbh.c.obj
 .rodata.__func__.8201
                0x000000001000a0f8       0x16 CMakeFiles/tinyusb_host_cdc_msc_hid.dir/home/boemmelsebastian/pico/pico-sdk/lib/tinyusb/src/host/usbh.c.obj
 *fill*         0x000000001000a10e        0x2 
 .rodata.__func__.8209
                0x000000001000a110       0x1a CMakeFiles/tinyusb_host_cdc_msc_hid.dir/home/boemmelsebastian/pico/pico-sdk/lib/tinyusb/src/host/usbh.c.obj
 *fill*         0x000000001000a12a        0x2 
 .rodata.__func__.8218
                0x000000001000a12c       0x1e CMakeFiles/tinyusb_host_cdc_msc_hid.dir/home/boemmelsebastian/pico/pico-sdk/lib/tinyusb/src/host/usbh.c.obj
 *fill*         0x000000001000a14a        0x2 
 .rodata.__func__.8227
                0x000000001000a14c       0x24 CMakeFiles/tinyusb_host_cdc_msc_hid.dir/home/boemmelsebastian/pico/pico-sdk/lib/tinyusb/src/host/usbh.c.obj
 .rodata.__func__.8236
                0x000000001000a170       0x1e CMakeFiles/tinyusb_host_cdc_msc_hid.dir/home/boemmelsebastian/pico/pico-sdk/lib/tinyusb/src/host/usbh.c.obj
 *fill*         0x000000001000a18e        0x2 
 .rodata.__func__.8243
                0x000000001000a190       0x19 CMakeFiles/tinyusb_host_cdc_msc_hid.dir/home/boemmelsebastian/pico/pico-sdk/lib/tinyusb/src/host/usbh.c.obj
 *fill*         0x000000001000a1a9        0x3 
 .rodata.__func__.8254
                0x000000001000a1ac       0x1f CMakeFiles/tinyusb_host_cdc_msc_hid.dir/home/boemmelsebastian/pico/pico-sdk/lib/tinyusb/src/host/usbh.c.obj
 *fill*         0x000000001000a1cb        0x1 
 .rodata.__func__.8295
                0x000000001000a1cc        0xf CMakeFiles/tinyusb_host_cdc_msc_hid.dir/home/boemmelsebastian/pico/pico-sdk/lib/tinyusb/src/host/usbh.c.obj
 *fill*         0x000000001000a1db        0x1 
 .rodata.__func__.8307
                0x000000001000a1dc        0xf CMakeFiles/tinyusb_host_cdc_msc_hid.dir/home/boemmelsebastian/pico/pico-sdk/lib/tinyusb/src/host/usbh.c.obj
 *fill*         0x000000001000a1eb        0x1 
 .rodata.enum_hub_get_status0_complete.str1.4
                0x000000001000a1ec       0x17 CMakeFiles/tinyusb_host_cdc_msc_hid.dir/home/boemmelsebastian/pico/pico-sdk/lib/tinyusb/src/host/usbh.c.obj
 *fill*         0x000000001000a203        0x1 
 .rodata.usbh_class_drivers
                0x000000001000a204       0x50 CMakeFiles/tinyusb_host_cdc_msc_hid.dir/home/boemmelsebastian/pico/pico-sdk/lib/tinyusb/src/host/usbh.c.obj
 .rodata.__func__.7842
                0x000000001000a254       0x11 CMakeFiles/tinyusb_host_cdc_msc_hid.dir/home/boemmelsebastian/pico/pico-sdk/lib/tinyusb/src/host/usbh_control.c.obj
 .rodata.tuh_control_xfer.str1.4
                0x000000001000a265       0x17 CMakeFiles/tinyusb_host_cdc_msc_hid.dir/home/boemmelsebastian/pico/pico-sdk/lib/tinyusb/src/host/usbh_control.c.obj
 *fill*         0x000000001000a265        0x3 
 .rodata        0x000000001000a268        0x8 CMakeFiles/tinyusb_host_cdc_msc_hid.dir/home/boemmelsebastian/pico/pico-sdk/lib/tinyusb/src/host/hub.c.obj
 .rodata.__func__.6953
                0x000000001000a270       0x17 CMakeFiles/tinyusb_host_cdc_msc_hid.dir/home/boemmelsebastian/pico/pico-sdk/lib/tinyusb/src/host/hub.c.obj
 *fill*         0x000000001000a287        0x1 
 .rodata.__func__.6961
                0x000000001000a288       0x15 CMakeFiles/tinyusb_host_cdc_msc_hid.dir/home/boemmelsebastian/pico/pico-sdk/lib/tinyusb/src/host/hub.c.obj
 *fill*         0x000000001000a29d        0x3 
 .rodata.__func__.6974
                0x000000001000a2a0       0x14 CMakeFiles/tinyusb_host_cdc_msc_hid.dir/home/boemmelsebastian/pico/pico-sdk/lib/tinyusb/src/host/hub.c.obj
 .rodata.__func__.6985
                0x000000001000a2b4        0x9 CMakeFiles/tinyusb_host_cdc_msc_hid.dir/home/boemmelsebastian/pico/pico-sdk/lib/tinyusb/src/host/hub.c.obj
 *fill*         0x000000001000a2bd        0x3 
 .rodata.__func__.7009
                0x000000001000a2c0        0xf CMakeFiles/tinyusb_host_cdc_msc_hid.dir/home/boemmelsebastian/pico/pico-sdk/lib/tinyusb/src/host/hub.c.obj
 *fill*         0x000000001000a2cf        0x1 
 .rodata.__func__.7016
                0x000000001000a2d0       0x16 CMakeFiles/tinyusb_host_cdc_msc_hid.dir/home/boemmelsebastian/pico/pico-sdk/lib/tinyusb/src/host/hub.c.obj
 *fill*         0x000000001000a2e6        0x2 
 .rodata.__func__.7025
                0x000000001000a2e8       0x1b CMakeFiles/tinyusb_host_cdc_msc_hid.dir/home/boemmelsebastian/pico/pico-sdk/lib/tinyusb/src/host/hub.c.obj
 *fill*         0x000000001000a303        0x1 
 .rodata.__func__.7046
                0x000000001000a304        0xc CMakeFiles/tinyusb_host_cdc_msc_hid.dir/home/boemmelsebastian/pico/pico-sdk/lib/tinyusb/src/host/hub.c.obj
 .rodata.__func__.7057
                0x000000001000a310       0x1f CMakeFiles/tinyusb_host_cdc_msc_hid.dir/home/boemmelsebastian/pico/pico-sdk/lib/tinyusb/src/host/hub.c.obj
 *fill*         0x000000001000a32f        0x1 
 .rodata.__func__.7065
                0x000000001000a330       0x26 CMakeFiles/tinyusb_host_cdc_msc_hid.dir/home/boemmelsebastian/pico/pico-sdk/lib/tinyusb/src/host/hub.c.obj
 *fill*         0x000000001000a356        0x2 
 .rodata.__func__.7074
                0x000000001000a358       0x1f CMakeFiles/tinyusb_host_cdc_msc_hid.dir/home/boemmelsebastian/pico/pico-sdk/lib/tinyusb/src/host/hub.c.obj
 .rodata.connection_port_reset_complete.str1.4
                0x000000001000a377       0x17 CMakeFiles/tinyusb_host_cdc_msc_hid.dir/home/boemmelsebastian/pico/pico-sdk/lib/tinyusb/src/host/hub.c.obj
 *fill*         0x000000001000a377        0x1 
 .rodata.__func__.7171
                0x000000001000a378        0xa CMakeFiles/tinyusb_host_cdc_msc_hid.dir/home/boemmelsebastian/pico/pico-sdk/lib/tinyusb/src/class/cdc/cdc_host.c.obj
 .rodata.tuh_cdc_set_control_line_state.str1.4
                0x000000001000a382       0x17 CMakeFiles/tinyusb_host_cdc_msc_hid.dir/home/boemmelsebastian/pico/pico-sdk/lib/tinyusb/src/class/cdc/cdc_host.c.obj
 *fill*         0x000000001000a382        0x2 
 .rodata.__func__.7382
                0x000000001000a384        0xa CMakeFiles/tinyusb_host_cdc_msc_hid.dir/home/boemmelsebastian/pico/pico-sdk/lib/tinyusb/src/class/hid/hid_host.c.obj
 *fill*         0x000000001000a38e        0x2 
 .rodata.__func__.7396
                0x000000001000a390       0x10 CMakeFiles/tinyusb_host_cdc_msc_hid.dir/home/boemmelsebastian/pico/pico-sdk/lib/tinyusb/src/class/hid/hid_host.c.obj
 .rodata.__func__.7406
                0x000000001000a3a0       0x14 CMakeFiles/tinyusb_host_cdc_msc_hid.dir/home/boemmelsebastian/pico/pico-sdk/lib/tinyusb/src/class/hid/hid_host.c.obj
 .rodata.__func__.7412
                0x000000001000a3b4       0x17 CMakeFiles/tinyusb_host_cdc_msc_hid.dir/home/boemmelsebastian/pico/pico-sdk/lib/tinyusb/src/class/hid/hid_host.c.obj
 *fill*         0x000000001000a3cb        0x1 
 .rodata.__func__.7422
                0x000000001000a3cc       0x20 CMakeFiles/tinyusb_host_cdc_msc_hid.dir/home/boemmelsebastian/pico/pico-sdk/lib/tinyusb/src/class/hid/hid_host.c.obj
 .rodata.config_set_protocol.str1.4
                0x000000001000a3ec       0x17 CMakeFiles/tinyusb_host_cdc_msc_hid.dir/home/boemmelsebastian/pico/pico-sdk/lib/tinyusb/src/class/hid/hid_host.c.obj
 .rodata.__func__.7174
                0x000000001000a3ec       0x15 CMakeFiles/tinyusb_host_cdc_msc_hid.dir/home/boemmelsebastian/pico/pico-sdk/lib/tinyusb/src/class/msc/msc_host.c.obj
 *fill*         0x000000001000a401        0x3 
 .rodata.__func__.7246
                0x000000001000a404        0xd CMakeFiles/tinyusb_host_cdc_msc_hid.dir/home/boemmelsebastian/pico/pico-sdk/lib/tinyusb/src/class/msc/msc_host.c.obj
 *fill*         0x000000001000a411        0x3 
 .rodata.__func__.7275
                0x000000001000a414        0xa CMakeFiles/tinyusb_host_cdc_msc_hid.dir/home/boemmelsebastian/pico/pico-sdk/lib/tinyusb/src/class/msc/msc_host.c.obj
 *fill*         0x000000001000a41e        0x2 
 .rodata.__func__.7287
                0x000000001000a420       0x10 CMakeFiles/tinyusb_host_cdc_msc_hid.dir/home/boemmelsebastian/pico/pico-sdk/lib/tinyusb/src/class/msc/msc_host.c.obj
 .rodata.__func__.7301
                0x000000001000a430       0x20 CMakeFiles/tinyusb_host_cdc_msc_hid.dir/home/boemmelsebastian/pico/pico-sdk/lib/tinyusb/src/class/msc/msc_host.c.obj
 .rodata.__func__.7307
                0x000000001000a450       0x1e CMakeFiles/tinyusb_host_cdc_msc_hid.dir/home/boemmelsebastian/pico/pico-sdk/lib/tinyusb/src/class/msc/msc_host.c.obj
 *fill*         0x000000001000a46e        0x2 
 .rodata.__func__.7313
                0x000000001000a470       0x1e CMakeFiles/tinyusb_host_cdc_msc_hid.dir/home/boemmelsebastian/pico/pico-sdk/lib/tinyusb/src/class/msc/msc_host.c.obj
 .rodata.config_read_capacity_complete.str1.4
                0x000000001000a48e       0x17 CMakeFiles/tinyusb_host_cdc_msc_hid.dir/home/boemmelsebastian/pico/pico-sdk/lib/tinyusb/src/class/msc/msc_host.c.obj
 *fill*         0x000000001000a48e        0x2 
 .rodata.__func__.7783
                0x000000001000a490        0xa CMakeFiles/tinyusb_host_cdc_msc_hid.dir/home/boemmelsebastian/pico/pico-sdk/lib/tinyusb/src/tusb.c.obj
 *fill*         0x000000001000a49a        0x2 
 .rodata.__func__.7795
                0x000000001000a49c       0x11 CMakeFiles/tinyusb_host_cdc_msc_hid.dir/home/boemmelsebastian/pico/pico-sdk/lib/tinyusb/src/tusb.c.obj
 .rodata.tusb_init.str1.4
                0x000000001000a4ad       0x17 CMakeFiles/tinyusb_host_cdc_msc_hid.dir/home/boemmelsebastian/pico/pico-sdk/lib/tinyusb/src/tusb.c.obj
 *fill*         0x000000001000a4ad        0x3 
 .rodata        0x000000001000a4b0        0x4 /usr/lib/gcc/arm-none-eabi/8.3.1/../../../arm-none-eabi/lib/thumb/v6-m/nofp/libg.a(lib_a-impure.o)
                0x000000001000a4b0                _global_impure_ptr
                0x000000001000a4b4                . = ALIGN (0x4)
 *(SORT_BY_ALIGNMENT(SORT_BY_NAME(.flashdata*)))
                0x000000001000a4b4                . = ALIGN (0x4)

.rel.dyn        0x000000001000a4b4        0x0
 .rel.iplt      0x000000001000a4b4        0x0 /usr/lib/gcc/arm-none-eabi/8.3.1/thumb/v6-m/nofp/crtbegin.o

.ARM.extab
 *(.ARM.extab* .gnu.linkonce.armextab.*)
                0x000000001000a4b4                __exidx_start = .

.ARM.exidx
 *(.ARM.exidx* .gnu.linkonce.armexidx.*)
                0x000000001000a4b4                __exidx_end = .
                0x000000001000a4b4                . = ALIGN (0x4)
                0x000000001000a4b4                __binary_info_start = .

.binary_info    0x000000001000a4b4       0x28
 *(.binary_info.keep.*)
 .binary_info.keep.__bi_ptr22
                0x000000001000a4b4        0x4 CMakeFiles/tinyusb_host_cdc_msc_hid.dir/home/boemmelsebastian/pico/pico-sdk/src/rp2_common/pico_standard_link/binary_info.c.obj
 .binary_info.keep.__bi_ptr30
                0x000000001000a4b8        0x4 CMakeFiles/tinyusb_host_cdc_msc_hid.dir/home/boemmelsebastian/pico/pico-sdk/src/rp2_common/pico_standard_link/binary_info.c.obj
 .binary_info.keep.__bi_ptr38
                0x000000001000a4bc        0x4 CMakeFiles/tinyusb_host_cdc_msc_hid.dir/home/boemmelsebastian/pico/pico-sdk/src/rp2_common/pico_standard_link/binary_info.c.obj
 .binary_info.keep.__bi_ptr44
                0x000000001000a4c0        0x4 CMakeFiles/tinyusb_host_cdc_msc_hid.dir/home/boemmelsebastian/pico/pico-sdk/src/rp2_common/pico_standard_link/binary_info.c.obj
 .binary_info.keep.__bi_ptr50
                0x000000001000a4c4        0x4 CMakeFiles/tinyusb_host_cdc_msc_hid.dir/home/boemmelsebastian/pico/pico-sdk/src/rp2_common/pico_standard_link/binary_info.c.obj
 .binary_info.keep.__bi_ptr75
                0x000000001000a4c8        0x4 CMakeFiles/tinyusb_host_cdc_msc_hid.dir/home/boemmelsebastian/pico/pico-sdk/src/rp2_common/pico_standard_link/binary_info.c.obj
 .binary_info.keep.__bi_ptr81
                0x000000001000a4cc        0x4 CMakeFiles/tinyusb_host_cdc_msc_hid.dir/home/boemmelsebastian/pico/pico-sdk/src/rp2_common/pico_standard_link/binary_info.c.obj
 .binary_info.keep.__bi_ptr35
                0x000000001000a4d0        0x4 CMakeFiles/tinyusb_host_cdc_msc_hid.dir/home/boemmelsebastian/pico/pico-sdk/src/rp2_common/pico_bootsel_via_double_reset/pico_bootsel_via_double_reset.c.obj
 .binary_info.keep.__bi_ptr121
                0x000000001000a4d4        0x4 CMakeFiles/tinyusb_host_cdc_msc_hid.dir/home/boemmelsebastian/pico/pico-sdk/lib/tinyusb/hw/bsp/rp2040/family.c.obj
 .binary_info.keep.__bi_ptr131
                0x000000001000a4d8        0x4 CMakeFiles/tinyusb_host_cdc_msc_hid.dir/home/boemmelsebastian/pico/pico-sdk/lib/tinyusb/hw/bsp/rp2040/family.c.obj
 *(.binary_info.*)
                0x000000001000a4dc                __binary_info_end = .
                0x000000001000a4dc                . = ALIGN (0x4)
                0x000000001000a4dc                __etext = .

.ram_vector_table
                0x0000000020000000       0xc0
 *(.ram_vector_table)
 .ram_vector_table
                0x0000000020000000       0xc0 CMakeFiles/tinyusb_host_cdc_msc_hid.dir/home/boemmelsebastian/pico/pico-sdk/src/rp2_common/pico_runtime/runtime.c.obj
                0x0000000020000000                ram_vector_table

.data           0x00000000200000c0      0xb40 load address 0x000000001000a4dc
                0x00000000200000c0                __data_start__ = .
 *(vtable)
 *(.time_critical*)
 .time_critical.mutex_enter_blocking
                0x00000000200000c0       0x48 CMakeFiles/tinyusb_host_cdc_msc_hid.dir/home/boemmelsebastian/pico/pico-sdk/src/common/pico_sync/mutex.c.obj
                0x00000000200000c0                mutex_enter_blocking
 .time_critical.mutex_try_enter
                0x0000000020000108       0x48 CMakeFiles/tinyusb_host_cdc_msc_hid.dir/home/boemmelsebastian/pico/pico-sdk/src/common/pico_sync/mutex.c.obj
                0x0000000020000108                mutex_try_enter
 .time_critical.mutex_enter_block_until
                0x0000000020000150       0x7c CMakeFiles/tinyusb_host_cdc_msc_hid.dir/home/boemmelsebastian/pico/pico-sdk/src/common/pico_sync/mutex.c.obj
                0x0000000020000150                mutex_enter_block_until
 .time_critical.mutex_enter_timeout_ms
                0x00000000200001cc       0x6c CMakeFiles/tinyusb_host_cdc_msc_hid.dir/home/boemmelsebastian/pico/pico-sdk/src/common/pico_sync/mutex.c.obj
                0x00000000200001cc                mutex_enter_timeout_ms
 .time_critical.mutex_exit
                0x0000000020000238       0x4c CMakeFiles/tinyusb_host_cdc_msc_hid.dir/home/boemmelsebastian/pico/pico-sdk/src/common/pico_sync/mutex.c.obj
                0x0000000020000238                mutex_exit
 *(.text*)
 .text          0x0000000020000284        0x4 /usr/lib/gcc/arm-none-eabi/8.3.1/thumb/v6-m/nofp/libgcc.a(_dvmd_tls.o)
                0x0000000020000284                __aeabi_ldiv0
                0x0000000020000284                __aeabi_idiv0
 .text.__stub   0x0000000020000288       0x40 linker stubs
                0x00000000200002c8                . = ALIGN (0x4)
 *(.rodata*)
                0x00000000200002c8                . = ALIGN (0x4)
 *(.data*)
 .data.striped_spin_lock_num
                0x00000000200002c8        0x1 CMakeFiles/tinyusb_host_cdc_msc_hid.dir/home/boemmelsebastian/pico/pico-sdk/src/rp2_common/hardware_sync/sync.c.obj
 *fill*         0x00000000200002c9        0x3 
 .data.default_alarm_pool
                0x00000000200002cc       0x18 CMakeFiles/tinyusb_host_cdc_msc_hid.dir/home/boemmelsebastian/pico/pico-sdk/src/common/pico_time/time.c.obj
 .data.default_alarm_pool_heap
                0x00000000200002e4       0x10 CMakeFiles/tinyusb_host_cdc_msc_hid.dir/home/boemmelsebastian/pico/pico-sdk/src/common/pico_time/time.c.obj
 .data          0x00000000200002f4       0x48 CMakeFiles/tinyusb_host_cdc_msc_hid.dir/home/boemmelsebastian/pico/pico-sdk/src/rp2_common/hardware_irq/irq_handler_chain.S.obj
                0x00000000200002f4                irq_handler_chain_slots
                0x0000000020000324                irq_handler_chain_first_slot
                0x000000002000032e                irq_handler_chain_remove_tail
 *fill*         0x000000002000033c        0x4 
 .data.aeabi_bits_funcs
                0x0000000020000340       0x10 CMakeFiles/tinyusb_host_cdc_msc_hid.dir/home/boemmelsebastian/pico/pico-sdk/src/rp2_common/pico_bit_ops/bit_ops_aeabi.S.obj
                0x0000000020000340                aeabi_bits_funcs
                0x0000000020000350                aeabi_bits_funcs_end
 .data.aeabi_mem_funcs
                0x0000000020000350       0x10 CMakeFiles/tinyusb_host_cdc_msc_hid.dir/home/boemmelsebastian/pico/pico-sdk/src/rp2_common/pico_mem_ops/mem_ops_aeabi.S.obj
                0x0000000020000350                aeabi_mem_funcs
                0x0000000020000360                aeabi_mem_funcs_end
 .data.stdio_uart
                0x0000000020000360       0x14 CMakeFiles/tinyusb_host_cdc_msc_hid.dir/home/boemmelsebastian/pico/pico-sdk/src/rp2_common/pico_stdio_uart/stdio_uart.c.obj
                0x0000000020000360                stdio_uart
 .data.ep_dir_string
                0x0000000020000374        0x8 CMakeFiles/tinyusb_host_cdc_msc_hid.dir/home/boemmelsebastian/pico/pico-sdk/lib/tinyusb/src/portable/raspberrypi/rp2040/rp2040_usb.c.obj
                0x0000000020000374                ep_dir_string
 .data._usbh_qdef
                0x000000002000037c       0x24 CMakeFiles/tinyusb_host_cdc_msc_hid.dir/home/boemmelsebastian/pico/pico-sdk/lib/tinyusb/src/host/usbh.c.obj
                0x000000002000037c                _usbh_qdef
 .data          0x00000000200003a0      0x430 /usr/lib/gcc/arm-none-eabi/8.3.1/../../../arm-none-eabi/lib/thumb/v6-m/nofp/libg.a(lib_a-impure.o)
                0x00000000200003a0                _impure_ptr
 .data          0x00000000200007d0      0x410 /usr/lib/gcc/arm-none-eabi/8.3.1/../../../arm-none-eabi/lib/thumb/v6-m/nofp/libg.a(lib_a-mallocr.o)
                0x00000000200007d0                __malloc_sbrk_base
                0x00000000200007d4                __malloc_trim_threshold
                0x00000000200007d8                __malloc_av_
                0x0000000020000be0                . = ALIGN (0x4)
 *(.after_data.*)
                0x0000000020000be0                . = ALIGN (0x4)
                0x0000000020000be0                PROVIDE (__mutex_array_start = .)
 *(SORT_BY_NAME(.mutex_array.*))
 *(.mutex_array)
 .mutex_array   0x0000000020000be0        0x8 CMakeFiles/tinyusb_host_cdc_msc_hid.dir/home/boemmelsebastian/pico/pico-sdk/src/rp2_common/pico_stdio/stdio.c.obj
                0x0000000020000be8                PROVIDE (__mutex_array_end = .)
                0x0000000020000be8                . = ALIGN (0x4)
                0x0000000020000be8                PROVIDE (__preinit_array_start = .)
 *(SORT_BY_NAME(.preinit_array.*))
 .preinit_array.00001
                0x0000000020000be8        0x4 CMakeFiles/tinyusb_host_cdc_msc_hid.dir/home/boemmelsebastian/pico/pico-sdk/src/rp2_common/pico_mem_ops/mem_ops_aeabi.S.obj
 .preinit_array.00010
                0x0000000020000bec        0x4 CMakeFiles/tinyusb_host_cdc_msc_hid.dir/home/boemmelsebastian/pico/pico-sdk/src/rp2_common/pico_bit_ops/bit_ops_aeabi.S.obj
 .preinit_array.00020
                0x0000000020000bf0        0x4 CMakeFiles/tinyusb_host_cdc_msc_hid.dir/home/boemmelsebastian/pico/pico-sdk/src/rp2_common/pico_double/double_aeabi.S.obj
 .preinit_array.00020
                0x0000000020000bf4        0x4 CMakeFiles/tinyusb_host_cdc_msc_hid.dir/home/boemmelsebastian/pico/pico-sdk/src/rp2_common/pico_float/float_aeabi.S.obj
 *(.preinit_array)
                0x0000000020000bf8                PROVIDE (__preinit_array_end = .)
                0x0000000020000bf8                . = ALIGN (0x4)
                0x0000000020000bf8                PROVIDE (__init_array_start = .)
 *(SORT_BY_NAME(.init_array.*))
 *(.init_array)
 .init_array    0x0000000020000bf8        0x4 /usr/lib/gcc/arm-none-eabi/8.3.1/thumb/v6-m/nofp/crtbegin.o
 .init_array    0x0000000020000bfc        0x4 CMakeFiles/tinyusb_host_cdc_msc_hid.dir/home/boemmelsebastian/pico/pico-sdk/src/rp2_common/pico_bootsel_via_double_reset/pico_bootsel_via_double_reset.c.obj
                0x0000000020000c00                PROVIDE (__init_array_end = .)
                0x0000000020000c00                . = ALIGN (0x4)
                0x0000000020000c00                PROVIDE (__fini_array_start = .)
 *(SORT_BY_NAME(.fini_array.*))
 *(.fini_array)
                0x0000000020000c00                PROVIDE (__fini_array_end = .)
 *(.jcr)
                0x0000000020000c00                . = ALIGN (0x4)
                0x0000000020000c00                __data_end__ = .

.tm_clone_table
                0x0000000020000c00        0x0 load address 0x000000001000b01c
 .tm_clone_table
                0x0000000020000c00        0x0 /usr/lib/gcc/arm-none-eabi/8.3.1/thumb/v6-m/nofp/crtbegin.o
 .tm_clone_table
                0x0000000020000c00        0x0 /usr/lib/gcc/arm-none-eabi/8.3.1/thumb/v6-m/nofp/crtend.o

.igot.plt       0x0000000020000c00        0x0 load address 0x000000001000b01c
 .igot.plt      0x0000000020000c00        0x0 /usr/lib/gcc/arm-none-eabi/8.3.1/thumb/v6-m/nofp/crtbegin.o

.uninitialized_ram.magic_location
                0x0000000020000c00        0xc load address 0x000000001000b01c
 .uninitialized_ram.magic_location
                0x0000000020000c00        0xc CMakeFiles/tinyusb_host_cdc_msc_hid.dir/home/boemmelsebastian/pico/pico-sdk/src/rp2_common/pico_bootsel_via_double_reset/pico_bootsel_via_double_reset.c.obj

.uninitialized_data
                0x0000000020000c0c        0x0 load address 0x000000001000b028
                0x0000000020000c0c                . = ALIGN (0x4)
 *(.uninitialized_data*)

.scratch_x      0x0000000020040000        0x0 load address 0x000000001000b028
                0x0000000020040000                __scratch_x_start__ = .
 *(.scratch_x.*)
                0x0000000020040000                . = ALIGN (0x4)
                0x0000000020040000                __scratch_x_end__ = .
                0x000000001000b028                __scratch_x_source__ = LOADADDR (.scratch_x)

.scratch_y      0x0000000020041000        0x0 load address 0x000000001000b028
                0x0000000020041000                __scratch_y_start__ = .
 *(.scratch_y.*)
                0x0000000020041000                . = ALIGN (0x4)
                0x0000000020041000                __scratch_y_end__ = .
                0x000000001000b028                __scratch_y_source__ = LOADADDR (.scratch_y)

.bss            0x0000000020000c10     0x1518
                0x0000000020000c10                . = ALIGN (0x4)
                0x0000000020000c10                __bss_start__ = .
 *(SORT_BY_ALIGNMENT(SORT_BY_NAME(.bss*)))
 .bss.default_alarm_pool_entries
                0x0000000020000c10      0x100 CMakeFiles/tinyusb_host_cdc_msc_hid.dir/home/boemmelsebastian/pico/pico-sdk/src/common/pico_time/time.c.obj
 .bss           0x0000000020000d10       0x1c /usr/lib/gcc/arm-none-eabi/8.3.1/thumb/v6-m/nofp/crtbegin.o
 .bss           0x0000000020000d2c       0x34 /usr/lib/gcc/arm-none-eabi/8.3.1/../../../arm-none-eabi/lib/thumb/v6-m/nofp/libg.a(lib_a-mallocr.o)
                0x0000000020000d2c                __malloc_top_pad
                0x0000000020000d30                __malloc_current_mallinfo
                0x0000000020000d58                __malloc_max_sbrked_mem
                0x0000000020000d5c                __malloc_max_total_mem
 .bss._ctrl_xfer
                0x0000000020000d60       0x14 CMakeFiles/tinyusb_host_cdc_msc_hid.dir/home/boemmelsebastian/pico/pico-sdk/lib/tinyusb/src/host/usbh_control.c.obj
 .bss._dev0     0x0000000020000d74        0x5 CMakeFiles/tinyusb_host_cdc_msc_hid.dir/home/boemmelsebastian/pico/pico-sdk/lib/tinyusb/src/host/usbh.c.obj
 *fill*         0x0000000020000d79        0x3 
 .bss._hidh_dev
                0x0000000020000d7c      0x8c8 CMakeFiles/tinyusb_host_cdc_msc_hid.dir/home/boemmelsebastian/pico/pico-sdk/lib/tinyusb/src/class/hid/hid_host.c.obj
 .bss._hub_buffer
                0x0000000020001644        0x9 CMakeFiles/tinyusb_host_cdc_msc_hid.dir/home/boemmelsebastian/pico/pico-sdk/lib/tinyusb/src/host/hub.c.obj
 *fill*         0x000000002000164d        0x3 
 .bss._msch_buffer
                0x0000000020001650       0x24 CMakeFiles/tinyusb_host_cdc_msc_hid.dir/home/boemmelsebastian/pico/pico-sdk/lib/tinyusb/src/class/msc/msc_host.c.obj
 .bss._msch_itf
                0x0000000020001674      0x180 CMakeFiles/tinyusb_host_cdc_msc_hid.dir/home/boemmelsebastian/pico/pico-sdk/lib/tinyusb/src/class/msc/msc_host.c.obj
 .bss._usbh_ctrl_buf
                0x00000000200017f4      0x100 CMakeFiles/tinyusb_host_cdc_msc_hid.dir/home/boemmelsebastian/pico/pico-sdk/lib/tinyusb/src/host/usbh.c.obj
 .bss._usbh_q   0x00000000200018f4        0x4 CMakeFiles/tinyusb_host_cdc_msc_hid.dir/home/boemmelsebastian/pico/pico-sdk/lib/tinyusb/src/host/usbh.c.obj
 .bss.alarm_callbacks
                0x00000000200018f8       0x10 CMakeFiles/tinyusb_host_cdc_msc_hid.dir/home/boemmelsebastian/pico/pico-sdk/src/rp2_common/hardware_timer/timer.c.obj
 .bss.cdch_data
                0x0000000020001908       0x18 CMakeFiles/tinyusb_host_cdc_msc_hid.dir/home/boemmelsebastian/pico/pico-sdk/lib/tinyusb/src/class/cdc/cdc_host.c.obj
 .bss.claimed   0x0000000020001920        0x4 CMakeFiles/tinyusb_host_cdc_msc_hid.dir/home/boemmelsebastian/pico/pico-sdk/src/rp2_common/hardware_sync/sync.c.obj
 .bss.configured_freq
                0x0000000020001924       0x28 CMakeFiles/tinyusb_host_cdc_msc_hid.dir/home/boemmelsebastian/pico/pico-sdk/src/rp2_common/hardware_clocks/clocks.c.obj
 .bss.default_alarm_pool_entry_ids_high
                0x000000002000194c       0x10 CMakeFiles/tinyusb_host_cdc_msc_hid.dir/home/boemmelsebastian/pico/pico-sdk/src/common/pico_time/time.c.obj
 .bss.default_alarm_pool_heap_nodes
                0x000000002000195c       0x30 CMakeFiles/tinyusb_host_cdc_msc_hid.dir/home/boemmelsebastian/pico/pico-sdk/src/common/pico_time/time.c.obj
 .bss.drivers   0x000000002000198c        0x4 CMakeFiles/tinyusb_host_cdc_msc_hid.dir/home/boemmelsebastian/pico/pico-sdk/src/rp2_common/pico_stdio/stdio.c.obj
 .bss.ep_pool   0x0000000020001990      0x240 CMakeFiles/tinyusb_host_cdc_msc_hid.dir/home/boemmelsebastian/pico/pico-sdk/lib/tinyusb/src/portable/raspberrypi/rp2040/hcd_rp2040.c.obj
 .bss.filter    0x0000000020001bd0        0x4 CMakeFiles/tinyusb_host_cdc_msc_hid.dir/home/boemmelsebastian/pico/pico-sdk/src/rp2_common/pico_stdio/stdio.c.obj
 .bss.heap_end.5901
                0x0000000020001bd4        0x4 CMakeFiles/tinyusb_host_cdc_msc_hid.dir/home/boemmelsebastian/pico/pico-sdk/src/rp2_common/pico_runtime/runtime.c.obj
 .bss.hid_info  0x0000000020001bd8       0x48 CMakeFiles/tinyusb_host_cdc_msc_hid.dir/src/hid_app.c.obj
 .bss.hub_data  0x0000000020001c20        0x8 CMakeFiles/tinyusb_host_cdc_msc_hid.dir/home/boemmelsebastian/pico/pico-sdk/lib/tinyusb/src/host/hub.c.obj
 .bss.inquiry_resp
                0x0000000020001c28       0x24 CMakeFiles/tinyusb_host_cdc_msc_hid.dir/src/msc_app.c.obj
 .bss.pools     0x0000000020001c4c       0x10 CMakeFiles/tinyusb_host_cdc_msc_hid.dir/home/boemmelsebastian/pico/pico-sdk/src/common/pico_time/time.c.obj
 .bss.prev_report.7866
                0x0000000020001c5c        0x8 CMakeFiles/tinyusb_host_cdc_msc_hid.dir/src/hid_app.c.obj
 .bss.serial_in_buffer
                0x0000000020001c64       0x40 CMakeFiles/tinyusb_host_cdc_msc_hid.dir/src/main.c.obj
 .bss.sf_clz_func
                0x0000000020001ca4        0x4 CMakeFiles/tinyusb_host_cdc_msc_hid.dir/home/boemmelsebastian/pico/pico-sdk/src/rp2_common/pico_double/double_init_rom.c.obj
                0x0000000020001ca4                sf_clz_func
 .bss.sleep_notifier
                0x0000000020001ca8        0x4 CMakeFiles/tinyusb_host_cdc_msc_hid.dir/home/boemmelsebastian/pico/pico-sdk/src/common/pico_time/time.c.obj
 .bss.start_ms.8259
                0x0000000020001cac        0x4 CMakeFiles/tinyusb_host_cdc_msc_hid.dir/src/main.c.obj
 .bss.target_hi
                0x0000000020001cb0       0x10 CMakeFiles/tinyusb_host_cdc_msc_hid.dir/home/boemmelsebastian/pico/pico-sdk/src/rp2_common/hardware_timer/timer.c.obj
 .bss.uart_inst
                0x0000000020001cc0        0x4 CMakeFiles/tinyusb_host_cdc_msc_hid.dir/home/boemmelsebastian/pico/pico-sdk/lib/tinyusb/hw/bsp/rp2040/family.c.obj
 .bss.uart_instance
                0x0000000020001cc4        0x4 CMakeFiles/tinyusb_host_cdc_msc_hid.dir/home/boemmelsebastian/pico/pico-sdk/src/rp2_common/pico_stdio_uart/stdio_uart.c.obj
 .bss._usbh_initialized
                0x0000000020001cc8        0x1 CMakeFiles/tinyusb_host_cdc_msc_hid.dir/home/boemmelsebastian/pico/pico-sdk/lib/tinyusb/src/host/usbh.c.obj
 .bss.claimed   0x0000000020001cc9        0x1 CMakeFiles/tinyusb_host_cdc_msc_hid.dir/home/boemmelsebastian/pico/pico-sdk/src/rp2_common/hardware_timer/timer.c.obj
 .bss.irq_hander_chain_free_slot_head
                0x0000000020001cca        0x1 CMakeFiles/tinyusb_host_cdc_msc_hid.dir/home/boemmelsebastian/pico/pico-sdk/src/rp2_common/hardware_irq/irq.c.obj
 .bss.led_state.8260
                0x0000000020001ccb        0x1 CMakeFiles/tinyusb_host_cdc_msc_hid.dir/src/main.c.obj
 .bss.timer_callbacks_pending
                0x0000000020001ccc        0x1 CMakeFiles/tinyusb_host_cdc_msc_hid.dir/home/boemmelsebastian/pico/pico-sdk/src/rp2_common/hardware_timer/timer.c.obj
 *(COMMON)
 *fill*         0x0000000020001ccd        0x3 
 COMMON         0x0000000020001cd0        0x4 CMakeFiles/tinyusb_host_cdc_msc_hid.dir/home/boemmelsebastian/pico/pico-sdk/src/rp2_common/hardware_uart/uart.c.obj
                0x0000000020001cd0                uart_char_to_line_feed
 COMMON         0x0000000020001cd4      0x100 CMakeFiles/tinyusb_host_cdc_msc_hid.dir/home/boemmelsebastian/pico/pico-sdk/src/rp2_common/pico_double/double_init_rom.c.obj
                0x0000000020001cd4                sd_table
 COMMON         0x0000000020001dd4      0x100 CMakeFiles/tinyusb_host_cdc_msc_hid.dir/home/boemmelsebastian/pico/pico-sdk/src/rp2_common/pico_float/float_init_rom.c.obj
                0x0000000020001dd4                sf_table
 COMMON         0x0000000020001ed4      0x250 CMakeFiles/tinyusb_host_cdc_msc_hid.dir/home/boemmelsebastian/pico/pico-sdk/lib/tinyusb/src/host/usbh.c.obj
                0x0000000020001ed4                _usbh_qdef_buf
                0x0000000020001f94                _usbh_devices
 COMMON         0x0000000020002124        0x4 /usr/lib/gcc/arm-none-eabi/8.3.1/../../../arm-none-eabi/lib/thumb/v6-m/nofp/libg.a(lib_a-reent.o)
                0x0000000020002124                errno
                0x0000000020002128                . = ALIGN (0x4)
                0x0000000020002128                __bss_end__ = .

.heap           0x0000000020002128      0x800
                0x0000000020002128                __end__ = .
                0x0000000020002128                end = __end__
 *(.heap*)
 .heap          0x0000000020002128      0x800 CMakeFiles/tinyusb_host_cdc_msc_hid.dir/home/boemmelsebastian/pico/pico-sdk/src/rp2_common/pico_standard_link/crt0.S.obj
                0x0000000020002928                __HeapLimit = .

.stack1_dummy   0x0000000020040000        0x0
 *(.stack1*)

.stack_dummy    0x0000000020041000      0x800
 *(.stack*)
 .stack         0x0000000020041000      0x800 CMakeFiles/tinyusb_host_cdc_msc_hid.dir/home/boemmelsebastian/pico/pico-sdk/src/rp2_common/pico_standard_link/crt0.S.obj

.flash_end      0x000000001000b028        0x0
                0x000000001000b028                __flash_binary_end = .
                0x0000000020040000                __StackLimit = (ORIGIN (RAM) + LENGTH (RAM))
                0x0000000020041000                __StackOneTop = (ORIGIN (SCRATCH_X) + LENGTH (SCRATCH_X))
                0x0000000020042000                __StackTop = (ORIGIN (SCRATCH_Y) + LENGTH (SCRATCH_Y))
                0x0000000020041000                __StackOneBottom = (__StackOneTop - SIZEOF (.stack1_dummy))
                0x0000000020041800                __StackBottom = (__StackTop - SIZEOF (.stack_dummy))
                0x0000000020042000                PROVIDE (__stack = __StackTop)
                0x0000000000000001                ASSERT ((__StackLimit >= __HeapLimit), region RAM overflowed)
                0x0000000000000001                ASSERT (((__binary_info_header_end - __logical_binary_start) <= 0x100), Binary info must be in first 256 bytes of the binary)
LOAD CMakeFiles/tinyusb_host_cdc_msc_hid.dir/src/hid_app.c.obj
LOAD CMakeFiles/tinyusb_host_cdc_msc_hid.dir/src/main.c.obj
LOAD CMakeFiles/tinyusb_host_cdc_msc_hid.dir/src/msc_app.c.obj
LOAD CMakeFiles/tinyusb_host_cdc_msc_hid.dir/home/boemmelsebastian/pico/pico-sdk/src/rp2_common/pico_stdlib/stdlib.c.obj
LOAD CMakeFiles/tinyusb_host_cdc_msc_hid.dir/home/boemmelsebastian/pico/pico-sdk/src/rp2_common/hardware_gpio/gpio.c.obj
LOAD CMakeFiles/tinyusb_host_cdc_msc_hid.dir/home/boemmelsebastian/pico/pico-sdk/src/rp2_common/hardware_claim/claim.c.obj
LOAD CMakeFiles/tinyusb_host_cdc_msc_hid.dir/home/boemmelsebastian/pico/pico-sdk/src/rp2_common/pico_platform/platform.c.obj
LOAD CMakeFiles/tinyusb_host_cdc_msc_hid.dir/home/boemmelsebastian/pico/pico-sdk/src/rp2_common/hardware_sync/sync.c.obj
LOAD CMakeFiles/tinyusb_host_cdc_msc_hid.dir/home/boemmelsebastian/pico/pico-sdk/src/rp2_common/hardware_uart/uart.c.obj
LOAD CMakeFiles/tinyusb_host_cdc_msc_hid.dir/home/boemmelsebastian/pico/pico-sdk/src/rp2_common/hardware_divider/divider.S.obj
LOAD CMakeFiles/tinyusb_host_cdc_msc_hid.dir/home/boemmelsebastian/pico/pico-sdk/src/common/pico_time/time.c.obj
LOAD CMakeFiles/tinyusb_host_cdc_msc_hid.dir/home/boemmelsebastian/pico/pico-sdk/src/common/pico_time/timeout_helper.c.obj
LOAD CMakeFiles/tinyusb_host_cdc_msc_hid.dir/home/boemmelsebastian/pico/pico-sdk/src/rp2_common/hardware_timer/timer.c.obj
LOAD CMakeFiles/tinyusb_host_cdc_msc_hid.dir/home/boemmelsebastian/pico/pico-sdk/src/common/pico_sync/sem.c.obj
LOAD CMakeFiles/tinyusb_host_cdc_msc_hid.dir/home/boemmelsebastian/pico/pico-sdk/src/common/pico_sync/lock_core.c.obj
LOAD CMakeFiles/tinyusb_host_cdc_msc_hid.dir/home/boemmelsebastian/pico/pico-sdk/src/common/pico_sync/mutex.c.obj
LOAD CMakeFiles/tinyusb_host_cdc_msc_hid.dir/home/boemmelsebastian/pico/pico-sdk/src/common/pico_sync/critical_section.c.obj
LOAD CMakeFiles/tinyusb_host_cdc_msc_hid.dir/home/boemmelsebastian/pico/pico-sdk/src/common/pico_util/datetime.c.obj
LOAD CMakeFiles/tinyusb_host_cdc_msc_hid.dir/home/boemmelsebastian/pico/pico-sdk/src/common/pico_util/pheap.c.obj
LOAD CMakeFiles/tinyusb_host_cdc_msc_hid.dir/home/boemmelsebastian/pico/pico-sdk/src/common/pico_util/queue.c.obj
LOAD CMakeFiles/tinyusb_host_cdc_msc_hid.dir/home/boemmelsebastian/pico/pico-sdk/src/rp2_common/pico_runtime/runtime.c.obj
LOAD CMakeFiles/tinyusb_host_cdc_msc_hid.dir/home/boemmelsebastian/pico/pico-sdk/src/rp2_common/hardware_clocks/clocks.c.obj
LOAD CMakeFiles/tinyusb_host_cdc_msc_hid.dir/home/boemmelsebastian/pico/pico-sdk/src/rp2_common/hardware_irq/irq.c.obj
LOAD CMakeFiles/tinyusb_host_cdc_msc_hid.dir/home/boemmelsebastian/pico/pico-sdk/src/rp2_common/hardware_irq/irq_handler_chain.S.obj
LOAD CMakeFiles/tinyusb_host_cdc_msc_hid.dir/home/boemmelsebastian/pico/pico-sdk/src/rp2_common/hardware_pll/pll.c.obj
LOAD CMakeFiles/tinyusb_host_cdc_msc_hid.dir/home/boemmelsebastian/pico/pico-sdk/src/rp2_common/hardware_vreg/vreg.c.obj
LOAD CMakeFiles/tinyusb_host_cdc_msc_hid.dir/home/boemmelsebastian/pico/pico-sdk/src/rp2_common/hardware_watchdog/watchdog.c.obj
LOAD CMakeFiles/tinyusb_host_cdc_msc_hid.dir/home/boemmelsebastian/pico/pico-sdk/src/rp2_common/hardware_xosc/xosc.c.obj
LOAD CMakeFiles/tinyusb_host_cdc_msc_hid.dir/home/boemmelsebastian/pico/pico-sdk/src/rp2_common/pico_printf/printf.c.obj
LOAD CMakeFiles/tinyusb_host_cdc_msc_hid.dir/home/boemmelsebastian/pico/pico-sdk/src/rp2_common/pico_bit_ops/bit_ops_aeabi.S.obj
LOAD CMakeFiles/tinyusb_host_cdc_msc_hid.dir/home/boemmelsebastian/pico/pico-sdk/src/rp2_common/pico_bootrom/bootrom.c.obj
LOAD CMakeFiles/tinyusb_host_cdc_msc_hid.dir/home/boemmelsebastian/pico/pico-sdk/src/rp2_common/pico_divider/divider.S.obj
LOAD CMakeFiles/tinyusb_host_cdc_msc_hid.dir/home/boemmelsebastian/pico/pico-sdk/src/rp2_common/pico_double/double_aeabi.S.obj
LOAD CMakeFiles/tinyusb_host_cdc_msc_hid.dir/home/boemmelsebastian/pico/pico-sdk/src/rp2_common/pico_double/double_init_rom.c.obj
LOAD CMakeFiles/tinyusb_host_cdc_msc_hid.dir/home/boemmelsebastian/pico/pico-sdk/src/rp2_common/pico_double/double_math.c.obj
LOAD CMakeFiles/tinyusb_host_cdc_msc_hid.dir/home/boemmelsebastian/pico/pico-sdk/src/rp2_common/pico_double/double_v1_rom_shim.S.obj
LOAD CMakeFiles/tinyusb_host_cdc_msc_hid.dir/home/boemmelsebastian/pico/pico-sdk/src/rp2_common/pico_int64_ops/pico_int64_ops_aeabi.S.obj
LOAD CMakeFiles/tinyusb_host_cdc_msc_hid.dir/home/boemmelsebastian/pico/pico-sdk/src/rp2_common/pico_float/float_aeabi.S.obj
LOAD CMakeFiles/tinyusb_host_cdc_msc_hid.dir/home/boemmelsebastian/pico/pico-sdk/src/rp2_common/pico_float/float_init_rom.c.obj
LOAD CMakeFiles/tinyusb_host_cdc_msc_hid.dir/home/boemmelsebastian/pico/pico-sdk/src/rp2_common/pico_float/float_math.c.obj
LOAD CMakeFiles/tinyusb_host_cdc_msc_hid.dir/home/boemmelsebastian/pico/pico-sdk/src/rp2_common/pico_float/float_v1_rom_shim.S.obj
LOAD CMakeFiles/tinyusb_host_cdc_msc_hid.dir/home/boemmelsebastian/pico/pico-sdk/src/rp2_common/pico_malloc/pico_malloc.c.obj
LOAD CMakeFiles/tinyusb_host_cdc_msc_hid.dir/home/boemmelsebastian/pico/pico-sdk/src/rp2_common/pico_mem_ops/mem_ops_aeabi.S.obj
LOAD CMakeFiles/tinyusb_host_cdc_msc_hid.dir/home/boemmelsebastian/pico/pico-sdk/src/rp2_common/pico_standard_link/crt0.S.obj
LOAD CMakeFiles/tinyusb_host_cdc_msc_hid.dir/home/boemmelsebastian/pico/pico-sdk/src/rp2_common/pico_standard_link/new_delete.cpp.obj
LOAD CMakeFiles/tinyusb_host_cdc_msc_hid.dir/home/boemmelsebastian/pico/pico-sdk/src/rp2_common/pico_standard_link/binary_info.c.obj
LOAD CMakeFiles/tinyusb_host_cdc_msc_hid.dir/home/boemmelsebastian/pico/pico-sdk/src/rp2_common/pico_stdio/stdio.c.obj
LOAD CMakeFiles/tinyusb_host_cdc_msc_hid.dir/home/boemmelsebastian/pico/pico-sdk/src/rp2_common/pico_stdio_uart/stdio_uart.c.obj
LOAD CMakeFiles/tinyusb_host_cdc_msc_hid.dir/home/boemmelsebastian/pico/pico-sdk/src/rp2_common/pico_bootsel_via_double_reset/pico_bootsel_via_double_reset.c.obj
LOAD CMakeFiles/tinyusb_host_cdc_msc_hid.dir/home/boemmelsebastian/pico/pico-sdk/lib/tinyusb/hw/bsp/rp2040/family.c.obj
LOAD CMakeFiles/tinyusb_host_cdc_msc_hid.dir/home/boemmelsebastian/pico/pico-sdk/lib/tinyusb/src/portable/raspberrypi/rp2040/hcd_rp2040.c.obj
LOAD CMakeFiles/tinyusb_host_cdc_msc_hid.dir/home/boemmelsebastian/pico/pico-sdk/lib/tinyusb/src/portable/raspberrypi/rp2040/rp2040_usb.c.obj
LOAD CMakeFiles/tinyusb_host_cdc_msc_hid.dir/home/boemmelsebastian/pico/pico-sdk/lib/tinyusb/src/host/usbh.c.obj
LOAD CMakeFiles/tinyusb_host_cdc_msc_hid.dir/home/boemmelsebastian/pico/pico-sdk/lib/tinyusb/src/host/usbh_control.c.obj
LOAD CMakeFiles/tinyusb_host_cdc_msc_hid.dir/home/boemmelsebastian/pico/pico-sdk/lib/tinyusb/src/host/hub.c.obj
LOAD CMakeFiles/tinyusb_host_cdc_msc_hid.dir/home/boemmelsebastian/pico/pico-sdk/lib/tinyusb/src/class/cdc/cdc_host.c.obj
LOAD CMakeFiles/tinyusb_host_cdc_msc_hid.dir/home/boemmelsebastian/pico/pico-sdk/lib/tinyusb/src/class/hid/hid_host.c.obj
LOAD CMakeFiles/tinyusb_host_cdc_msc_hid.dir/home/boemmelsebastian/pico/pico-sdk/lib/tinyusb/src/class/msc/msc_host.c.obj
LOAD CMakeFiles/tinyusb_host_cdc_msc_hid.dir/home/boemmelsebastian/pico/pico-sdk/lib/tinyusb/src/class/vendor/vendor_host.c.obj
LOAD CMakeFiles/tinyusb_host_cdc_msc_hid.dir/home/boemmelsebastian/pico/pico-sdk/lib/tinyusb/src/tusb.c.obj
LOAD CMakeFiles/tinyusb_host_cdc_msc_hid.dir/home/boemmelsebastian/pico/pico-sdk/lib/tinyusb/src/common/tusb_fifo.c.obj
LOAD /tmp/ccjovMa2.o
LOAD /usr/lib/gcc/arm-none-eabi/8.3.1/../../../arm-none-eabi/lib/thumb/v6-m/nofp/libstdc++.a
LOAD /usr/lib/gcc/arm-none-eabi/8.3.1/../../../arm-none-eabi/lib/thumb/v6-m/nofp/libm.a
START GROUP
LOAD /usr/lib/gcc/arm-none-eabi/8.3.1/thumb/v6-m/nofp/libgcc.a
LOAD /usr/lib/gcc/arm-none-eabi/8.3.1/../../../arm-none-eabi/lib/thumb/v6-m/nofp/libg.a
LOAD /usr/lib/gcc/arm-none-eabi/8.3.1/../../../arm-none-eabi/lib/thumb/v6-m/nofp/libc.a
END GROUP
START GROUP
LOAD /usr/lib/gcc/arm-none-eabi/8.3.1/thumb/v6-m/nofp/libgcc.a
LOAD /usr/lib/gcc/arm-none-eabi/8.3.1/../../../arm-none-eabi/lib/thumb/v6-m/nofp/libc.a
LOAD /usr/lib/gcc/arm-none-eabi/8.3.1/../../../arm-none-eabi/lib/thumb/v6-m/nofp/libnosys.a
END GROUP
LOAD /usr/lib/gcc/arm-none-eabi/8.3.1/thumb/v6-m/nofp/crtend.o
LOAD /usr/lib/gcc/arm-none-eabi/8.3.1/thumb/v6-m/nofp/crtn.o
OUTPUT(tinyusb_host_cdc_msc_hid.elf elf32-littlearm)
LOAD linker stubs

.ARM.attributes
                0x0000000000000000       0x28
 .ARM.attributes
                0x0000000000000000       0x1e /usr/lib/gcc/arm-none-eabi/8.3.1/thumb/v6-m/nofp/crti.o
 .ARM.attributes
                0x000000000000001e       0x2c /usr/lib/gcc/arm-none-eabi/8.3.1/thumb/v6-m/nofp/crtbegin.o
 .ARM.attributes
                0x000000000000004a       0x2c CMakeFiles/tinyusb_host_cdc_msc_hid.dir/src/hid_app.c.obj
 .ARM.attributes
                0x0000000000000076       0x2c CMakeFiles/tinyusb_host_cdc_msc_hid.dir/src/main.c.obj
 .ARM.attributes
                0x00000000000000a2       0x2c CMakeFiles/tinyusb_host_cdc_msc_hid.dir/src/msc_app.c.obj
 .ARM.attributes
                0x00000000000000ce       0x2c CMakeFiles/tinyusb_host_cdc_msc_hid.dir/home/boemmelsebastian/pico/pico-sdk/src/rp2_common/hardware_gpio/gpio.c.obj
 .ARM.attributes
                0x00000000000000fa       0x2c CMakeFiles/tinyusb_host_cdc_msc_hid.dir/home/boemmelsebastian/pico/pico-sdk/src/rp2_common/hardware_claim/claim.c.obj
 .ARM.attributes
                0x0000000000000126       0x2c CMakeFiles/tinyusb_host_cdc_msc_hid.dir/home/boemmelsebastian/pico/pico-sdk/src/rp2_common/pico_platform/platform.c.obj
 .ARM.attributes
                0x0000000000000152       0x2c CMakeFiles/tinyusb_host_cdc_msc_hid.dir/home/boemmelsebastian/pico/pico-sdk/src/rp2_common/hardware_sync/sync.c.obj
 .ARM.attributes
                0x000000000000017e       0x2c CMakeFiles/tinyusb_host_cdc_msc_hid.dir/home/boemmelsebastian/pico/pico-sdk/src/rp2_common/hardware_uart/uart.c.obj
 .ARM.attributes
                0x00000000000001aa       0x2c CMakeFiles/tinyusb_host_cdc_msc_hid.dir/home/boemmelsebastian/pico/pico-sdk/src/common/pico_time/time.c.obj
 .ARM.attributes
                0x00000000000001d6       0x2c CMakeFiles/tinyusb_host_cdc_msc_hid.dir/home/boemmelsebastian/pico/pico-sdk/src/rp2_common/hardware_timer/timer.c.obj
 .ARM.attributes
                0x0000000000000202       0x2c CMakeFiles/tinyusb_host_cdc_msc_hid.dir/home/boemmelsebastian/pico/pico-sdk/src/common/pico_sync/lock_core.c.obj
 .ARM.attributes
                0x000000000000022e       0x2c CMakeFiles/tinyusb_host_cdc_msc_hid.dir/home/boemmelsebastian/pico/pico-sdk/src/common/pico_sync/mutex.c.obj
 .ARM.attributes
                0x000000000000025a       0x2c CMakeFiles/tinyusb_host_cdc_msc_hid.dir/home/boemmelsebastian/pico/pico-sdk/src/common/pico_sync/critical_section.c.obj
 .ARM.attributes
                0x0000000000000286       0x2c CMakeFiles/tinyusb_host_cdc_msc_hid.dir/home/boemmelsebastian/pico/pico-sdk/src/common/pico_util/pheap.c.obj
 .ARM.attributes
                0x00000000000002b2       0x2c CMakeFiles/tinyusb_host_cdc_msc_hid.dir/home/boemmelsebastian/pico/pico-sdk/src/rp2_common/pico_runtime/runtime.c.obj
 .ARM.attributes
                0x00000000000002de       0x2c CMakeFiles/tinyusb_host_cdc_msc_hid.dir/home/boemmelsebastian/pico/pico-sdk/src/rp2_common/hardware_clocks/clocks.c.obj
 .ARM.attributes
                0x000000000000030a       0x2c CMakeFiles/tinyusb_host_cdc_msc_hid.dir/home/boemmelsebastian/pico/pico-sdk/src/rp2_common/hardware_irq/irq.c.obj
 .ARM.attributes
                0x0000000000000336       0x22 CMakeFiles/tinyusb_host_cdc_msc_hid.dir/home/boemmelsebastian/pico/pico-sdk/src/rp2_common/hardware_irq/irq_handler_chain.S.obj
 .ARM.attributes
                0x0000000000000358       0x2c CMakeFiles/tinyusb_host_cdc_msc_hid.dir/home/boemmelsebastian/pico/pico-sdk/src/rp2_common/hardware_pll/pll.c.obj
 .ARM.attributes
                0x0000000000000384       0x2c CMakeFiles/tinyusb_host_cdc_msc_hid.dir/home/boemmelsebastian/pico/pico-sdk/src/rp2_common/hardware_watchdog/watchdog.c.obj
 .ARM.attributes
                0x00000000000003b0       0x2c CMakeFiles/tinyusb_host_cdc_msc_hid.dir/home/boemmelsebastian/pico/pico-sdk/src/rp2_common/hardware_xosc/xosc.c.obj
 .ARM.attributes
                0x00000000000003dc       0x2c CMakeFiles/tinyusb_host_cdc_msc_hid.dir/home/boemmelsebastian/pico/pico-sdk/src/rp2_common/pico_printf/printf.c.obj
 .ARM.attributes
                0x0000000000000408       0x22 CMakeFiles/tinyusb_host_cdc_msc_hid.dir/home/boemmelsebastian/pico/pico-sdk/src/rp2_common/pico_bit_ops/bit_ops_aeabi.S.obj
 .ARM.attributes
                0x000000000000042a       0x2c CMakeFiles/tinyusb_host_cdc_msc_hid.dir/home/boemmelsebastian/pico/pico-sdk/src/rp2_common/pico_bootrom/bootrom.c.obj
 .ARM.attributes
                0x0000000000000456       0x22 CMakeFiles/tinyusb_host_cdc_msc_hid.dir/home/boemmelsebastian/pico/pico-sdk/src/rp2_common/pico_divider/divider.S.obj
 .ARM.attributes
                0x0000000000000478       0x22 CMakeFiles/tinyusb_host_cdc_msc_hid.dir/home/boemmelsebastian/pico/pico-sdk/src/rp2_common/pico_double/double_aeabi.S.obj
 .ARM.attributes
                0x000000000000049a       0x2c CMakeFiles/tinyusb_host_cdc_msc_hid.dir/home/boemmelsebastian/pico/pico-sdk/src/rp2_common/pico_double/double_init_rom.c.obj
 .ARM.attributes
                0x00000000000004c6       0x22 CMakeFiles/tinyusb_host_cdc_msc_hid.dir/home/boemmelsebastian/pico/pico-sdk/src/rp2_common/pico_double/double_v1_rom_shim.S.obj
 .ARM.attributes
                0x00000000000004e8       0x22 CMakeFiles/tinyusb_host_cdc_msc_hid.dir/home/boemmelsebastian/pico/pico-sdk/src/rp2_common/pico_int64_ops/pico_int64_ops_aeabi.S.obj
 .ARM.attributes
                0x000000000000050a       0x22 CMakeFiles/tinyusb_host_cdc_msc_hid.dir/home/boemmelsebastian/pico/pico-sdk/src/rp2_common/pico_float/float_aeabi.S.obj
 .ARM.attributes
                0x000000000000052c       0x2c CMakeFiles/tinyusb_host_cdc_msc_hid.dir/home/boemmelsebastian/pico/pico-sdk/src/rp2_common/pico_float/float_init_rom.c.obj
 .ARM.attributes
                0x0000000000000558       0x22 CMakeFiles/tinyusb_host_cdc_msc_hid.dir/home/boemmelsebastian/pico/pico-sdk/src/rp2_common/pico_float/float_v1_rom_shim.S.obj
 .ARM.attributes
                0x000000000000057a       0x22 CMakeFiles/tinyusb_host_cdc_msc_hid.dir/home/boemmelsebastian/pico/pico-sdk/src/rp2_common/pico_mem_ops/mem_ops_aeabi.S.obj
 .ARM.attributes
                0x000000000000059c       0x22 CMakeFiles/tinyusb_host_cdc_msc_hid.dir/home/boemmelsebastian/pico/pico-sdk/src/rp2_common/pico_standard_link/crt0.S.obj
 .ARM.attributes
                0x00000000000005be       0x32 CMakeFiles/tinyusb_host_cdc_msc_hid.dir/home/boemmelsebastian/pico/pico-sdk/src/rp2_common/pico_standard_link/binary_info.c.obj
 .ARM.attributes
                0x00000000000005f0       0x2c CMakeFiles/tinyusb_host_cdc_msc_hid.dir/home/boemmelsebastian/pico/pico-sdk/src/rp2_common/pico_stdio/stdio.c.obj
 .ARM.attributes
                0x000000000000061c       0x2c CMakeFiles/tinyusb_host_cdc_msc_hid.dir/home/boemmelsebastian/pico/pico-sdk/src/rp2_common/pico_stdio_uart/stdio_uart.c.obj
 .ARM.attributes
                0x0000000000000648       0x2c CMakeFiles/tinyusb_host_cdc_msc_hid.dir/home/boemmelsebastian/pico/pico-sdk/src/rp2_common/pico_bootsel_via_double_reset/pico_bootsel_via_double_reset.c.obj
 .ARM.attributes
                0x0000000000000674       0x2c CMakeFiles/tinyusb_host_cdc_msc_hid.dir/home/boemmelsebastian/pico/pico-sdk/lib/tinyusb/hw/bsp/rp2040/family.c.obj
 .ARM.attributes
                0x00000000000006a0       0x2c CMakeFiles/tinyusb_host_cdc_msc_hid.dir/home/boemmelsebastian/pico/pico-sdk/lib/tinyusb/src/portable/raspberrypi/rp2040/hcd_rp2040.c.obj
 .ARM.attributes
                0x00000000000006cc       0x2c CMakeFiles/tinyusb_host_cdc_msc_hid.dir/home/boemmelsebastian/pico/pico-sdk/lib/tinyusb/src/portable/raspberrypi/rp2040/rp2040_usb.c.obj
 .ARM.attributes
                0x00000000000006f8       0x2c CMakeFiles/tinyusb_host_cdc_msc_hid.dir/home/boemmelsebastian/pico/pico-sdk/lib/tinyusb/src/host/usbh.c.obj
 .ARM.attributes
                0x0000000000000724       0x2c CMakeFiles/tinyusb_host_cdc_msc_hid.dir/home/boemmelsebastian/pico/pico-sdk/lib/tinyusb/src/host/usbh_control.c.obj
 .ARM.attributes
                0x0000000000000750       0x2c CMakeFiles/tinyusb_host_cdc_msc_hid.dir/home/boemmelsebastian/pico/pico-sdk/lib/tinyusb/src/host/hub.c.obj
 .ARM.attributes
                0x000000000000077c       0x2c CMakeFiles/tinyusb_host_cdc_msc_hid.dir/home/boemmelsebastian/pico/pico-sdk/lib/tinyusb/src/class/cdc/cdc_host.c.obj
 .ARM.attributes
                0x00000000000007a8       0x2c CMakeFiles/tinyusb_host_cdc_msc_hid.dir/home/boemmelsebastian/pico/pico-sdk/lib/tinyusb/src/class/hid/hid_host.c.obj
 .ARM.attributes
                0x00000000000007d4       0x2c CMakeFiles/tinyusb_host_cdc_msc_hid.dir/home/boemmelsebastian/pico/pico-sdk/lib/tinyusb/src/class/msc/msc_host.c.obj
 .ARM.attributes
                0x0000000000000800       0x2c CMakeFiles/tinyusb_host_cdc_msc_hid.dir/home/boemmelsebastian/pico/pico-sdk/lib/tinyusb/src/tusb.c.obj
 .ARM.attributes
                0x000000000000082c       0x2c CMakeFiles/tinyusb_host_cdc_msc_hid.dir/home/boemmelsebastian/pico/pico-sdk/lib/tinyusb/src/common/tusb_fifo.c.obj
 .ARM.attributes
                0x0000000000000858       0x22 /tmp/ccjovMa2.o
 .ARM.attributes
                0x000000000000087a       0x1e /usr/lib/gcc/arm-none-eabi/8.3.1/thumb/v6-m/nofp/libgcc.a(_dvmd_tls.o)
 .ARM.attributes
                0x0000000000000898       0x2c /usr/lib/gcc/arm-none-eabi/8.3.1/../../../arm-none-eabi/lib/thumb/v6-m/nofp/libg.a(lib_a-fflush.o)
 .ARM.attributes
                0x00000000000008c4       0x2c /usr/lib/gcc/arm-none-eabi/8.3.1/../../../arm-none-eabi/lib/thumb/v6-m/nofp/libg.a(lib_a-findfp.o)
 .ARM.attributes
                0x00000000000008f0       0x2c /usr/lib/gcc/arm-none-eabi/8.3.1/../../../arm-none-eabi/lib/thumb/v6-m/nofp/libg.a(lib_a-freer.o)
 .ARM.attributes
                0x000000000000091c       0x2c /usr/lib/gcc/arm-none-eabi/8.3.1/../../../arm-none-eabi/lib/thumb/v6-m/nofp/libg.a(lib_a-fwalk.o)
 .ARM.attributes
                0x0000000000000948       0x2c /usr/lib/gcc/arm-none-eabi/8.3.1/../../../arm-none-eabi/lib/thumb/v6-m/nofp/libg.a(lib_a-impure.o)
 .ARM.attributes
                0x0000000000000974       0x2c /usr/lib/gcc/arm-none-eabi/8.3.1/../../../arm-none-eabi/lib/thumb/v6-m/nofp/libg.a(lib_a-mallocr.o)
 .ARM.attributes
                0x00000000000009a0       0x2c /usr/lib/gcc/arm-none-eabi/8.3.1/../../../arm-none-eabi/lib/thumb/v6-m/nofp/libg.a(lib_a-mlock.o)
 .ARM.attributes
                0x00000000000009cc       0x2c /usr/lib/gcc/arm-none-eabi/8.3.1/../../../arm-none-eabi/lib/thumb/v6-m/nofp/libg.a(lib_a-sbrkr.o)
 .ARM.attributes
                0x00000000000009f8       0x2c /usr/lib/gcc/arm-none-eabi/8.3.1/../../../arm-none-eabi/lib/thumb/v6-m/nofp/libg.a(lib_a-stdio.o)
 .ARM.attributes
                0x0000000000000a24       0x2c /usr/lib/gcc/arm-none-eabi/8.3.1/../../../arm-none-eabi/lib/thumb/v6-m/nofp/libg.a(lib_a-strlen-stub.o)
 .ARM.attributes
                0x0000000000000a50       0x2c /usr/lib/gcc/arm-none-eabi/8.3.1/../../../arm-none-eabi/lib/thumb/v6-m/nofp/libg.a(lib_a-writer.o)
 .ARM.attributes
                0x0000000000000a7c       0x2c /usr/lib/gcc/arm-none-eabi/8.3.1/../../../arm-none-eabi/lib/thumb/v6-m/nofp/libg.a(lib_a-closer.o)
 .ARM.attributes
                0x0000000000000aa8       0x2c /usr/lib/gcc/arm-none-eabi/8.3.1/../../../arm-none-eabi/lib/thumb/v6-m/nofp/libg.a(lib_a-fclose.o)
 .ARM.attributes
                0x0000000000000ad4       0x2c /usr/lib/gcc/arm-none-eabi/8.3.1/../../../arm-none-eabi/lib/thumb/v6-m/nofp/libg.a(lib_a-lseekr.o)
 .ARM.attributes
                0x0000000000000b00       0x2c /usr/lib/gcc/arm-none-eabi/8.3.1/../../../arm-none-eabi/lib/thumb/v6-m/nofp/libg.a(lib_a-readr.o)
 .ARM.attributes
                0x0000000000000b2c       0x2c /usr/lib/gcc/arm-none-eabi/8.3.1/../../../arm-none-eabi/lib/thumb/v6-m/nofp/libg.a(lib_a-reent.o)
 .ARM.attributes
                0x0000000000000b58       0x2c /usr/lib/gcc/arm-none-eabi/8.3.1/../../../arm-none-eabi/lib/thumb/v6-m/nofp/libnosys.a(close.o)
 .ARM.attributes
                0x0000000000000b84       0x2c /usr/lib/gcc/arm-none-eabi/8.3.1/../../../arm-none-eabi/lib/thumb/v6-m/nofp/libnosys.a(lseek.o)
 .ARM.attributes
                0x0000000000000bb0       0x2c /usr/lib/gcc/arm-none-eabi/8.3.1/thumb/v6-m/nofp/crtend.o

.comment        0x0000000000000000       0x9f
 .comment       0x0000000000000000       0x51 /usr/lib/gcc/arm-none-eabi/8.3.1/thumb/v6-m/nofp/crtbegin.o
                                         0x52 (size before relaxing)
 .comment       0x0000000000000051       0x52 CMakeFiles/tinyusb_host_cdc_msc_hid.dir/src/hid_app.c.obj
 .comment       0x0000000000000051       0x52 CMakeFiles/tinyusb_host_cdc_msc_hid.dir/src/main.c.obj
 .comment       0x0000000000000051       0x52 CMakeFiles/tinyusb_host_cdc_msc_hid.dir/src/msc_app.c.obj
 .comment       0x0000000000000051       0x52 CMakeFiles/tinyusb_host_cdc_msc_hid.dir/home/boemmelsebastian/pico/pico-sdk/src/rp2_common/hardware_gpio/gpio.c.obj
 .comment       0x0000000000000051       0x52 CMakeFiles/tinyusb_host_cdc_msc_hid.dir/home/boemmelsebastian/pico/pico-sdk/src/rp2_common/hardware_claim/claim.c.obj
 .comment       0x0000000000000051       0x52 CMakeFiles/tinyusb_host_cdc_msc_hid.dir/home/boemmelsebastian/pico/pico-sdk/src/rp2_common/pico_platform/platform.c.obj
 .comment       0x0000000000000051       0x52 CMakeFiles/tinyusb_host_cdc_msc_hid.dir/home/boemmelsebastian/pico/pico-sdk/src/rp2_common/hardware_sync/sync.c.obj
 .comment       0x0000000000000051       0x52 CMakeFiles/tinyusb_host_cdc_msc_hid.dir/home/boemmelsebastian/pico/pico-sdk/src/rp2_common/hardware_uart/uart.c.obj
 .comment       0x0000000000000051       0x52 CMakeFiles/tinyusb_host_cdc_msc_hid.dir/home/boemmelsebastian/pico/pico-sdk/src/common/pico_time/time.c.obj
 .comment       0x0000000000000051       0x52 CMakeFiles/tinyusb_host_cdc_msc_hid.dir/home/boemmelsebastian/pico/pico-sdk/src/rp2_common/hardware_timer/timer.c.obj
 .comment       0x0000000000000051       0x52 CMakeFiles/tinyusb_host_cdc_msc_hid.dir/home/boemmelsebastian/pico/pico-sdk/src/common/pico_sync/lock_core.c.obj
 .comment       0x0000000000000051       0x52 CMakeFiles/tinyusb_host_cdc_msc_hid.dir/home/boemmelsebastian/pico/pico-sdk/src/common/pico_sync/mutex.c.obj
 .comment       0x0000000000000051       0x52 CMakeFiles/tinyusb_host_cdc_msc_hid.dir/home/boemmelsebastian/pico/pico-sdk/src/common/pico_sync/critical_section.c.obj
 .comment       0x0000000000000051       0x52 CMakeFiles/tinyusb_host_cdc_msc_hid.dir/home/boemmelsebastian/pico/pico-sdk/src/common/pico_util/pheap.c.obj
 .comment       0x0000000000000051       0x52 CMakeFiles/tinyusb_host_cdc_msc_hid.dir/home/boemmelsebastian/pico/pico-sdk/src/rp2_common/pico_runtime/runtime.c.obj
 .comment       0x0000000000000051       0x52 CMakeFiles/tinyusb_host_cdc_msc_hid.dir/home/boemmelsebastian/pico/pico-sdk/src/rp2_common/hardware_clocks/clocks.c.obj
 .comment       0x0000000000000051       0x52 CMakeFiles/tinyusb_host_cdc_msc_hid.dir/home/boemmelsebastian/pico/pico-sdk/src/rp2_common/hardware_irq/irq.c.obj
 .comment       0x0000000000000051       0x52 CMakeFiles/tinyusb_host_cdc_msc_hid.dir/home/boemmelsebastian/pico/pico-sdk/src/rp2_common/hardware_pll/pll.c.obj
 .comment       0x0000000000000051       0x52 CMakeFiles/tinyusb_host_cdc_msc_hid.dir/home/boemmelsebastian/pico/pico-sdk/src/rp2_common/hardware_watchdog/watchdog.c.obj
 .comment       0x0000000000000051       0x52 CMakeFiles/tinyusb_host_cdc_msc_hid.dir/home/boemmelsebastian/pico/pico-sdk/src/rp2_common/hardware_xosc/xosc.c.obj
 .comment       0x0000000000000051       0x52 CMakeFiles/tinyusb_host_cdc_msc_hid.dir/home/boemmelsebastian/pico/pico-sdk/src/rp2_common/pico_printf/printf.c.obj
 .comment       0x0000000000000051       0x52 CMakeFiles/tinyusb_host_cdc_msc_hid.dir/home/boemmelsebastian/pico/pico-sdk/src/rp2_common/pico_bootrom/bootrom.c.obj
 .comment       0x0000000000000051       0x52 CMakeFiles/tinyusb_host_cdc_msc_hid.dir/home/boemmelsebastian/pico/pico-sdk/src/rp2_common/pico_double/double_init_rom.c.obj
 .comment       0x0000000000000051       0x52 CMakeFiles/tinyusb_host_cdc_msc_hid.dir/home/boemmelsebastian/pico/pico-sdk/src/rp2_common/pico_float/float_init_rom.c.obj
 .comment       0x0000000000000051       0x52 CMakeFiles/tinyusb_host_cdc_msc_hid.dir/home/boemmelsebastian/pico/pico-sdk/src/rp2_common/pico_standard_link/binary_info.c.obj
 .comment       0x0000000000000051       0x52 CMakeFiles/tinyusb_host_cdc_msc_hid.dir/home/boemmelsebastian/pico/pico-sdk/src/rp2_common/pico_stdio/stdio.c.obj
 .comment       0x0000000000000051       0x52 CMakeFiles/tinyusb_host_cdc_msc_hid.dir/home/boemmelsebastian/pico/pico-sdk/src/rp2_common/pico_stdio_uart/stdio_uart.c.obj
 .comment       0x0000000000000051       0x52 CMakeFiles/tinyusb_host_cdc_msc_hid.dir/home/boemmelsebastian/pico/pico-sdk/src/rp2_common/pico_bootsel_via_double_reset/pico_bootsel_via_double_reset.c.obj
 .comment       0x0000000000000051       0x52 CMakeFiles/tinyusb_host_cdc_msc_hid.dir/home/boemmelsebastian/pico/pico-sdk/lib/tinyusb/hw/bsp/rp2040/family.c.obj
 .comment       0x0000000000000051       0x52 CMakeFiles/tinyusb_host_cdc_msc_hid.dir/home/boemmelsebastian/pico/pico-sdk/lib/tinyusb/src/portable/raspberrypi/rp2040/hcd_rp2040.c.obj
 .comment       0x0000000000000051       0x52 CMakeFiles/tinyusb_host_cdc_msc_hid.dir/home/boemmelsebastian/pico/pico-sdk/lib/tinyusb/src/portable/raspberrypi/rp2040/rp2040_usb.c.obj
 .comment       0x0000000000000051       0x52 CMakeFiles/tinyusb_host_cdc_msc_hid.dir/home/boemmelsebastian/pico/pico-sdk/lib/tinyusb/src/host/usbh.c.obj
 .comment       0x0000000000000051       0x52 CMakeFiles/tinyusb_host_cdc_msc_hid.dir/home/boemmelsebastian/pico/pico-sdk/lib/tinyusb/src/host/usbh_control.c.obj
 .comment       0x0000000000000051       0x52 CMakeFiles/tinyusb_host_cdc_msc_hid.dir/home/boemmelsebastian/pico/pico-sdk/lib/tinyusb/src/host/hub.c.obj
 .comment       0x0000000000000051       0x52 CMakeFiles/tinyusb_host_cdc_msc_hid.dir/home/boemmelsebastian/pico/pico-sdk/lib/tinyusb/src/class/cdc/cdc_host.c.obj
 .comment       0x0000000000000051       0x52 CMakeFiles/tinyusb_host_cdc_msc_hid.dir/home/boemmelsebastian/pico/pico-sdk/lib/tinyusb/src/class/hid/hid_host.c.obj
 .comment       0x0000000000000051       0x52 CMakeFiles/tinyusb_host_cdc_msc_hid.dir/home/boemmelsebastian/pico/pico-sdk/lib/tinyusb/src/class/msc/msc_host.c.obj
 .comment       0x0000000000000051       0x52 CMakeFiles/tinyusb_host_cdc_msc_hid.dir/home/boemmelsebastian/pico/pico-sdk/lib/tinyusb/src/tusb.c.obj
 .comment       0x0000000000000051       0x52 CMakeFiles/tinyusb_host_cdc_msc_hid.dir/home/boemmelsebastian/pico/pico-sdk/lib/tinyusb/src/common/tusb_fifo.c.obj
 .comment       0x0000000000000051       0x4e /usr/lib/gcc/arm-none-eabi/8.3.1/../../../arm-none-eabi/lib/thumb/v6-m/nofp/libg.a(lib_a-fflush.o)
                                         0x4f (size before relaxing)
 .comment       0x000000000000009f       0x4f /usr/lib/gcc/arm-none-eabi/8.3.1/../../../arm-none-eabi/lib/thumb/v6-m/nofp/libg.a(lib_a-findfp.o)
 .comment       0x000000000000009f       0x4f /usr/lib/gcc/arm-none-eabi/8.3.1/../../../arm-none-eabi/lib/thumb/v6-m/nofp/libg.a(lib_a-freer.o)
 .comment       0x000000000000009f       0x4f /usr/lib/gcc/arm-none-eabi/8.3.1/../../../arm-none-eabi/lib/thumb/v6-m/nofp/libg.a(lib_a-fwalk.o)
 .comment       0x000000000000009f       0x4f /usr/lib/gcc/arm-none-eabi/8.3.1/../../../arm-none-eabi/lib/thumb/v6-m/nofp/libg.a(lib_a-impure.o)
 .comment       0x000000000000009f       0x4f /usr/lib/gcc/arm-none-eabi/8.3.1/../../../arm-none-eabi/lib/thumb/v6-m/nofp/libg.a(lib_a-mallocr.o)
 .comment       0x000000000000009f       0x4f /usr/lib/gcc/arm-none-eabi/8.3.1/../../../arm-none-eabi/lib/thumb/v6-m/nofp/libg.a(lib_a-mlock.o)
 .comment       0x000000000000009f       0x4f /usr/lib/gcc/arm-none-eabi/8.3.1/../../../arm-none-eabi/lib/thumb/v6-m/nofp/libg.a(lib_a-sbrkr.o)
 .comment       0x000000000000009f       0x4f /usr/lib/gcc/arm-none-eabi/8.3.1/../../../arm-none-eabi/lib/thumb/v6-m/nofp/libg.a(lib_a-stdio.o)
 .comment       0x000000000000009f       0x4f /usr/lib/gcc/arm-none-eabi/8.3.1/../../../arm-none-eabi/lib/thumb/v6-m/nofp/libg.a(lib_a-strlen-stub.o)
 .comment       0x000000000000009f       0x4f /usr/lib/gcc/arm-none-eabi/8.3.1/../../../arm-none-eabi/lib/thumb/v6-m/nofp/libg.a(lib_a-writer.o)
 .comment       0x000000000000009f       0x4f /usr/lib/gcc/arm-none-eabi/8.3.1/../../../arm-none-eabi/lib/thumb/v6-m/nofp/libg.a(lib_a-closer.o)
 .comment       0x000000000000009f       0x4f /usr/lib/gcc/arm-none-eabi/8.3.1/../../../arm-none-eabi/lib/thumb/v6-m/nofp/libg.a(lib_a-fclose.o)
 .comment       0x000000000000009f       0x4f /usr/lib/gcc/arm-none-eabi/8.3.1/../../../arm-none-eabi/lib/thumb/v6-m/nofp/libg.a(lib_a-lseekr.o)
 .comment       0x000000000000009f       0x4f /usr/lib/gcc/arm-none-eabi/8.3.1/../../../arm-none-eabi/lib/thumb/v6-m/nofp/libg.a(lib_a-readr.o)
 .comment       0x000000000000009f       0x4f /usr/lib/gcc/arm-none-eabi/8.3.1/../../../arm-none-eabi/lib/thumb/v6-m/nofp/libg.a(lib_a-reent.o)
 .comment       0x000000000000009f       0x4f /usr/lib/gcc/arm-none-eabi/8.3.1/../../../arm-none-eabi/lib/thumb/v6-m/nofp/libnosys.a(close.o)
 .comment       0x000000000000009f       0x4f /usr/lib/gcc/arm-none-eabi/8.3.1/../../../arm-none-eabi/lib/thumb/v6-m/nofp/libnosys.a(lseek.o)
 .comment       0x000000000000009f       0x52 /usr/lib/gcc/arm-none-eabi/8.3.1/thumb/v6-m/nofp/crtend.o

.debug_info     0x0000000000000000    0x405f0
 .debug_info    0x0000000000000000     0x1519 CMakeFiles/tinyusb_host_cdc_msc_hid.dir/src/hid_app.c.obj
 .debug_info    0x0000000000001519      0xf33 CMakeFiles/tinyusb_host_cdc_msc_hid.dir/src/main.c.obj
 .debug_info    0x000000000000244c      0xe8b CMakeFiles/tinyusb_host_cdc_msc_hid.dir/src/msc_app.c.obj
 .debug_info    0x00000000000032d7     0x14ac CMakeFiles/tinyusb_host_cdc_msc_hid.dir/home/boemmelsebastian/pico/pico-sdk/src/rp2_common/hardware_gpio/gpio.c.obj
 .debug_info    0x0000000000004783      0x6a7 CMakeFiles/tinyusb_host_cdc_msc_hid.dir/home/boemmelsebastian/pico/pico-sdk/src/rp2_common/hardware_claim/claim.c.obj
 .debug_info    0x0000000000004e2a      0x1cb CMakeFiles/tinyusb_host_cdc_msc_hid.dir/home/boemmelsebastian/pico/pico-sdk/src/rp2_common/pico_platform/platform.c.obj
 .debug_info    0x0000000000004ff5      0x591 CMakeFiles/tinyusb_host_cdc_msc_hid.dir/home/boemmelsebastian/pico/pico-sdk/src/rp2_common/hardware_sync/sync.c.obj
 .debug_info    0x0000000000005586      0xb37 CMakeFiles/tinyusb_host_cdc_msc_hid.dir/home/boemmelsebastian/pico/pico-sdk/src/rp2_common/hardware_uart/uart.c.obj
 .debug_info    0x00000000000060bd     0x43ec CMakeFiles/tinyusb_host_cdc_msc_hid.dir/home/boemmelsebastian/pico/pico-sdk/src/common/pico_time/time.c.obj
 .debug_info    0x000000000000a4a9     0x10dc CMakeFiles/tinyusb_host_cdc_msc_hid.dir/home/boemmelsebastian/pico/pico-sdk/src/rp2_common/hardware_timer/timer.c.obj
 .debug_info    0x000000000000b585      0x1ed CMakeFiles/tinyusb_host_cdc_msc_hid.dir/home/boemmelsebastian/pico/pico-sdk/src/common/pico_sync/lock_core.c.obj
 .debug_info    0x000000000000b772     0x2045 CMakeFiles/tinyusb_host_cdc_msc_hid.dir/home/boemmelsebastian/pico/pico-sdk/src/common/pico_sync/mutex.c.obj
 .debug_info    0x000000000000d7b7      0x323 CMakeFiles/tinyusb_host_cdc_msc_hid.dir/home/boemmelsebastian/pico/pico-sdk/src/common/pico_sync/critical_section.c.obj
 .debug_info    0x000000000000dada     0x1aab CMakeFiles/tinyusb_host_cdc_msc_hid.dir/home/boemmelsebastian/pico/pico-sdk/src/common/pico_util/pheap.c.obj
 .debug_info    0x000000000000f585     0x1341 CMakeFiles/tinyusb_host_cdc_msc_hid.dir/home/boemmelsebastian/pico/pico-sdk/src/rp2_common/pico_runtime/runtime.c.obj
 .debug_info    0x00000000000108c6      0xee6 CMakeFiles/tinyusb_host_cdc_msc_hid.dir/home/boemmelsebastian/pico/pico-sdk/src/rp2_common/hardware_clocks/clocks.c.obj
 .debug_info    0x00000000000117ac     0x199b CMakeFiles/tinyusb_host_cdc_msc_hid.dir/home/boemmelsebastian/pico/pico-sdk/src/rp2_common/hardware_irq/irq.c.obj
 .debug_info    0x0000000000013147       0x26 CMakeFiles/tinyusb_host_cdc_msc_hid.dir/home/boemmelsebastian/pico/pico-sdk/src/rp2_common/hardware_irq/irq_handler_chain.S.obj
 .debug_info    0x000000000001316d      0x4e8 CMakeFiles/tinyusb_host_cdc_msc_hid.dir/home/boemmelsebastian/pico/pico-sdk/src/rp2_common/hardware_pll/pll.c.obj
 .debug_info    0x0000000000013655      0xd7d CMakeFiles/tinyusb_host_cdc_msc_hid.dir/home/boemmelsebastian/pico/pico-sdk/src/rp2_common/hardware_watchdog/watchdog.c.obj
 .debug_info    0x00000000000143d2      0x1b8 CMakeFiles/tinyusb_host_cdc_msc_hid.dir/home/boemmelsebastian/pico/pico-sdk/src/rp2_common/hardware_xosc/xosc.c.obj
 .debug_info    0x000000000001458a     0x2032 CMakeFiles/tinyusb_host_cdc_msc_hid.dir/home/boemmelsebastian/pico/pico-sdk/src/rp2_common/pico_printf/printf.c.obj
 .debug_info    0x00000000000165bc       0x22 CMakeFiles/tinyusb_host_cdc_msc_hid.dir/home/boemmelsebastian/pico/pico-sdk/src/rp2_common/pico_bit_ops/bit_ops_aeabi.S.obj
 .debug_info    0x00000000000165de      0x262 CMakeFiles/tinyusb_host_cdc_msc_hid.dir/home/boemmelsebastian/pico/pico-sdk/src/rp2_common/pico_bootrom/bootrom.c.obj
 .debug_info    0x0000000000016840       0x22 CMakeFiles/tinyusb_host_cdc_msc_hid.dir/home/boemmelsebastian/pico/pico-sdk/src/rp2_common/pico_divider/divider.S.obj
 .debug_info    0x0000000000016862       0x22 CMakeFiles/tinyusb_host_cdc_msc_hid.dir/home/boemmelsebastian/pico/pico-sdk/src/rp2_common/pico_double/double_aeabi.S.obj
 .debug_info    0x0000000000016884      0xb2a CMakeFiles/tinyusb_host_cdc_msc_hid.dir/home/boemmelsebastian/pico/pico-sdk/src/rp2_common/pico_double/double_init_rom.c.obj
 .debug_info    0x00000000000173ae       0x22 CMakeFiles/tinyusb_host_cdc_msc_hid.dir/home/boemmelsebastian/pico/pico-sdk/src/rp2_common/pico_double/double_v1_rom_shim.S.obj
 .debug_info    0x00000000000173d0       0x26 CMakeFiles/tinyusb_host_cdc_msc_hid.dir/home/boemmelsebastian/pico/pico-sdk/src/rp2_common/pico_int64_ops/pico_int64_ops_aeabi.S.obj
 .debug_info    0x00000000000173f6       0x22 CMakeFiles/tinyusb_host_cdc_msc_hid.dir/home/boemmelsebastian/pico/pico-sdk/src/rp2_common/pico_float/float_aeabi.S.obj
 .debug_info    0x0000000000017418      0xb44 CMakeFiles/tinyusb_host_cdc_msc_hid.dir/home/boemmelsebastian/pico/pico-sdk/src/rp2_common/pico_float/float_init_rom.c.obj
 .debug_info    0x0000000000017f5c       0x22 CMakeFiles/tinyusb_host_cdc_msc_hid.dir/home/boemmelsebastian/pico/pico-sdk/src/rp2_common/pico_float/float_v1_rom_shim.S.obj
 .debug_info    0x0000000000017f7e       0x22 CMakeFiles/tinyusb_host_cdc_msc_hid.dir/home/boemmelsebastian/pico/pico-sdk/src/rp2_common/pico_mem_ops/mem_ops_aeabi.S.obj
 .debug_info    0x0000000000017fa0       0x22 CMakeFiles/tinyusb_host_cdc_msc_hid.dir/home/boemmelsebastian/pico/pico-sdk/src/rp2_common/pico_standard_link/crt0.S.obj
 .debug_info    0x0000000000017fc2      0x2c6 CMakeFiles/tinyusb_host_cdc_msc_hid.dir/home/boemmelsebastian/pico/pico-sdk/src/rp2_common/pico_standard_link/binary_info.c.obj
 .debug_info    0x0000000000018288     0x1b63 CMakeFiles/tinyusb_host_cdc_msc_hid.dir/home/boemmelsebastian/pico/pico-sdk/src/rp2_common/pico_stdio/stdio.c.obj
 .debug_info    0x0000000000019deb      0xc14 CMakeFiles/tinyusb_host_cdc_msc_hid.dir/home/boemmelsebastian/pico/pico-sdk/src/rp2_common/pico_stdio_uart/stdio_uart.c.obj
 .debug_info    0x000000000001a9ff      0x304 CMakeFiles/tinyusb_host_cdc_msc_hid.dir/home/boemmelsebastian/pico/pico-sdk/src/rp2_common/pico_bootsel_via_double_reset/pico_bootsel_via_double_reset.c.obj
 .debug_info    0x000000000001ad03     0x1a49 CMakeFiles/tinyusb_host_cdc_msc_hid.dir/home/boemmelsebastian/pico/pico-sdk/lib/tinyusb/hw/bsp/rp2040/family.c.obj
 .debug_info    0x000000000001c74c     0x2228 CMakeFiles/tinyusb_host_cdc_msc_hid.dir/home/boemmelsebastian/pico/pico-sdk/lib/tinyusb/src/portable/raspberrypi/rp2040/hcd_rp2040.c.obj
 .debug_info    0x000000000001e974     0x166a CMakeFiles/tinyusb_host_cdc_msc_hid.dir/home/boemmelsebastian/pico/pico-sdk/lib/tinyusb/src/portable/raspberrypi/rp2040/rp2040_usb.c.obj
 .debug_info    0x000000000001ffde     0x49fc CMakeFiles/tinyusb_host_cdc_msc_hid.dir/home/boemmelsebastian/pico/pico-sdk/lib/tinyusb/src/host/usbh.c.obj
 .debug_info    0x00000000000249da      0xf00 CMakeFiles/tinyusb_host_cdc_msc_hid.dir/home/boemmelsebastian/pico/pico-sdk/lib/tinyusb/src/host/usbh_control.c.obj
 .debug_info    0x00000000000258da     0x2222 CMakeFiles/tinyusb_host_cdc_msc_hid.dir/home/boemmelsebastian/pico/pico-sdk/lib/tinyusb/src/host/hub.c.obj
 .debug_info    0x0000000000027afc     0x1d8c CMakeFiles/tinyusb_host_cdc_msc_hid.dir/home/boemmelsebastian/pico/pico-sdk/lib/tinyusb/src/class/cdc/cdc_host.c.obj
 .debug_info    0x0000000000029888     0x2b33 CMakeFiles/tinyusb_host_cdc_msc_hid.dir/home/boemmelsebastian/pico/pico-sdk/lib/tinyusb/src/class/hid/hid_host.c.obj
 .debug_info    0x000000000002c3bb     0x2a41 CMakeFiles/tinyusb_host_cdc_msc_hid.dir/home/boemmelsebastian/pico/pico-sdk/lib/tinyusb/src/class/msc/msc_host.c.obj
 .debug_info    0x000000000002edfc     0x1589 CMakeFiles/tinyusb_host_cdc_msc_hid.dir/home/boemmelsebastian/pico/pico-sdk/lib/tinyusb/src/tusb.c.obj
 .debug_info    0x0000000000030385     0x32eb CMakeFiles/tinyusb_host_cdc_msc_hid.dir/home/boemmelsebastian/pico/pico-sdk/lib/tinyusb/src/common/tusb_fifo.c.obj
 .debug_info    0x0000000000033670       0x26 /usr/lib/gcc/arm-none-eabi/8.3.1/thumb/v6-m/nofp/libgcc.a(_dvmd_tls.o)
 .debug_info    0x0000000000033696      0xd85 /usr/lib/gcc/arm-none-eabi/8.3.1/../../../arm-none-eabi/lib/thumb/v6-m/nofp/libg.a(lib_a-fflush.o)
 .debug_info    0x000000000003441b     0x114b /usr/lib/gcc/arm-none-eabi/8.3.1/../../../arm-none-eabi/lib/thumb/v6-m/nofp/libg.a(lib_a-findfp.o)
 .debug_info    0x0000000000035566      0xd99 /usr/lib/gcc/arm-none-eabi/8.3.1/../../../arm-none-eabi/lib/thumb/v6-m/nofp/libg.a(lib_a-freer.o)
 .debug_info    0x00000000000362ff      0xca4 /usr/lib/gcc/arm-none-eabi/8.3.1/../../../arm-none-eabi/lib/thumb/v6-m/nofp/libg.a(lib_a-fwalk.o)
 .debug_info    0x0000000000036fa3      0x92a /usr/lib/gcc/arm-none-eabi/8.3.1/../../../arm-none-eabi/lib/thumb/v6-m/nofp/libg.a(lib_a-impure.o)
 .debug_info    0x00000000000378cd      0xf1a /usr/lib/gcc/arm-none-eabi/8.3.1/../../../arm-none-eabi/lib/thumb/v6-m/nofp/libg.a(lib_a-mallocr.o)
 .debug_info    0x00000000000387e7      0x961 /usr/lib/gcc/arm-none-eabi/8.3.1/../../../arm-none-eabi/lib/thumb/v6-m/nofp/libg.a(lib_a-mlock.o)
 .debug_info    0x0000000000039148      0x9fb /usr/lib/gcc/arm-none-eabi/8.3.1/../../../arm-none-eabi/lib/thumb/v6-m/nofp/libg.a(lib_a-sbrkr.o)
 .debug_info    0x0000000000039b43      0xe6c /usr/lib/gcc/arm-none-eabi/8.3.1/../../../arm-none-eabi/lib/thumb/v6-m/nofp/libg.a(lib_a-stdio.o)
 .debug_info    0x000000000003a9af      0x973 /usr/lib/gcc/arm-none-eabi/8.3.1/../../../arm-none-eabi/lib/thumb/v6-m/nofp/libg.a(lib_a-strlen-stub.o)
 .debug_info    0x000000000003b322      0xa2d /usr/lib/gcc/arm-none-eabi/8.3.1/../../../arm-none-eabi/lib/thumb/v6-m/nofp/libg.a(lib_a-writer.o)
 .debug_info    0x000000000003bd4f      0x9d8 /usr/lib/gcc/arm-none-eabi/8.3.1/../../../arm-none-eabi/lib/thumb/v6-m/nofp/libg.a(lib_a-closer.o)
 .debug_info    0x000000000003c727      0xcd5 /usr/lib/gcc/arm-none-eabi/8.3.1/../../../arm-none-eabi/lib/thumb/v6-m/nofp/libg.a(lib_a-fclose.o)
 .debug_info    0x000000000003d3fc      0xa0e /usr/lib/gcc/arm-none-eabi/8.3.1/../../../arm-none-eabi/lib/thumb/v6-m/nofp/libg.a(lib_a-lseekr.o)
 .debug_info    0x000000000003de0a      0xa26 /usr/lib/gcc/arm-none-eabi/8.3.1/../../../arm-none-eabi/lib/thumb/v6-m/nofp/libg.a(lib_a-readr.o)
 .debug_info    0x000000000003e830      0xac2 /usr/lib/gcc/arm-none-eabi/8.3.1/../../../arm-none-eabi/lib/thumb/v6-m/nofp/libg.a(lib_a-reent.o)
 .debug_info    0x000000000003f2f2      0x96e /usr/lib/gcc/arm-none-eabi/8.3.1/../../../arm-none-eabi/lib/thumb/v6-m/nofp/libnosys.a(close.o)
 .debug_info    0x000000000003fc60      0x990 /usr/lib/gcc/arm-none-eabi/8.3.1/../../../arm-none-eabi/lib/thumb/v6-m/nofp/libnosys.a(lseek.o)

.debug_abbrev   0x0000000000000000     0xb41e
 .debug_abbrev  0x0000000000000000      0x395 CMakeFiles/tinyusb_host_cdc_msc_hid.dir/src/hid_app.c.obj
 .debug_abbrev  0x0000000000000395      0x3ae CMakeFiles/tinyusb_host_cdc_msc_hid.dir/src/main.c.obj
 .debug_abbrev  0x0000000000000743      0x2c8 CMakeFiles/tinyusb_host_cdc_msc_hid.dir/src/msc_app.c.obj
 .debug_abbrev  0x0000000000000a0b      0x2cd CMakeFiles/tinyusb_host_cdc_msc_hid.dir/home/boemmelsebastian/pico/pico-sdk/src/rp2_common/hardware_gpio/gpio.c.obj
 .debug_abbrev  0x0000000000000cd8      0x2fb CMakeFiles/tinyusb_host_cdc_msc_hid.dir/home/boemmelsebastian/pico/pico-sdk/src/rp2_common/hardware_claim/claim.c.obj
 .debug_abbrev  0x0000000000000fd3       0xeb CMakeFiles/tinyusb_host_cdc_msc_hid.dir/home/boemmelsebastian/pico/pico-sdk/src/rp2_common/pico_platform/platform.c.obj
 .debug_abbrev  0x00000000000010be      0x224 CMakeFiles/tinyusb_host_cdc_msc_hid.dir/home/boemmelsebastian/pico/pico-sdk/src/rp2_common/hardware_sync/sync.c.obj
 .debug_abbrev  0x00000000000012e2      0x2e1 CMakeFiles/tinyusb_host_cdc_msc_hid.dir/home/boemmelsebastian/pico/pico-sdk/src/rp2_common/hardware_uart/uart.c.obj
 .debug_abbrev  0x00000000000015c3      0x63a CMakeFiles/tinyusb_host_cdc_msc_hid.dir/home/boemmelsebastian/pico/pico-sdk/src/common/pico_time/time.c.obj
 .debug_abbrev  0x0000000000001bfd      0x3c7 CMakeFiles/tinyusb_host_cdc_msc_hid.dir/home/boemmelsebastian/pico/pico-sdk/src/rp2_common/hardware_timer/timer.c.obj
 .debug_abbrev  0x0000000000001fc4      0x141 CMakeFiles/tinyusb_host_cdc_msc_hid.dir/home/boemmelsebastian/pico/pico-sdk/src/common/pico_sync/lock_core.c.obj
 .debug_abbrev  0x0000000000002105      0x3a2 CMakeFiles/tinyusb_host_cdc_msc_hid.dir/home/boemmelsebastian/pico/pico-sdk/src/common/pico_sync/mutex.c.obj
 .debug_abbrev  0x00000000000024a7      0x1d5 CMakeFiles/tinyusb_host_cdc_msc_hid.dir/home/boemmelsebastian/pico/pico-sdk/src/common/pico_sync/critical_section.c.obj
 .debug_abbrev  0x000000000000267c      0x3ad CMakeFiles/tinyusb_host_cdc_msc_hid.dir/home/boemmelsebastian/pico/pico-sdk/src/common/pico_util/pheap.c.obj
 .debug_abbrev  0x0000000000002a29      0x4aa CMakeFiles/tinyusb_host_cdc_msc_hid.dir/home/boemmelsebastian/pico/pico-sdk/src/rp2_common/pico_runtime/runtime.c.obj
 .debug_abbrev  0x0000000000002ed3      0x3c8 CMakeFiles/tinyusb_host_cdc_msc_hid.dir/home/boemmelsebastian/pico/pico-sdk/src/rp2_common/hardware_clocks/clocks.c.obj
 .debug_abbrev  0x000000000000329b      0x4e5 CMakeFiles/tinyusb_host_cdc_msc_hid.dir/home/boemmelsebastian/pico/pico-sdk/src/rp2_common/hardware_irq/irq.c.obj
 .debug_abbrev  0x0000000000003780       0x14 CMakeFiles/tinyusb_host_cdc_msc_hid.dir/home/boemmelsebastian/pico/pico-sdk/src/rp2_common/hardware_irq/irq_handler_chain.S.obj
 .debug_abbrev  0x0000000000003794      0x1ee CMakeFiles/tinyusb_host_cdc_msc_hid.dir/home/boemmelsebastian/pico/pico-sdk/src/rp2_common/hardware_pll/pll.c.obj
 .debug_abbrev  0x0000000000003982      0x2d8 CMakeFiles/tinyusb_host_cdc_msc_hid.dir/home/boemmelsebastian/pico/pico-sdk/src/rp2_common/hardware_watchdog/watchdog.c.obj
 .debug_abbrev  0x0000000000003c5a      0x106 CMakeFiles/tinyusb_host_cdc_msc_hid.dir/home/boemmelsebastian/pico/pico-sdk/src/rp2_common/hardware_xosc/xosc.c.obj
 .debug_abbrev  0x0000000000003d60      0x4aa CMakeFiles/tinyusb_host_cdc_msc_hid.dir/home/boemmelsebastian/pico/pico-sdk/src/rp2_common/pico_printf/printf.c.obj
 .debug_abbrev  0x000000000000420a       0x12 CMakeFiles/tinyusb_host_cdc_msc_hid.dir/home/boemmelsebastian/pico/pico-sdk/src/rp2_common/pico_bit_ops/bit_ops_aeabi.S.obj
 .debug_abbrev  0x000000000000421c      0x144 CMakeFiles/tinyusb_host_cdc_msc_hid.dir/home/boemmelsebastian/pico/pico-sdk/src/rp2_common/pico_bootrom/bootrom.c.obj
 .debug_abbrev  0x0000000000004360       0x12 CMakeFiles/tinyusb_host_cdc_msc_hid.dir/home/boemmelsebastian/pico/pico-sdk/src/rp2_common/pico_divider/divider.S.obj
 .debug_abbrev  0x0000000000004372       0x12 CMakeFiles/tinyusb_host_cdc_msc_hid.dir/home/boemmelsebastian/pico/pico-sdk/src/rp2_common/pico_double/double_aeabi.S.obj
 .debug_abbrev  0x0000000000004384      0x2c2 CMakeFiles/tinyusb_host_cdc_msc_hid.dir/home/boemmelsebastian/pico/pico-sdk/src/rp2_common/pico_double/double_init_rom.c.obj
 .debug_abbrev  0x0000000000004646       0x12 CMakeFiles/tinyusb_host_cdc_msc_hid.dir/home/boemmelsebastian/pico/pico-sdk/src/rp2_common/pico_double/double_v1_rom_shim.S.obj
 .debug_abbrev  0x0000000000004658       0x14 CMakeFiles/tinyusb_host_cdc_msc_hid.dir/home/boemmelsebastian/pico/pico-sdk/src/rp2_common/pico_int64_ops/pico_int64_ops_aeabi.S.obj
 .debug_abbrev  0x000000000000466c       0x12 CMakeFiles/tinyusb_host_cdc_msc_hid.dir/home/boemmelsebastian/pico/pico-sdk/src/rp2_common/pico_float/float_aeabi.S.obj
 .debug_abbrev  0x000000000000467e      0x2d5 CMakeFiles/tinyusb_host_cdc_msc_hid.dir/home/boemmelsebastian/pico/pico-sdk/src/rp2_common/pico_float/float_init_rom.c.obj
 .debug_abbrev  0x0000000000004953       0x12 CMakeFiles/tinyusb_host_cdc_msc_hid.dir/home/boemmelsebastian/pico/pico-sdk/src/rp2_common/pico_float/float_v1_rom_shim.S.obj
 .debug_abbrev  0x0000000000004965       0x12 CMakeFiles/tinyusb_host_cdc_msc_hid.dir/home/boemmelsebastian/pico/pico-sdk/src/rp2_common/pico_mem_ops/mem_ops_aeabi.S.obj
 .debug_abbrev  0x0000000000004977       0x12 CMakeFiles/tinyusb_host_cdc_msc_hid.dir/home/boemmelsebastian/pico/pico-sdk/src/rp2_common/pico_standard_link/crt0.S.obj
 .debug_abbrev  0x0000000000004989       0xad CMakeFiles/tinyusb_host_cdc_msc_hid.dir/home/boemmelsebastian/pico/pico-sdk/src/rp2_common/pico_standard_link/binary_info.c.obj
 .debug_abbrev  0x0000000000004a36      0x583 CMakeFiles/tinyusb_host_cdc_msc_hid.dir/home/boemmelsebastian/pico/pico-sdk/src/rp2_common/pico_stdio/stdio.c.obj
 .debug_abbrev  0x0000000000004fb9      0x3af CMakeFiles/tinyusb_host_cdc_msc_hid.dir/home/boemmelsebastian/pico/pico-sdk/src/rp2_common/pico_stdio_uart/stdio_uart.c.obj
 .debug_abbrev  0x0000000000005368      0x1c8 CMakeFiles/tinyusb_host_cdc_msc_hid.dir/home/boemmelsebastian/pico/pico-sdk/src/rp2_common/pico_bootsel_via_double_reset/pico_bootsel_via_double_reset.c.obj
 .debug_abbrev  0x0000000000005530      0x502 CMakeFiles/tinyusb_host_cdc_msc_hid.dir/home/boemmelsebastian/pico/pico-sdk/lib/tinyusb/hw/bsp/rp2040/family.c.obj
 .debug_abbrev  0x0000000000005a32      0x508 CMakeFiles/tinyusb_host_cdc_msc_hid.dir/home/boemmelsebastian/pico/pico-sdk/lib/tinyusb/src/portable/raspberrypi/rp2040/hcd_rp2040.c.obj
 .debug_abbrev  0x0000000000005f3a      0x449 CMakeFiles/tinyusb_host_cdc_msc_hid.dir/home/boemmelsebastian/pico/pico-sdk/lib/tinyusb/src/portable/raspberrypi/rp2040/rp2040_usb.c.obj
 .debug_abbrev  0x0000000000006383      0x636 CMakeFiles/tinyusb_host_cdc_msc_hid.dir/home/boemmelsebastian/pico/pico-sdk/lib/tinyusb/src/host/usbh.c.obj
 .debug_abbrev  0x00000000000069b9      0x33e CMakeFiles/tinyusb_host_cdc_msc_hid.dir/home/boemmelsebastian/pico/pico-sdk/lib/tinyusb/src/host/usbh_control.c.obj
 .debug_abbrev  0x0000000000006cf7      0x464 CMakeFiles/tinyusb_host_cdc_msc_hid.dir/home/boemmelsebastian/pico/pico-sdk/lib/tinyusb/src/host/hub.c.obj
 .debug_abbrev  0x000000000000715b      0x3b8 CMakeFiles/tinyusb_host_cdc_msc_hid.dir/home/boemmelsebastian/pico/pico-sdk/lib/tinyusb/src/class/cdc/cdc_host.c.obj
 .debug_abbrev  0x0000000000007513      0x52e CMakeFiles/tinyusb_host_cdc_msc_hid.dir/home/boemmelsebastian/pico/pico-sdk/lib/tinyusb/src/class/hid/hid_host.c.obj
 .debug_abbrev  0x0000000000007a41      0x4f4 CMakeFiles/tinyusb_host_cdc_msc_hid.dir/home/boemmelsebastian/pico/pico-sdk/lib/tinyusb/src/class/msc/msc_host.c.obj
 .debug_abbrev  0x0000000000007f35      0x3d5 CMakeFiles/tinyusb_host_cdc_msc_hid.dir/home/boemmelsebastian/pico/pico-sdk/lib/tinyusb/src/tusb.c.obj
 .debug_abbrev  0x000000000000830a      0x4d7 CMakeFiles/tinyusb_host_cdc_msc_hid.dir/home/boemmelsebastian/pico/pico-sdk/lib/tinyusb/src/common/tusb_fifo.c.obj
 .debug_abbrev  0x00000000000087e1       0x14 /usr/lib/gcc/arm-none-eabi/8.3.1/thumb/v6-m/nofp/libgcc.a(_dvmd_tls.o)
 .debug_abbrev  0x00000000000087f5      0x302 /usr/lib/gcc/arm-none-eabi/8.3.1/../../../arm-none-eabi/lib/thumb/v6-m/nofp/libg.a(lib_a-fflush.o)
 .debug_abbrev  0x0000000000008af7      0x414 /usr/lib/gcc/arm-none-eabi/8.3.1/../../../arm-none-eabi/lib/thumb/v6-m/nofp/libg.a(lib_a-findfp.o)
 .debug_abbrev  0x0000000000008f0b      0x2b9 /usr/lib/gcc/arm-none-eabi/8.3.1/../../../arm-none-eabi/lib/thumb/v6-m/nofp/libg.a(lib_a-freer.o)
 .debug_abbrev  0x00000000000091c4      0x24e /usr/lib/gcc/arm-none-eabi/8.3.1/../../../arm-none-eabi/lib/thumb/v6-m/nofp/libg.a(lib_a-fwalk.o)
 .debug_abbrev  0x0000000000009412      0x1b8 /usr/lib/gcc/arm-none-eabi/8.3.1/../../../arm-none-eabi/lib/thumb/v6-m/nofp/libg.a(lib_a-impure.o)
 .debug_abbrev  0x00000000000095ca      0x321 /usr/lib/gcc/arm-none-eabi/8.3.1/../../../arm-none-eabi/lib/thumb/v6-m/nofp/libg.a(lib_a-mallocr.o)
 .debug_abbrev  0x00000000000098eb      0x203 /usr/lib/gcc/arm-none-eabi/8.3.1/../../../arm-none-eabi/lib/thumb/v6-m/nofp/libg.a(lib_a-mlock.o)
 .debug_abbrev  0x0000000000009aee      0x250 /usr/lib/gcc/arm-none-eabi/8.3.1/../../../arm-none-eabi/lib/thumb/v6-m/nofp/libg.a(lib_a-sbrkr.o)
 .debug_abbrev  0x0000000000009d3e      0x28d /usr/lib/gcc/arm-none-eabi/8.3.1/../../../arm-none-eabi/lib/thumb/v6-m/nofp/libg.a(lib_a-stdio.o)
 .debug_abbrev  0x0000000000009fcb      0x1e8 /usr/lib/gcc/arm-none-eabi/8.3.1/../../../arm-none-eabi/lib/thumb/v6-m/nofp/libg.a(lib_a-strlen-stub.o)
 .debug_abbrev  0x000000000000a1b3      0x22a /usr/lib/gcc/arm-none-eabi/8.3.1/../../../arm-none-eabi/lib/thumb/v6-m/nofp/libg.a(lib_a-writer.o)
 .debug_abbrev  0x000000000000a3dd      0x225 /usr/lib/gcc/arm-none-eabi/8.3.1/../../../arm-none-eabi/lib/thumb/v6-m/nofp/libg.a(lib_a-closer.o)
 .debug_abbrev  0x000000000000a602      0x319 /usr/lib/gcc/arm-none-eabi/8.3.1/../../../arm-none-eabi/lib/thumb/v6-m/nofp/libg.a(lib_a-fclose.o)
 .debug_abbrev  0x000000000000a91b      0x239 /usr/lib/gcc/arm-none-eabi/8.3.1/../../../arm-none-eabi/lib/thumb/v6-m/nofp/libg.a(lib_a-lseekr.o)
 .debug_abbrev  0x000000000000ab54      0x225 /usr/lib/gcc/arm-none-eabi/8.3.1/../../../arm-none-eabi/lib/thumb/v6-m/nofp/libg.a(lib_a-readr.o)
 .debug_abbrev  0x000000000000ad79      0x2ac /usr/lib/gcc/arm-none-eabi/8.3.1/../../../arm-none-eabi/lib/thumb/v6-m/nofp/libg.a(lib_a-reent.o)
 .debug_abbrev  0x000000000000b025      0x1ea /usr/lib/gcc/arm-none-eabi/8.3.1/../../../arm-none-eabi/lib/thumb/v6-m/nofp/libnosys.a(close.o)
 .debug_abbrev  0x000000000000b20f      0x20f /usr/lib/gcc/arm-none-eabi/8.3.1/../../../arm-none-eabi/lib/thumb/v6-m/nofp/libnosys.a(lseek.o)

.debug_loc      0x0000000000000000    0x1c476
 .debug_loc     0x0000000000000000      0x58b CMakeFiles/tinyusb_host_cdc_msc_hid.dir/src/hid_app.c.obj
 .debug_loc     0x000000000000058b      0x18e CMakeFiles/tinyusb_host_cdc_msc_hid.dir/src/main.c.obj
 .debug_loc     0x0000000000000719      0x16b CMakeFiles/tinyusb_host_cdc_msc_hid.dir/src/msc_app.c.obj
 .debug_loc     0x0000000000000884      0xed6 CMakeFiles/tinyusb_host_cdc_msc_hid.dir/home/boemmelsebastian/pico/pico-sdk/src/rp2_common/hardware_gpio/gpio.c.obj
 .debug_loc     0x000000000000175a      0x43d CMakeFiles/tinyusb_host_cdc_msc_hid.dir/home/boemmelsebastian/pico/pico-sdk/src/rp2_common/hardware_claim/claim.c.obj
 .debug_loc     0x0000000000001b97       0xe9 CMakeFiles/tinyusb_host_cdc_msc_hid.dir/home/boemmelsebastian/pico/pico-sdk/src/rp2_common/pico_platform/platform.c.obj
 .debug_loc     0x0000000000001c80      0x233 CMakeFiles/tinyusb_host_cdc_msc_hid.dir/home/boemmelsebastian/pico/pico-sdk/src/rp2_common/hardware_sync/sync.c.obj
 .debug_loc     0x0000000000001eb3      0x520 CMakeFiles/tinyusb_host_cdc_msc_hid.dir/home/boemmelsebastian/pico/pico-sdk/src/rp2_common/hardware_uart/uart.c.obj
 .debug_loc     0x00000000000023d3     0x2e3d CMakeFiles/tinyusb_host_cdc_msc_hid.dir/home/boemmelsebastian/pico/pico-sdk/src/common/pico_time/time.c.obj
 .debug_loc     0x0000000000005210      0x903 CMakeFiles/tinyusb_host_cdc_msc_hid.dir/home/boemmelsebastian/pico/pico-sdk/src/rp2_common/hardware_timer/timer.c.obj
 .debug_loc     0x0000000000005b13       0x60 CMakeFiles/tinyusb_host_cdc_msc_hid.dir/home/boemmelsebastian/pico/pico-sdk/src/common/pico_sync/lock_core.c.obj
 .debug_loc     0x0000000000005b73     0x1472 CMakeFiles/tinyusb_host_cdc_msc_hid.dir/home/boemmelsebastian/pico/pico-sdk/src/common/pico_sync/mutex.c.obj
 .debug_loc     0x0000000000006fe5       0xda CMakeFiles/tinyusb_host_cdc_msc_hid.dir/home/boemmelsebastian/pico/pico-sdk/src/common/pico_sync/critical_section.c.obj
 .debug_loc     0x00000000000070bf     0x14b2 CMakeFiles/tinyusb_host_cdc_msc_hid.dir/home/boemmelsebastian/pico/pico-sdk/src/common/pico_util/pheap.c.obj
 .debug_loc     0x0000000000008571      0x37d CMakeFiles/tinyusb_host_cdc_msc_hid.dir/home/boemmelsebastian/pico/pico-sdk/src/rp2_common/pico_runtime/runtime.c.obj
 .debug_loc     0x00000000000088ee      0x768 CMakeFiles/tinyusb_host_cdc_msc_hid.dir/home/boemmelsebastian/pico/pico-sdk/src/rp2_common/hardware_clocks/clocks.c.obj
 .debug_loc     0x0000000000009056     0x12d0 CMakeFiles/tinyusb_host_cdc_msc_hid.dir/home/boemmelsebastian/pico/pico-sdk/src/rp2_common/hardware_irq/irq.c.obj
 .debug_loc     0x000000000000a326      0x2f8 CMakeFiles/tinyusb_host_cdc_msc_hid.dir/home/boemmelsebastian/pico/pico-sdk/src/rp2_common/hardware_pll/pll.c.obj
 .debug_loc     0x000000000000a61e      0x2a0 CMakeFiles/tinyusb_host_cdc_msc_hid.dir/home/boemmelsebastian/pico/pico-sdk/src/rp2_common/hardware_watchdog/watchdog.c.obj
 .debug_loc     0x000000000000a8be       0x3d CMakeFiles/tinyusb_host_cdc_msc_hid.dir/home/boemmelsebastian/pico/pico-sdk/src/rp2_common/hardware_xosc/xosc.c.obj
 .debug_loc     0x000000000000a8fb     0x1fee CMakeFiles/tinyusb_host_cdc_msc_hid.dir/home/boemmelsebastian/pico/pico-sdk/src/rp2_common/pico_printf/printf.c.obj
 .debug_loc     0x000000000000c8e9      0x1a1 CMakeFiles/tinyusb_host_cdc_msc_hid.dir/home/boemmelsebastian/pico/pico-sdk/src/rp2_common/pico_bootrom/bootrom.c.obj
 .debug_loc     0x000000000000ca8a       0x59 CMakeFiles/tinyusb_host_cdc_msc_hid.dir/home/boemmelsebastian/pico/pico-sdk/src/rp2_common/pico_double/double_init_rom.c.obj
 .debug_loc     0x000000000000cae3       0x73 CMakeFiles/tinyusb_host_cdc_msc_hid.dir/home/boemmelsebastian/pico/pico-sdk/src/rp2_common/pico_float/float_init_rom.c.obj
 .debug_loc     0x000000000000cb56      0xb37 CMakeFiles/tinyusb_host_cdc_msc_hid.dir/home/boemmelsebastian/pico/pico-sdk/src/rp2_common/pico_stdio/stdio.c.obj
 .debug_loc     0x000000000000d68d      0x4ec CMakeFiles/tinyusb_host_cdc_msc_hid.dir/home/boemmelsebastian/pico/pico-sdk/src/rp2_common/pico_stdio_uart/stdio_uart.c.obj
 .debug_loc     0x000000000000db79       0x5f CMakeFiles/tinyusb_host_cdc_msc_hid.dir/home/boemmelsebastian/pico/pico-sdk/src/rp2_common/pico_bootsel_via_double_reset/pico_bootsel_via_double_reset.c.obj
 .debug_loc     0x000000000000dbd8      0x5c0 CMakeFiles/tinyusb_host_cdc_msc_hid.dir/home/boemmelsebastian/pico/pico-sdk/lib/tinyusb/hw/bsp/rp2040/family.c.obj
 .debug_loc     0x000000000000e198      0xd41 CMakeFiles/tinyusb_host_cdc_msc_hid.dir/home/boemmelsebastian/pico/pico-sdk/lib/tinyusb/src/portable/raspberrypi/rp2040/hcd_rp2040.c.obj
 .debug_loc     0x000000000000eed9      0x662 CMakeFiles/tinyusb_host_cdc_msc_hid.dir/home/boemmelsebastian/pico/pico-sdk/lib/tinyusb/src/portable/raspberrypi/rp2040/rp2040_usb.c.obj
 .debug_loc     0x000000000000f53b     0x274e CMakeFiles/tinyusb_host_cdc_msc_hid.dir/home/boemmelsebastian/pico/pico-sdk/lib/tinyusb/src/host/usbh.c.obj
 .debug_loc     0x0000000000011c89      0x2ef CMakeFiles/tinyusb_host_cdc_msc_hid.dir/home/boemmelsebastian/pico/pico-sdk/lib/tinyusb/src/host/usbh_control.c.obj
 .debug_loc     0x0000000000011f78      0xe33 CMakeFiles/tinyusb_host_cdc_msc_hid.dir/home/boemmelsebastian/pico/pico-sdk/lib/tinyusb/src/host/hub.c.obj
 .debug_loc     0x0000000000012dab      0x9a3 CMakeFiles/tinyusb_host_cdc_msc_hid.dir/home/boemmelsebastian/pico/pico-sdk/lib/tinyusb/src/class/cdc/cdc_host.c.obj
 .debug_loc     0x000000000001374e     0x1bdd CMakeFiles/tinyusb_host_cdc_msc_hid.dir/home/boemmelsebastian/pico/pico-sdk/lib/tinyusb/src/class/hid/hid_host.c.obj
 .debug_loc     0x000000000001532b     0x188c CMakeFiles/tinyusb_host_cdc_msc_hid.dir/home/boemmelsebastian/pico/pico-sdk/lib/tinyusb/src/class/msc/msc_host.c.obj
 .debug_loc     0x0000000000016bb7      0x8bd CMakeFiles/tinyusb_host_cdc_msc_hid.dir/home/boemmelsebastian/pico/pico-sdk/lib/tinyusb/src/tusb.c.obj
 .debug_loc     0x0000000000017474     0x28ae CMakeFiles/tinyusb_host_cdc_msc_hid.dir/home/boemmelsebastian/pico/pico-sdk/lib/tinyusb/src/common/tusb_fifo.c.obj
 .debug_loc     0x0000000000019d22      0x33d /usr/lib/gcc/arm-none-eabi/8.3.1/../../../arm-none-eabi/lib/thumb/v6-m/nofp/libg.a(lib_a-fflush.o)
 .debug_loc     0x000000000001a05f      0x33f /usr/lib/gcc/arm-none-eabi/8.3.1/../../../arm-none-eabi/lib/thumb/v6-m/nofp/libg.a(lib_a-findfp.o)
 .debug_loc     0x000000000001a39e      0x4a9 /usr/lib/gcc/arm-none-eabi/8.3.1/../../../arm-none-eabi/lib/thumb/v6-m/nofp/libg.a(lib_a-freer.o)
 .debug_loc     0x000000000001a847      0x1d5 /usr/lib/gcc/arm-none-eabi/8.3.1/../../../arm-none-eabi/lib/thumb/v6-m/nofp/libg.a(lib_a-fwalk.o)
 .debug_loc     0x000000000001aa1c      0xf19 /usr/lib/gcc/arm-none-eabi/8.3.1/../../../arm-none-eabi/lib/thumb/v6-m/nofp/libg.a(lib_a-mallocr.o)
 .debug_loc     0x000000000001b935       0x79 /usr/lib/gcc/arm-none-eabi/8.3.1/../../../arm-none-eabi/lib/thumb/v6-m/nofp/libg.a(lib_a-sbrkr.o)
 .debug_loc     0x000000000001b9ae      0x3f5 /usr/lib/gcc/arm-none-eabi/8.3.1/../../../arm-none-eabi/lib/thumb/v6-m/nofp/libg.a(lib_a-stdio.o)
 .debug_loc     0x000000000001bda3       0xa3 /usr/lib/gcc/arm-none-eabi/8.3.1/../../../arm-none-eabi/lib/thumb/v6-m/nofp/libg.a(lib_a-strlen-stub.o)
 .debug_loc     0x000000000001be46       0xdd /usr/lib/gcc/arm-none-eabi/8.3.1/../../../arm-none-eabi/lib/thumb/v6-m/nofp/libg.a(lib_a-writer.o)
 .debug_loc     0x000000000001bf23       0x79 /usr/lib/gcc/arm-none-eabi/8.3.1/../../../arm-none-eabi/lib/thumb/v6-m/nofp/libg.a(lib_a-closer.o)
 .debug_loc     0x000000000001bf9c      0x1a0 /usr/lib/gcc/arm-none-eabi/8.3.1/../../../arm-none-eabi/lib/thumb/v6-m/nofp/libg.a(lib_a-fclose.o)
 .debug_loc     0x000000000001c13c       0xdd /usr/lib/gcc/arm-none-eabi/8.3.1/../../../arm-none-eabi/lib/thumb/v6-m/nofp/libg.a(lib_a-lseekr.o)
 .debug_loc     0x000000000001c219       0xdd /usr/lib/gcc/arm-none-eabi/8.3.1/../../../arm-none-eabi/lib/thumb/v6-m/nofp/libg.a(lib_a-readr.o)
 .debug_loc     0x000000000001c2f6      0x111 /usr/lib/gcc/arm-none-eabi/8.3.1/../../../arm-none-eabi/lib/thumb/v6-m/nofp/libg.a(lib_a-reent.o)
 .debug_loc     0x000000000001c407       0x25 /usr/lib/gcc/arm-none-eabi/8.3.1/../../../arm-none-eabi/lib/thumb/v6-m/nofp/libnosys.a(close.o)
 .debug_loc     0x000000000001c42c       0x4a /usr/lib/gcc/arm-none-eabi/8.3.1/../../../arm-none-eabi/lib/thumb/v6-m/nofp/libnosys.a(lseek.o)

.debug_aranges  0x0000000000000000     0x17a0
 .debug_aranges
                0x0000000000000000       0x58 CMakeFiles/tinyusb_host_cdc_msc_hid.dir/src/hid_app.c.obj
 .debug_aranges
                0x0000000000000058       0x48 CMakeFiles/tinyusb_host_cdc_msc_hid.dir/src/main.c.obj
 .debug_aranges
                0x00000000000000a0       0x30 CMakeFiles/tinyusb_host_cdc_msc_hid.dir/src/msc_app.c.obj
 .debug_aranges
                0x00000000000000d0       0xe0 CMakeFiles/tinyusb_host_cdc_msc_hid.dir/home/boemmelsebastian/pico/pico-sdk/src/rp2_common/hardware_gpio/gpio.c.obj
 .debug_aranges
                0x00000000000001b0       0x48 CMakeFiles/tinyusb_host_cdc_msc_hid.dir/home/boemmelsebastian/pico/pico-sdk/src/rp2_common/hardware_claim/claim.c.obj
 .debug_aranges
                0x00000000000001f8       0x28 CMakeFiles/tinyusb_host_cdc_msc_hid.dir/home/boemmelsebastian/pico/pico-sdk/src/rp2_common/pico_platform/platform.c.obj
 .debug_aranges
                0x0000000000000220       0x58 CMakeFiles/tinyusb_host_cdc_msc_hid.dir/home/boemmelsebastian/pico/pico-sdk/src/rp2_common/hardware_sync/sync.c.obj
 .debug_aranges
                0x0000000000000278       0x40 CMakeFiles/tinyusb_host_cdc_msc_hid.dir/home/boemmelsebastian/pico/pico-sdk/src/rp2_common/hardware_uart/uart.c.obj
 .debug_aranges
                0x00000000000002b8       0xd0 CMakeFiles/tinyusb_host_cdc_msc_hid.dir/home/boemmelsebastian/pico/pico-sdk/src/common/pico_time/time.c.obj
 .debug_aranges
                0x0000000000000388       0x78 CMakeFiles/tinyusb_host_cdc_msc_hid.dir/home/boemmelsebastian/pico/pico-sdk/src/rp2_common/hardware_timer/timer.c.obj
 .debug_aranges
                0x0000000000000400       0x20 CMakeFiles/tinyusb_host_cdc_msc_hid.dir/home/boemmelsebastian/pico/pico-sdk/src/common/pico_sync/lock_core.c.obj
 .debug_aranges
                0x0000000000000420       0x88 CMakeFiles/tinyusb_host_cdc_msc_hid.dir/home/boemmelsebastian/pico/pico-sdk/src/common/pico_sync/mutex.c.obj
 .debug_aranges
                0x00000000000004a8       0x30 CMakeFiles/tinyusb_host_cdc_msc_hid.dir/home/boemmelsebastian/pico/pico-sdk/src/common/pico_sync/critical_section.c.obj
 .debug_aranges
                0x00000000000004d8       0x78 CMakeFiles/tinyusb_host_cdc_msc_hid.dir/home/boemmelsebastian/pico/pico-sdk/src/common/pico_util/pheap.c.obj
 .debug_aranges
                0x0000000000000550       0x60 CMakeFiles/tinyusb_host_cdc_msc_hid.dir/home/boemmelsebastian/pico/pico-sdk/src/rp2_common/pico_runtime/runtime.c.obj
 .debug_aranges
                0x00000000000005b0       0x70 CMakeFiles/tinyusb_host_cdc_msc_hid.dir/home/boemmelsebastian/pico/pico-sdk/src/rp2_common/hardware_clocks/clocks.c.obj
 .debug_aranges
                0x0000000000000620       0x98 CMakeFiles/tinyusb_host_cdc_msc_hid.dir/home/boemmelsebastian/pico/pico-sdk/src/rp2_common/hardware_irq/irq.c.obj
 .debug_aranges
                0x00000000000006b8       0x20 CMakeFiles/tinyusb_host_cdc_msc_hid.dir/home/boemmelsebastian/pico/pico-sdk/src/rp2_common/hardware_irq/irq_handler_chain.S.obj
 .debug_aranges
                0x00000000000006d8       0x28 CMakeFiles/tinyusb_host_cdc_msc_hid.dir/home/boemmelsebastian/pico/pico-sdk/src/rp2_common/hardware_pll/pll.c.obj
 .debug_aranges
                0x0000000000000700       0x58 CMakeFiles/tinyusb_host_cdc_msc_hid.dir/home/boemmelsebastian/pico/pico-sdk/src/rp2_common/hardware_watchdog/watchdog.c.obj
 .debug_aranges
                0x0000000000000758       0x30 CMakeFiles/tinyusb_host_cdc_msc_hid.dir/home/boemmelsebastian/pico/pico-sdk/src/rp2_common/hardware_xosc/xosc.c.obj
 .debug_aranges
                0x0000000000000788       0x90 CMakeFiles/tinyusb_host_cdc_msc_hid.dir/home/boemmelsebastian/pico/pico-sdk/src/rp2_common/pico_printf/printf.c.obj
 .debug_aranges
                0x0000000000000818       0x68 CMakeFiles/tinyusb_host_cdc_msc_hid.dir/home/boemmelsebastian/pico/pico-sdk/src/rp2_common/pico_bit_ops/bit_ops_aeabi.S.obj
 .debug_aranges
                0x0000000000000880       0x30 CMakeFiles/tinyusb_host_cdc_msc_hid.dir/home/boemmelsebastian/pico/pico-sdk/src/rp2_common/pico_bootrom/bootrom.c.obj
 .debug_aranges
                0x00000000000008b0       0x40 CMakeFiles/tinyusb_host_cdc_msc_hid.dir/home/boemmelsebastian/pico/pico-sdk/src/rp2_common/pico_divider/divider.S.obj
 .debug_aranges
                0x00000000000008f0      0x140 CMakeFiles/tinyusb_host_cdc_msc_hid.dir/home/boemmelsebastian/pico/pico-sdk/src/rp2_common/pico_double/double_aeabi.S.obj
 .debug_aranges
                0x0000000000000a30       0x20 CMakeFiles/tinyusb_host_cdc_msc_hid.dir/home/boemmelsebastian/pico/pico-sdk/src/rp2_common/pico_double/double_init_rom.c.obj
 .debug_aranges
                0x0000000000000a50       0xc8 CMakeFiles/tinyusb_host_cdc_msc_hid.dir/home/boemmelsebastian/pico/pico-sdk/src/rp2_common/pico_double/double_v1_rom_shim.S.obj
 .debug_aranges
                0x0000000000000b18       0x20 CMakeFiles/tinyusb_host_cdc_msc_hid.dir/home/boemmelsebastian/pico/pico-sdk/src/rp2_common/pico_int64_ops/pico_int64_ops_aeabi.S.obj
 .debug_aranges
                0x0000000000000b38      0x130 CMakeFiles/tinyusb_host_cdc_msc_hid.dir/home/boemmelsebastian/pico/pico-sdk/src/rp2_common/pico_float/float_aeabi.S.obj
 .debug_aranges
                0x0000000000000c68       0x20 CMakeFiles/tinyusb_host_cdc_msc_hid.dir/home/boemmelsebastian/pico/pico-sdk/src/rp2_common/pico_float/float_init_rom.c.obj
 .debug_aranges
                0x0000000000000c88       0x50 CMakeFiles/tinyusb_host_cdc_msc_hid.dir/home/boemmelsebastian/pico/pico-sdk/src/rp2_common/pico_float/float_v1_rom_shim.S.obj
 .debug_aranges
                0x0000000000000cd8       0x38 CMakeFiles/tinyusb_host_cdc_msc_hid.dir/home/boemmelsebastian/pico/pico-sdk/src/rp2_common/pico_mem_ops/mem_ops_aeabi.S.obj
 .debug_aranges
                0x0000000000000d10       0x28 CMakeFiles/tinyusb_host_cdc_msc_hid.dir/home/boemmelsebastian/pico/pico-sdk/src/rp2_common/pico_standard_link/crt0.S.obj
 .debug_aranges
                0x0000000000000d38       0x18 CMakeFiles/tinyusb_host_cdc_msc_hid.dir/home/boemmelsebastian/pico/pico-sdk/src/rp2_common/pico_standard_link/binary_info.c.obj
 .debug_aranges
                0x0000000000000d50       0xd0 CMakeFiles/tinyusb_host_cdc_msc_hid.dir/home/boemmelsebastian/pico/pico-sdk/src/rp2_common/pico_stdio/stdio.c.obj
 .debug_aranges
                0x0000000000000e20       0x48 CMakeFiles/tinyusb_host_cdc_msc_hid.dir/home/boemmelsebastian/pico/pico-sdk/src/rp2_common/pico_stdio_uart/stdio_uart.c.obj
 .debug_aranges
                0x0000000000000e68       0x20 CMakeFiles/tinyusb_host_cdc_msc_hid.dir/home/boemmelsebastian/pico/pico-sdk/src/rp2_common/pico_bootsel_via_double_reset/pico_bootsel_via_double_reset.c.obj
 .debug_aranges
                0x0000000000000e88       0x48 CMakeFiles/tinyusb_host_cdc_msc_hid.dir/home/boemmelsebastian/pico/pico-sdk/lib/tinyusb/hw/bsp/rp2040/family.c.obj
 .debug_aranges
                0x0000000000000ed0       0xc8 CMakeFiles/tinyusb_host_cdc_msc_hid.dir/home/boemmelsebastian/pico/pico-sdk/lib/tinyusb/src/portable/raspberrypi/rp2040/hcd_rp2040.c.obj
 .debug_aranges
                0x0000000000000f98       0x60 CMakeFiles/tinyusb_host_cdc_msc_hid.dir/home/boemmelsebastian/pico/pico-sdk/lib/tinyusb/src/portable/raspberrypi/rp2040/rp2040_usb.c.obj
 .debug_aranges
                0x0000000000000ff8      0x138 CMakeFiles/tinyusb_host_cdc_msc_hid.dir/home/boemmelsebastian/pico/pico-sdk/lib/tinyusb/src/host/usbh.c.obj
 .debug_aranges
                0x0000000000001130       0x30 CMakeFiles/tinyusb_host_cdc_msc_hid.dir/home/boemmelsebastian/pico/pico-sdk/lib/tinyusb/src/host/usbh_control.c.obj
 .debug_aranges
                0x0000000000001160       0x90 CMakeFiles/tinyusb_host_cdc_msc_hid.dir/home/boemmelsebastian/pico/pico-sdk/lib/tinyusb/src/host/hub.c.obj
 .debug_aranges
                0x00000000000011f0       0x70 CMakeFiles/tinyusb_host_cdc_msc_hid.dir/home/boemmelsebastian/pico/pico-sdk/lib/tinyusb/src/class/cdc/cdc_host.c.obj
 .debug_aranges
                0x0000000000001260       0xc0 CMakeFiles/tinyusb_host_cdc_msc_hid.dir/home/boemmelsebastian/pico/pico-sdk/lib/tinyusb/src/class/hid/hid_host.c.obj
 .debug_aranges
                0x0000000000001320       0xc0 CMakeFiles/tinyusb_host_cdc_msc_hid.dir/home/boemmelsebastian/pico/pico-sdk/lib/tinyusb/src/class/msc/msc_host.c.obj
 .debug_aranges
                0x00000000000013e0       0x50 CMakeFiles/tinyusb_host_cdc_msc_hid.dir/home/boemmelsebastian/pico/pico-sdk/lib/tinyusb/src/tusb.c.obj
 .debug_aranges
                0x0000000000001430      0x118 CMakeFiles/tinyusb_host_cdc_msc_hid.dir/home/boemmelsebastian/pico/pico-sdk/lib/tinyusb/src/common/tusb_fifo.c.obj
 .debug_aranges
                0x0000000000001548       0x20 /usr/lib/gcc/arm-none-eabi/8.3.1/thumb/v6-m/nofp/libgcc.a(_dvmd_tls.o)
 .debug_aranges
                0x0000000000001568       0x20 /usr/lib/gcc/arm-none-eabi/8.3.1/../../../arm-none-eabi/lib/thumb/v6-m/nofp/libg.a(lib_a-fflush.o)
 .debug_aranges
                0x0000000000001588       0x20 /usr/lib/gcc/arm-none-eabi/8.3.1/../../../arm-none-eabi/lib/thumb/v6-m/nofp/libg.a(lib_a-findfp.o)
 .debug_aranges
                0x00000000000015a8       0x20 /usr/lib/gcc/arm-none-eabi/8.3.1/../../../arm-none-eabi/lib/thumb/v6-m/nofp/libg.a(lib_a-freer.o)
 .debug_aranges
                0x00000000000015c8       0x20 /usr/lib/gcc/arm-none-eabi/8.3.1/../../../arm-none-eabi/lib/thumb/v6-m/nofp/libg.a(lib_a-fwalk.o)
 .debug_aranges
                0x00000000000015e8       0x18 /usr/lib/gcc/arm-none-eabi/8.3.1/../../../arm-none-eabi/lib/thumb/v6-m/nofp/libg.a(lib_a-impure.o)
 .debug_aranges
                0x0000000000001600       0x20 /usr/lib/gcc/arm-none-eabi/8.3.1/../../../arm-none-eabi/lib/thumb/v6-m/nofp/libg.a(lib_a-mallocr.o)
 .debug_aranges
                0x0000000000001620       0x20 /usr/lib/gcc/arm-none-eabi/8.3.1/../../../arm-none-eabi/lib/thumb/v6-m/nofp/libg.a(lib_a-mlock.o)
 .debug_aranges
                0x0000000000001640       0x20 /usr/lib/gcc/arm-none-eabi/8.3.1/../../../arm-none-eabi/lib/thumb/v6-m/nofp/libg.a(lib_a-sbrkr.o)
 .debug_aranges
                0x0000000000001660       0x20 /usr/lib/gcc/arm-none-eabi/8.3.1/../../../arm-none-eabi/lib/thumb/v6-m/nofp/libg.a(lib_a-stdio.o)
 .debug_aranges
                0x0000000000001680       0x20 /usr/lib/gcc/arm-none-eabi/8.3.1/../../../arm-none-eabi/lib/thumb/v6-m/nofp/libg.a(lib_a-strlen-stub.o)
 .debug_aranges
                0x00000000000016a0       0x20 /usr/lib/gcc/arm-none-eabi/8.3.1/../../../arm-none-eabi/lib/thumb/v6-m/nofp/libg.a(lib_a-writer.o)
 .debug_aranges
                0x00000000000016c0       0x20 /usr/lib/gcc/arm-none-eabi/8.3.1/../../../arm-none-eabi/lib/thumb/v6-m/nofp/libg.a(lib_a-closer.o)
 .debug_aranges
                0x00000000000016e0       0x20 /usr/lib/gcc/arm-none-eabi/8.3.1/../../../arm-none-eabi/lib/thumb/v6-m/nofp/libg.a(lib_a-fclose.o)
 .debug_aranges
                0x0000000000001700       0x20 /usr/lib/gcc/arm-none-eabi/8.3.1/../../../arm-none-eabi/lib/thumb/v6-m/nofp/libg.a(lib_a-lseekr.o)
 .debug_aranges
                0x0000000000001720       0x20 /usr/lib/gcc/arm-none-eabi/8.3.1/../../../arm-none-eabi/lib/thumb/v6-m/nofp/libg.a(lib_a-readr.o)
 .debug_aranges
                0x0000000000001740       0x20 /usr/lib/gcc/arm-none-eabi/8.3.1/../../../arm-none-eabi/lib/thumb/v6-m/nofp/libg.a(lib_a-reent.o)
 .debug_aranges
                0x0000000000001760       0x20 /usr/lib/gcc/arm-none-eabi/8.3.1/../../../arm-none-eabi/lib/thumb/v6-m/nofp/libnosys.a(close.o)
 .debug_aranges
                0x0000000000001780       0x20 /usr/lib/gcc/arm-none-eabi/8.3.1/../../../arm-none-eabi/lib/thumb/v6-m/nofp/libnosys.a(lseek.o)

.debug_ranges   0x0000000000000000     0x41a8
 .debug_ranges  0x0000000000000000       0x78 CMakeFiles/tinyusb_host_cdc_msc_hid.dir/src/hid_app.c.obj
 .debug_ranges  0x0000000000000078       0xb0 CMakeFiles/tinyusb_host_cdc_msc_hid.dir/src/main.c.obj
 .debug_ranges  0x0000000000000128       0x20 CMakeFiles/tinyusb_host_cdc_msc_hid.dir/src/msc_app.c.obj
 .debug_ranges  0x0000000000000148       0xe8 CMakeFiles/tinyusb_host_cdc_msc_hid.dir/home/boemmelsebastian/pico/pico-sdk/src/rp2_common/hardware_gpio/gpio.c.obj
 .debug_ranges  0x0000000000000230       0xd8 CMakeFiles/tinyusb_host_cdc_msc_hid.dir/home/boemmelsebastian/pico/pico-sdk/src/rp2_common/hardware_claim/claim.c.obj
 .debug_ranges  0x0000000000000308       0x18 CMakeFiles/tinyusb_host_cdc_msc_hid.dir/home/boemmelsebastian/pico/pico-sdk/src/rp2_common/pico_platform/platform.c.obj
 .debug_ranges  0x0000000000000320       0xf0 CMakeFiles/tinyusb_host_cdc_msc_hid.dir/home/boemmelsebastian/pico/pico-sdk/src/rp2_common/hardware_sync/sync.c.obj
 .debug_ranges  0x0000000000000410       0xf8 CMakeFiles/tinyusb_host_cdc_msc_hid.dir/home/boemmelsebastian/pico/pico-sdk/src/rp2_common/hardware_uart/uart.c.obj
 .debug_ranges  0x0000000000000508      0xbb0 CMakeFiles/tinyusb_host_cdc_msc_hid.dir/home/boemmelsebastian/pico/pico-sdk/src/common/pico_time/time.c.obj
 .debug_ranges  0x00000000000010b8      0x358 CMakeFiles/tinyusb_host_cdc_msc_hid.dir/home/boemmelsebastian/pico/pico-sdk/src/rp2_common/hardware_timer/timer.c.obj
 .debug_ranges  0x0000000000001410       0x10 CMakeFiles/tinyusb_host_cdc_msc_hid.dir/home/boemmelsebastian/pico/pico-sdk/src/common/pico_sync/lock_core.c.obj
 .debug_ranges  0x0000000000001420      0xac8 CMakeFiles/tinyusb_host_cdc_msc_hid.dir/home/boemmelsebastian/pico/pico-sdk/src/common/pico_sync/mutex.c.obj
 .debug_ranges  0x0000000000001ee8       0x38 CMakeFiles/tinyusb_host_cdc_msc_hid.dir/home/boemmelsebastian/pico/pico-sdk/src/common/pico_sync/critical_section.c.obj
 .debug_ranges  0x0000000000001f20      0x230 CMakeFiles/tinyusb_host_cdc_msc_hid.dir/home/boemmelsebastian/pico/pico-sdk/src/common/pico_util/pheap.c.obj
 .debug_ranges  0x0000000000002150       0x80 CMakeFiles/tinyusb_host_cdc_msc_hid.dir/home/boemmelsebastian/pico/pico-sdk/src/rp2_common/pico_runtime/runtime.c.obj
 .debug_ranges  0x00000000000021d0       0x60 CMakeFiles/tinyusb_host_cdc_msc_hid.dir/home/boemmelsebastian/pico/pico-sdk/src/rp2_common/hardware_clocks/clocks.c.obj
 .debug_ranges  0x0000000000002230      0x3d0 CMakeFiles/tinyusb_host_cdc_msc_hid.dir/home/boemmelsebastian/pico/pico-sdk/src/rp2_common/hardware_irq/irq.c.obj
 .debug_ranges  0x0000000000002600       0x30 CMakeFiles/tinyusb_host_cdc_msc_hid.dir/home/boemmelsebastian/pico/pico-sdk/src/rp2_common/hardware_pll/pll.c.obj
 .debug_ranges  0x0000000000002630       0x48 CMakeFiles/tinyusb_host_cdc_msc_hid.dir/home/boemmelsebastian/pico/pico-sdk/src/rp2_common/hardware_watchdog/watchdog.c.obj
 .debug_ranges  0x0000000000002678       0x20 CMakeFiles/tinyusb_host_cdc_msc_hid.dir/home/boemmelsebastian/pico/pico-sdk/src/rp2_common/hardware_xosc/xosc.c.obj
 .debug_ranges  0x0000000000002698      0x120 CMakeFiles/tinyusb_host_cdc_msc_hid.dir/home/boemmelsebastian/pico/pico-sdk/src/rp2_common/pico_printf/printf.c.obj
 .debug_ranges  0x00000000000027b8       0x60 CMakeFiles/tinyusb_host_cdc_msc_hid.dir/home/boemmelsebastian/pico/pico-sdk/src/rp2_common/pico_bit_ops/bit_ops_aeabi.S.obj
 .debug_ranges  0x0000000000002818       0x38 CMakeFiles/tinyusb_host_cdc_msc_hid.dir/home/boemmelsebastian/pico/pico-sdk/src/rp2_common/pico_bootrom/bootrom.c.obj
 .debug_ranges  0x0000000000002850       0x38 CMakeFiles/tinyusb_host_cdc_msc_hid.dir/home/boemmelsebastian/pico/pico-sdk/src/rp2_common/pico_divider/divider.S.obj
 .debug_ranges  0x0000000000002888      0x138 CMakeFiles/tinyusb_host_cdc_msc_hid.dir/home/boemmelsebastian/pico/pico-sdk/src/rp2_common/pico_double/double_aeabi.S.obj
 .debug_ranges  0x00000000000029c0       0x30 CMakeFiles/tinyusb_host_cdc_msc_hid.dir/home/boemmelsebastian/pico/pico-sdk/src/rp2_common/pico_double/double_init_rom.c.obj
 .debug_ranges  0x00000000000029f0       0xc0 CMakeFiles/tinyusb_host_cdc_msc_hid.dir/home/boemmelsebastian/pico/pico-sdk/src/rp2_common/pico_double/double_v1_rom_shim.S.obj
 .debug_ranges  0x0000000000002ab0      0x128 CMakeFiles/tinyusb_host_cdc_msc_hid.dir/home/boemmelsebastian/pico/pico-sdk/src/rp2_common/pico_float/float_aeabi.S.obj
 .debug_ranges  0x0000000000002bd8       0x28 CMakeFiles/tinyusb_host_cdc_msc_hid.dir/home/boemmelsebastian/pico/pico-sdk/src/rp2_common/pico_float/float_init_rom.c.obj
 .debug_ranges  0x0000000000002c00       0x48 CMakeFiles/tinyusb_host_cdc_msc_hid.dir/home/boemmelsebastian/pico/pico-sdk/src/rp2_common/pico_float/float_v1_rom_shim.S.obj
 .debug_ranges  0x0000000000002c48       0x30 CMakeFiles/tinyusb_host_cdc_msc_hid.dir/home/boemmelsebastian/pico/pico-sdk/src/rp2_common/pico_mem_ops/mem_ops_aeabi.S.obj
 .debug_ranges  0x0000000000002c78       0x20 CMakeFiles/tinyusb_host_cdc_msc_hid.dir/home/boemmelsebastian/pico/pico-sdk/src/rp2_common/pico_standard_link/crt0.S.obj
 .debug_ranges  0x0000000000002c98      0x1b0 CMakeFiles/tinyusb_host_cdc_msc_hid.dir/home/boemmelsebastian/pico/pico-sdk/src/rp2_common/pico_stdio/stdio.c.obj
 .debug_ranges  0x0000000000002e48      0x2a0 CMakeFiles/tinyusb_host_cdc_msc_hid.dir/home/boemmelsebastian/pico/pico-sdk/src/rp2_common/pico_stdio_uart/stdio_uart.c.obj
 .debug_ranges  0x00000000000030e8       0x28 CMakeFiles/tinyusb_host_cdc_msc_hid.dir/home/boemmelsebastian/pico/pico-sdk/src/rp2_common/pico_bootsel_via_double_reset/pico_bootsel_via_double_reset.c.obj
 .debug_ranges  0x0000000000003110      0x2c8 CMakeFiles/tinyusb_host_cdc_msc_hid.dir/home/boemmelsebastian/pico/pico-sdk/lib/tinyusb/hw/bsp/rp2040/family.c.obj
 .debug_ranges  0x00000000000033d8      0x100 CMakeFiles/tinyusb_host_cdc_msc_hid.dir/home/boemmelsebastian/pico/pico-sdk/lib/tinyusb/src/portable/raspberrypi/rp2040/hcd_rp2040.c.obj
 .debug_ranges  0x00000000000034d8       0x68 CMakeFiles/tinyusb_host_cdc_msc_hid.dir/home/boemmelsebastian/pico/pico-sdk/lib/tinyusb/src/portable/raspberrypi/rp2040/rp2040_usb.c.obj
 .debug_ranges  0x0000000000003540      0x620 CMakeFiles/tinyusb_host_cdc_msc_hid.dir/home/boemmelsebastian/pico/pico-sdk/lib/tinyusb/src/host/usbh.c.obj
 .debug_ranges  0x0000000000003b60       0x50 CMakeFiles/tinyusb_host_cdc_msc_hid.dir/home/boemmelsebastian/pico/pico-sdk/lib/tinyusb/src/host/usbh_control.c.obj
 .debug_ranges  0x0000000000003bb0       0xa0 CMakeFiles/tinyusb_host_cdc_msc_hid.dir/home/boemmelsebastian/pico/pico-sdk/lib/tinyusb/src/host/hub.c.obj
 .debug_ranges  0x0000000000003c50       0x90 CMakeFiles/tinyusb_host_cdc_msc_hid.dir/home/boemmelsebastian/pico/pico-sdk/lib/tinyusb/src/class/cdc/cdc_host.c.obj
 .debug_ranges  0x0000000000003ce0       0xc8 CMakeFiles/tinyusb_host_cdc_msc_hid.dir/home/boemmelsebastian/pico/pico-sdk/lib/tinyusb/src/class/hid/hid_host.c.obj
 .debug_ranges  0x0000000000003da8       0xc8 CMakeFiles/tinyusb_host_cdc_msc_hid.dir/home/boemmelsebastian/pico/pico-sdk/lib/tinyusb/src/class/msc/msc_host.c.obj
 .debug_ranges  0x0000000000003e70       0xe0 CMakeFiles/tinyusb_host_cdc_msc_hid.dir/home/boemmelsebastian/pico/pico-sdk/lib/tinyusb/src/tusb.c.obj
 .debug_ranges  0x0000000000003f50      0x108 CMakeFiles/tinyusb_host_cdc_msc_hid.dir/home/boemmelsebastian/pico/pico-sdk/lib/tinyusb/src/common/tusb_fifo.c.obj
 .debug_ranges  0x0000000000004058       0x50 /usr/lib/gcc/arm-none-eabi/8.3.1/../../../arm-none-eabi/lib/thumb/v6-m/nofp/libg.a(lib_a-fflush.o)
 .debug_ranges  0x00000000000040a8       0x98 /usr/lib/gcc/arm-none-eabi/8.3.1/../../../arm-none-eabi/lib/thumb/v6-m/nofp/libg.a(lib_a-findfp.o)
 .debug_ranges  0x0000000000004140       0x38 /usr/lib/gcc/arm-none-eabi/8.3.1/../../../arm-none-eabi/lib/thumb/v6-m/nofp/libg.a(lib_a-mallocr.o)
 .debug_ranges  0x0000000000004178       0x30 /usr/lib/gcc/arm-none-eabi/8.3.1/../../../arm-none-eabi/lib/thumb/v6-m/nofp/libg.a(lib_a-fclose.o)

.debug_line     0x0000000000000000    0x18e7f
 .debug_line    0x0000000000000000      0x545 CMakeFiles/tinyusb_host_cdc_msc_hid.dir/src/hid_app.c.obj
 .debug_line    0x0000000000000545      0x52d CMakeFiles/tinyusb_host_cdc_msc_hid.dir/src/main.c.obj
 .debug_line    0x0000000000000a72      0x302 CMakeFiles/tinyusb_host_cdc_msc_hid.dir/src/msc_app.c.obj
 .debug_line    0x0000000000000d74      0x998 CMakeFiles/tinyusb_host_cdc_msc_hid.dir/home/boemmelsebastian/pico/pico-sdk/src/rp2_common/hardware_gpio/gpio.c.obj
 .debug_line    0x000000000000170c      0x3e7 CMakeFiles/tinyusb_host_cdc_msc_hid.dir/home/boemmelsebastian/pico/pico-sdk/src/rp2_common/hardware_claim/claim.c.obj
 .debug_line    0x0000000000001af3      0x1ff CMakeFiles/tinyusb_host_cdc_msc_hid.dir/home/boemmelsebastian/pico/pico-sdk/src/rp2_common/pico_platform/platform.c.obj
 .debug_line    0x0000000000001cf2      0x3d5 CMakeFiles/tinyusb_host_cdc_msc_hid.dir/home/boemmelsebastian/pico/pico-sdk/src/rp2_common/hardware_sync/sync.c.obj
 .debug_line    0x00000000000020c7      0x70d CMakeFiles/tinyusb_host_cdc_msc_hid.dir/home/boemmelsebastian/pico/pico-sdk/src/rp2_common/hardware_uart/uart.c.obj
 .debug_line    0x00000000000027d4     0x18f0 CMakeFiles/tinyusb_host_cdc_msc_hid.dir/home/boemmelsebastian/pico/pico-sdk/src/common/pico_time/time.c.obj
 .debug_line    0x00000000000040c4      0xa7d CMakeFiles/tinyusb_host_cdc_msc_hid.dir/home/boemmelsebastian/pico/pico-sdk/src/rp2_common/hardware_timer/timer.c.obj
 .debug_line    0x0000000000004b41      0x221 CMakeFiles/tinyusb_host_cdc_msc_hid.dir/home/boemmelsebastian/pico/pico-sdk/src/common/pico_sync/lock_core.c.obj
 .debug_line    0x0000000000004d62      0xf6b CMakeFiles/tinyusb_host_cdc_msc_hid.dir/home/boemmelsebastian/pico/pico-sdk/src/common/pico_sync/mutex.c.obj
 .debug_line    0x0000000000005ccd      0x2aa CMakeFiles/tinyusb_host_cdc_msc_hid.dir/home/boemmelsebastian/pico/pico-sdk/src/common/pico_sync/critical_section.c.obj
 .debug_line    0x0000000000005f77      0x860 CMakeFiles/tinyusb_host_cdc_msc_hid.dir/home/boemmelsebastian/pico/pico-sdk/src/common/pico_util/pheap.c.obj
 .debug_line    0x00000000000067d7      0x82f CMakeFiles/tinyusb_host_cdc_msc_hid.dir/home/boemmelsebastian/pico/pico-sdk/src/rp2_common/pico_runtime/runtime.c.obj
 .debug_line    0x0000000000007006      0x950 CMakeFiles/tinyusb_host_cdc_msc_hid.dir/home/boemmelsebastian/pico/pico-sdk/src/rp2_common/hardware_clocks/clocks.c.obj
 .debug_line    0x0000000000007956      0xe4c CMakeFiles/tinyusb_host_cdc_msc_hid.dir/home/boemmelsebastian/pico/pico-sdk/src/rp2_common/hardware_irq/irq.c.obj
 .debug_line    0x00000000000087a2       0x8e CMakeFiles/tinyusb_host_cdc_msc_hid.dir/home/boemmelsebastian/pico/pico-sdk/src/rp2_common/hardware_irq/irq_handler_chain.S.obj
 .debug_line    0x0000000000008830      0x4d3 CMakeFiles/tinyusb_host_cdc_msc_hid.dir/home/boemmelsebastian/pico/pico-sdk/src/rp2_common/hardware_pll/pll.c.obj
 .debug_line    0x0000000000008d03      0x41b CMakeFiles/tinyusb_host_cdc_msc_hid.dir/home/boemmelsebastian/pico/pico-sdk/src/rp2_common/hardware_watchdog/watchdog.c.obj
 .debug_line    0x000000000000911e      0x23d CMakeFiles/tinyusb_host_cdc_msc_hid.dir/home/boemmelsebastian/pico/pico-sdk/src/rp2_common/hardware_xosc/xosc.c.obj
 .debug_line    0x000000000000935b     0x10e3 CMakeFiles/tinyusb_host_cdc_msc_hid.dir/home/boemmelsebastian/pico/pico-sdk/src/rp2_common/pico_printf/printf.c.obj
 .debug_line    0x000000000000a43e      0x151 CMakeFiles/tinyusb_host_cdc_msc_hid.dir/home/boemmelsebastian/pico/pico-sdk/src/rp2_common/pico_bit_ops/bit_ops_aeabi.S.obj
 .debug_line    0x000000000000a58f      0x1bf CMakeFiles/tinyusb_host_cdc_msc_hid.dir/home/boemmelsebastian/pico/pico-sdk/src/rp2_common/pico_bootrom/bootrom.c.obj
 .debug_line    0x000000000000a74e      0x2da CMakeFiles/tinyusb_host_cdc_msc_hid.dir/home/boemmelsebastian/pico/pico-sdk/src/rp2_common/pico_divider/divider.S.obj
 .debug_line    0x000000000000aa28      0x42f CMakeFiles/tinyusb_host_cdc_msc_hid.dir/home/boemmelsebastian/pico/pico-sdk/src/rp2_common/pico_double/double_aeabi.S.obj
 .debug_line    0x000000000000ae57      0x310 CMakeFiles/tinyusb_host_cdc_msc_hid.dir/home/boemmelsebastian/pico/pico-sdk/src/rp2_common/pico_double/double_init_rom.c.obj
 .debug_line    0x000000000000b167      0x6a7 CMakeFiles/tinyusb_host_cdc_msc_hid.dir/home/boemmelsebastian/pico/pico-sdk/src/rp2_common/pico_double/double_v1_rom_shim.S.obj
 .debug_line    0x000000000000b80e       0xa1 CMakeFiles/tinyusb_host_cdc_msc_hid.dir/home/boemmelsebastian/pico/pico-sdk/src/rp2_common/pico_int64_ops/pico_int64_ops_aeabi.S.obj
 .debug_line    0x000000000000b8af      0x3e5 CMakeFiles/tinyusb_host_cdc_msc_hid.dir/home/boemmelsebastian/pico/pico-sdk/src/rp2_common/pico_float/float_aeabi.S.obj
 .debug_line    0x000000000000bc94      0x2f8 CMakeFiles/tinyusb_host_cdc_msc_hid.dir/home/boemmelsebastian/pico/pico-sdk/src/rp2_common/pico_float/float_init_rom.c.obj
 .debug_line    0x000000000000bf8c      0x1d1 CMakeFiles/tinyusb_host_cdc_msc_hid.dir/home/boemmelsebastian/pico/pico-sdk/src/rp2_common/pico_float/float_v1_rom_shim.S.obj
 .debug_line    0x000000000000c15d       0xcb CMakeFiles/tinyusb_host_cdc_msc_hid.dir/home/boemmelsebastian/pico/pico-sdk/src/rp2_common/pico_mem_ops/mem_ops_aeabi.S.obj
 .debug_line    0x000000000000c228       0xdc CMakeFiles/tinyusb_host_cdc_msc_hid.dir/home/boemmelsebastian/pico/pico-sdk/src/rp2_common/pico_standard_link/crt0.S.obj
 .debug_line    0x000000000000c304      0x165 CMakeFiles/tinyusb_host_cdc_msc_hid.dir/home/boemmelsebastian/pico/pico-sdk/src/rp2_common/pico_standard_link/binary_info.c.obj
 .debug_line    0x000000000000c469      0xc7c CMakeFiles/tinyusb_host_cdc_msc_hid.dir/home/boemmelsebastian/pico/pico-sdk/src/rp2_common/pico_stdio/stdio.c.obj
 .debug_line    0x000000000000d0e5      0x7d1 CMakeFiles/tinyusb_host_cdc_msc_hid.dir/home/boemmelsebastian/pico/pico-sdk/src/rp2_common/pico_stdio_uart/stdio_uart.c.obj
 .debug_line    0x000000000000d8b6      0x32a CMakeFiles/tinyusb_host_cdc_msc_hid.dir/home/boemmelsebastian/pico/pico-sdk/src/rp2_common/pico_bootsel_via_double_reset/pico_bootsel_via_double_reset.c.obj
 .debug_line    0x000000000000dbe0      0x96e CMakeFiles/tinyusb_host_cdc_msc_hid.dir/home/boemmelsebastian/pico/pico-sdk/lib/tinyusb/hw/bsp/rp2040/family.c.obj
 .debug_line    0x000000000000e54e      0xce9 CMakeFiles/tinyusb_host_cdc_msc_hid.dir/home/boemmelsebastian/pico/pico-sdk/lib/tinyusb/src/portable/raspberrypi/rp2040/hcd_rp2040.c.obj
 .debug_line    0x000000000000f237      0x893 CMakeFiles/tinyusb_host_cdc_msc_hid.dir/home/boemmelsebastian/pico/pico-sdk/lib/tinyusb/src/portable/raspberrypi/rp2040/rp2040_usb.c.obj
 .debug_line    0x000000000000faca     0x1ac7 CMakeFiles/tinyusb_host_cdc_msc_hid.dir/home/boemmelsebastian/pico/pico-sdk/lib/tinyusb/src/host/usbh.c.obj
 .debug_line    0x0000000000011591      0x3c4 CMakeFiles/tinyusb_host_cdc_msc_hid.dir/home/boemmelsebastian/pico/pico-sdk/lib/tinyusb/src/host/usbh_control.c.obj
 .debug_line    0x0000000000011955      0x894 CMakeFiles/tinyusb_host_cdc_msc_hid.dir/home/boemmelsebastian/pico/pico-sdk/lib/tinyusb/src/host/hub.c.obj
 .debug_line    0x00000000000121e9      0x7f8 CMakeFiles/tinyusb_host_cdc_msc_hid.dir/home/boemmelsebastian/pico/pico-sdk/lib/tinyusb/src/class/cdc/cdc_host.c.obj
 .debug_line    0x00000000000129e1      0xdec CMakeFiles/tinyusb_host_cdc_msc_hid.dir/home/boemmelsebastian/pico/pico-sdk/lib/tinyusb/src/class/hid/hid_host.c.obj
 .debug_line    0x00000000000137cd      0xcc7 CMakeFiles/tinyusb_host_cdc_msc_hid.dir/home/boemmelsebastian/pico/pico-sdk/lib/tinyusb/src/class/msc/msc_host.c.obj
 .debug_line    0x0000000000014494      0x74c CMakeFiles/tinyusb_host_cdc_msc_hid.dir/home/boemmelsebastian/pico/pico-sdk/lib/tinyusb/src/tusb.c.obj
 .debug_line    0x0000000000014be0     0x14ee CMakeFiles/tinyusb_host_cdc_msc_hid.dir/home/boemmelsebastian/pico/pico-sdk/lib/tinyusb/src/common/tusb_fifo.c.obj
 .debug_line    0x00000000000160ce       0x60 /usr/lib/gcc/arm-none-eabi/8.3.1/thumb/v6-m/nofp/libgcc.a(_dvmd_tls.o)
 .debug_line    0x000000000001612e      0x446 /usr/lib/gcc/arm-none-eabi/8.3.1/../../../arm-none-eabi/lib/thumb/v6-m/nofp/libg.a(lib_a-fflush.o)
 .debug_line    0x0000000000016574      0x575 /usr/lib/gcc/arm-none-eabi/8.3.1/../../../arm-none-eabi/lib/thumb/v6-m/nofp/libg.a(lib_a-findfp.o)
 .debug_line    0x0000000000016ae9      0x482 /usr/lib/gcc/arm-none-eabi/8.3.1/../../../arm-none-eabi/lib/thumb/v6-m/nofp/libg.a(lib_a-freer.o)
 .debug_line    0x0000000000016f6b      0x23c /usr/lib/gcc/arm-none-eabi/8.3.1/../../../arm-none-eabi/lib/thumb/v6-m/nofp/libg.a(lib_a-fwalk.o)
 .debug_line    0x00000000000171a7       0xe3 /usr/lib/gcc/arm-none-eabi/8.3.1/../../../arm-none-eabi/lib/thumb/v6-m/nofp/libg.a(lib_a-impure.o)
 .debug_line    0x000000000001728a      0x89d /usr/lib/gcc/arm-none-eabi/8.3.1/../../../arm-none-eabi/lib/thumb/v6-m/nofp/libg.a(lib_a-mallocr.o)
 .debug_line    0x0000000000017b27      0x13d /usr/lib/gcc/arm-none-eabi/8.3.1/../../../arm-none-eabi/lib/thumb/v6-m/nofp/libg.a(lib_a-mlock.o)
 .debug_line    0x0000000000017c64      0x185 /usr/lib/gcc/arm-none-eabi/8.3.1/../../../arm-none-eabi/lib/thumb/v6-m/nofp/libg.a(lib_a-sbrkr.o)
 .debug_line    0x0000000000017de9      0x253 /usr/lib/gcc/arm-none-eabi/8.3.1/../../../arm-none-eabi/lib/thumb/v6-m/nofp/libg.a(lib_a-stdio.o)
 .debug_line    0x000000000001803c      0x1c2 /usr/lib/gcc/arm-none-eabi/8.3.1/../../../arm-none-eabi/lib/thumb/v6-m/nofp/libg.a(lib_a-strlen-stub.o)
 .debug_line    0x00000000000181fe      0x17c /usr/lib/gcc/arm-none-eabi/8.3.1/../../../arm-none-eabi/lib/thumb/v6-m/nofp/libg.a(lib_a-writer.o)
 .debug_line    0x000000000001837a      0x185 /usr/lib/gcc/arm-none-eabi/8.3.1/../../../arm-none-eabi/lib/thumb/v6-m/nofp/libg.a(lib_a-closer.o)
 .debug_line    0x00000000000184ff      0x250 /usr/lib/gcc/arm-none-eabi/8.3.1/../../../arm-none-eabi/lib/thumb/v6-m/nofp/libg.a(lib_a-fclose.o)
 .debug_line    0x000000000001874f      0x17c /usr/lib/gcc/arm-none-eabi/8.3.1/../../../arm-none-eabi/lib/thumb/v6-m/nofp/libg.a(lib_a-lseekr.o)
 .debug_line    0x00000000000188cb      0x17b /usr/lib/gcc/arm-none-eabi/8.3.1/../../../arm-none-eabi/lib/thumb/v6-m/nofp/libg.a(lib_a-readr.o)
 .debug_line    0x0000000000018a46      0x20d /usr/lib/gcc/arm-none-eabi/8.3.1/../../../arm-none-eabi/lib/thumb/v6-m/nofp/libg.a(lib_a-reent.o)
 .debug_line    0x0000000000018c53      0x116 /usr/lib/gcc/arm-none-eabi/8.3.1/../../../arm-none-eabi/lib/thumb/v6-m/nofp/libnosys.a(close.o)
 .debug_line    0x0000000000018d69      0x116 /usr/lib/gcc/arm-none-eabi/8.3.1/../../../arm-none-eabi/lib/thumb/v6-m/nofp/libnosys.a(lseek.o)

.debug_str      0x0000000000000000     0x9892
 .debug_str     0x0000000000000000     0x155b CMakeFiles/tinyusb_host_cdc_msc_hid.dir/src/hid_app.c.obj
                                       0x165f (size before relaxing)
 .debug_str     0x000000000000155b      0x281 CMakeFiles/tinyusb_host_cdc_msc_hid.dir/src/main.c.obj
                                        0x9f5 (size before relaxing)
 .debug_str     0x00000000000017dc      0x25d CMakeFiles/tinyusb_host_cdc_msc_hid.dir/src/msc_app.c.obj
                                        0x9dd (size before relaxing)
 .debug_str     0x0000000000001a39      0x6af CMakeFiles/tinyusb_host_cdc_msc_hid.dir/home/boemmelsebastian/pico/pico-sdk/src/rp2_common/hardware_gpio/gpio.c.obj
                                        0x8df (size before relaxing)
 .debug_str     0x00000000000020e8      0x1c6 CMakeFiles/tinyusb_host_cdc_msc_hid.dir/home/boemmelsebastian/pico/pico-sdk/src/rp2_common/hardware_claim/claim.c.obj
                                        0x3b6 (size before relaxing)
 .debug_str     0x00000000000022ae       0x7e CMakeFiles/tinyusb_host_cdc_msc_hid.dir/home/boemmelsebastian/pico/pico-sdk/src/rp2_common/pico_platform/platform.c.obj
                                        0x272 (size before relaxing)
 .debug_str     0x000000000000232c       0xf6 CMakeFiles/tinyusb_host_cdc_msc_hid.dir/home/boemmelsebastian/pico/pico-sdk/src/rp2_common/hardware_sync/sync.c.obj
                                        0x39d (size before relaxing)
 .debug_str     0x0000000000002422      0x2e5 CMakeFiles/tinyusb_host_cdc_msc_hid.dir/home/boemmelsebastian/pico/pico-sdk/src/rp2_common/hardware_uart/uart.c.obj
                                        0x57a (size before relaxing)
 .debug_str     0x0000000000002707      0x68f CMakeFiles/tinyusb_host_cdc_msc_hid.dir/home/boemmelsebastian/pico/pico-sdk/src/common/pico_time/time.c.obj
                                        0xfa5 (size before relaxing)
 .debug_str     0x0000000000002d96      0x18c CMakeFiles/tinyusb_host_cdc_msc_hid.dir/home/boemmelsebastian/pico/pico-sdk/src/rp2_common/hardware_timer/timer.c.obj
                                        0x6bd (size before relaxing)
 .debug_str     0x0000000000002f22       0x46 CMakeFiles/tinyusb_host_cdc_msc_hid.dir/home/boemmelsebastian/pico/pico-sdk/src/common/pico_sync/lock_core.c.obj
                                        0x2a9 (size before relaxing)
 .debug_str     0x0000000000002f68      0x16f CMakeFiles/tinyusb_host_cdc_msc_hid.dir/home/boemmelsebastian/pico/pico-sdk/src/common/pico_sync/mutex.c.obj
                                        0x612 (size before relaxing)
 .debug_str     0x00000000000030d7       0xde CMakeFiles/tinyusb_host_cdc_msc_hid.dir/home/boemmelsebastian/pico/pico-sdk/src/common/pico_sync/critical_section.c.obj
                                        0x369 (size before relaxing)
 .debug_str     0x00000000000031b5       0xf6 CMakeFiles/tinyusb_host_cdc_msc_hid.dir/home/boemmelsebastian/pico/pico-sdk/src/common/pico_util/pheap.c.obj
                                        0x83a (size before relaxing)
 .debug_str     0x00000000000032ab      0x20f CMakeFiles/tinyusb_host_cdc_msc_hid.dir/home/boemmelsebastian/pico/pico-sdk/src/rp2_common/pico_runtime/runtime.c.obj
                                        0xaa0 (size before relaxing)
 .debug_str     0x00000000000034ba      0x24e CMakeFiles/tinyusb_host_cdc_msc_hid.dir/home/boemmelsebastian/pico/pico-sdk/src/rp2_common/hardware_clocks/clocks.c.obj
                                        0x693 (size before relaxing)
 .debug_str     0x0000000000003708      0x2cf CMakeFiles/tinyusb_host_cdc_msc_hid.dir/home/boemmelsebastian/pico/pico-sdk/src/rp2_common/hardware_irq/irq.c.obj
                                        0x730 (size before relaxing)
 .debug_str     0x00000000000039d7       0x63 CMakeFiles/tinyusb_host_cdc_msc_hid.dir/home/boemmelsebastian/pico/pico-sdk/src/rp2_common/hardware_irq/irq_handler_chain.S.obj
                                         0xbe (size before relaxing)
 .debug_str     0x0000000000003a3a       0x93 CMakeFiles/tinyusb_host_cdc_msc_hid.dir/home/boemmelsebastian/pico/pico-sdk/src/rp2_common/hardware_pll/pll.c.obj
                                        0x31d (size before relaxing)
 .debug_str     0x0000000000003acd      0x130 CMakeFiles/tinyusb_host_cdc_msc_hid.dir/home/boemmelsebastian/pico/pico-sdk/src/rp2_common/hardware_watchdog/watchdog.c.obj
                                        0x768 (size before relaxing)
 .debug_str     0x0000000000003bfd       0x75 CMakeFiles/tinyusb_host_cdc_msc_hid.dir/home/boemmelsebastian/pico/pico-sdk/src/rp2_common/hardware_xosc/xosc.c.obj
                                        0x26f (size before relaxing)
 .debug_str     0x0000000000003c72      0x19a CMakeFiles/tinyusb_host_cdc_msc_hid.dir/home/boemmelsebastian/pico/pico-sdk/src/rp2_common/pico_printf/printf.c.obj
                                        0x7af (size before relaxing)
 .debug_str     0x0000000000003e0c       0x51 CMakeFiles/tinyusb_host_cdc_msc_hid.dir/home/boemmelsebastian/pico/pico-sdk/src/rp2_common/pico_bit_ops/bit_ops_aeabi.S.obj
                                         0xba (size before relaxing)
 .debug_str     0x0000000000003e5d       0xce CMakeFiles/tinyusb_host_cdc_msc_hid.dir/home/boemmelsebastian/pico/pico-sdk/src/rp2_common/pico_bootrom/bootrom.c.obj
                                        0x29f (size before relaxing)
 .debug_str     0x0000000000003f2b       0x4b CMakeFiles/tinyusb_host_cdc_msc_hid.dir/home/boemmelsebastian/pico/pico-sdk/src/rp2_common/pico_divider/divider.S.obj
                                         0xb4 (size before relaxing)
 .debug_str     0x0000000000003f76       0x4f CMakeFiles/tinyusb_host_cdc_msc_hid.dir/home/boemmelsebastian/pico/pico-sdk/src/rp2_common/pico_double/double_aeabi.S.obj
                                         0xb8 (size before relaxing)
 .debug_str     0x0000000000003fc5       0xa7 CMakeFiles/tinyusb_host_cdc_msc_hid.dir/home/boemmelsebastian/pico/pico-sdk/src/rp2_common/pico_double/double_init_rom.c.obj
                                        0x6b3 (size before relaxing)
 .debug_str     0x000000000000406c       0x55 CMakeFiles/tinyusb_host_cdc_msc_hid.dir/home/boemmelsebastian/pico/pico-sdk/src/rp2_common/pico_double/double_v1_rom_shim.S.obj
                                         0xbe (size before relaxing)
 .debug_str     0x00000000000040c1       0x5a CMakeFiles/tinyusb_host_cdc_msc_hid.dir/home/boemmelsebastian/pico/pico-sdk/src/rp2_common/pico_int64_ops/pico_int64_ops_aeabi.S.obj
                                         0xc3 (size before relaxing)
 .debug_str     0x000000000000411b       0x4d CMakeFiles/tinyusb_host_cdc_msc_hid.dir/home/boemmelsebastian/pico/pico-sdk/src/rp2_common/pico_float/float_aeabi.S.obj
                                         0xb6 (size before relaxing)
 .debug_str     0x0000000000004168       0x8b CMakeFiles/tinyusb_host_cdc_msc_hid.dir/home/boemmelsebastian/pico/pico-sdk/src/rp2_common/pico_float/float_init_rom.c.obj
                                        0x6cf (size before relaxing)
 .debug_str     0x00000000000041f3       0x53 CMakeFiles/tinyusb_host_cdc_msc_hid.dir/home/boemmelsebastian/pico/pico-sdk/src/rp2_common/pico_float/float_v1_rom_shim.S.obj
                                         0xbc (size before relaxing)
 .debug_str     0x0000000000004246       0x51 CMakeFiles/tinyusb_host_cdc_msc_hid.dir/home/boemmelsebastian/pico/pico-sdk/src/rp2_common/pico_mem_ops/mem_ops_aeabi.S.obj
                                         0xba (size before relaxing)
 .debug_str     0x0000000000004297       0x4e CMakeFiles/tinyusb_host_cdc_msc_hid.dir/home/boemmelsebastian/pico/pico-sdk/src/rp2_common/pico_standard_link/crt0.S.obj
                                         0xb7 (size before relaxing)
 .debug_str     0x00000000000042e5      0x243 CMakeFiles/tinyusb_host_cdc_msc_hid.dir/home/boemmelsebastian/pico/pico-sdk/src/rp2_common/pico_standard_link/binary_info.c.obj
                                        0x41e (size before relaxing)
 .debug_str     0x0000000000004528      0x30f CMakeFiles/tinyusb_host_cdc_msc_hid.dir/home/boemmelsebastian/pico/pico-sdk/src/rp2_common/pico_stdio/stdio.c.obj
                                        0xbb6 (size before relaxing)
 .debug_str     0x0000000000004837      0x2b5 CMakeFiles/tinyusb_host_cdc_msc_hid.dir/home/boemmelsebastian/pico/pico-sdk/src/rp2_common/pico_stdio_uart/stdio_uart.c.obj
                                        0x73c (size before relaxing)
 .debug_str     0x0000000000004aec      0x13d CMakeFiles/tinyusb_host_cdc_msc_hid.dir/home/boemmelsebastian/pico/pico-sdk/src/rp2_common/pico_bootsel_via_double_reset/pico_bootsel_via_double_reset.c.obj
                                        0x3a8 (size before relaxing)
 .debug_str     0x0000000000004c29      0x287 CMakeFiles/tinyusb_host_cdc_msc_hid.dir/home/boemmelsebastian/pico/pico-sdk/lib/tinyusb/hw/bsp/rp2040/family.c.obj
                                        0xe8a (size before relaxing)
 .debug_str     0x0000000000004eb0      0x708 CMakeFiles/tinyusb_host_cdc_msc_hid.dir/home/boemmelsebastian/pico/pico-sdk/lib/tinyusb/src/portable/raspberrypi/rp2040/hcd_rp2040.c.obj
                                        0xf9a (size before relaxing)
 .debug_str     0x00000000000055b8      0x17c CMakeFiles/tinyusb_host_cdc_msc_hid.dir/home/boemmelsebastian/pico/pico-sdk/lib/tinyusb/src/portable/raspberrypi/rp2040/rp2040_usb.c.obj
                                        0xc97 (size before relaxing)
 .debug_str     0x0000000000005734     0x131d CMakeFiles/tinyusb_host_cdc_msc_hid.dir/home/boemmelsebastian/pico/pico-sdk/lib/tinyusb/src/host/usbh.c.obj
                                       0x1fe4 (size before relaxing)
 .debug_str     0x0000000000006a51       0xab CMakeFiles/tinyusb_host_cdc_msc_hid.dir/home/boemmelsebastian/pico/pico-sdk/lib/tinyusb/src/host/usbh_control.c.obj
                                        0x99c (size before relaxing)
 .debug_str     0x0000000000006afc      0x302 CMakeFiles/tinyusb_host_cdc_msc_hid.dir/home/boemmelsebastian/pico/pico-sdk/lib/tinyusb/src/host/hub.c.obj
                                       0x15ae (size before relaxing)
 .debug_str     0x0000000000006dfe      0xd64 CMakeFiles/tinyusb_host_cdc_msc_hid.dir/home/boemmelsebastian/pico/pico-sdk/lib/tinyusb/src/class/cdc/cdc_host.c.obj
                                       0x1d4f (size before relaxing)
 .debug_str     0x0000000000007b62      0x737 CMakeFiles/tinyusb_host_cdc_msc_hid.dir/home/boemmelsebastian/pico/pico-sdk/lib/tinyusb/src/class/hid/hid_host.c.obj
                                       0x18dd (size before relaxing)
 .debug_str     0x0000000000008299      0x510 CMakeFiles/tinyusb_host_cdc_msc_hid.dir/home/boemmelsebastian/pico/pico-sdk/lib/tinyusb/src/class/msc/msc_host.c.obj
                                       0x14f8 (size before relaxing)
 .debug_str     0x00000000000087a9       0x93 CMakeFiles/tinyusb_host_cdc_msc_hid.dir/home/boemmelsebastian/pico/pico-sdk/lib/tinyusb/src/tusb.c.obj
                                        0xd33 (size before relaxing)
 .debug_str     0x000000000000883c      0x3c4 CMakeFiles/tinyusb_host_cdc_msc_hid.dir/home/boemmelsebastian/pico/pico-sdk/lib/tinyusb/src/common/tusb_fifo.c.obj
                                        0xbfa (size before relaxing)
 .debug_str     0x0000000000008c00       0xa3 /usr/lib/gcc/arm-none-eabi/8.3.1/thumb/v6-m/nofp/libgcc.a(_dvmd_tls.o)
 .debug_str     0x0000000000008ca3      0x297 /usr/lib/gcc/arm-none-eabi/8.3.1/../../../arm-none-eabi/lib/thumb/v6-m/nofp/libg.a(lib_a-fflush.o)
                                        0x74b (size before relaxing)
 .debug_str     0x0000000000008f3a      0x16f /usr/lib/gcc/arm-none-eabi/8.3.1/../../../arm-none-eabi/lib/thumb/v6-m/nofp/libg.a(lib_a-findfp.o)
                                        0x85b (size before relaxing)
 .debug_str     0x00000000000090a9      0x1fa /usr/lib/gcc/arm-none-eabi/8.3.1/../../../arm-none-eabi/lib/thumb/v6-m/nofp/libg.a(lib_a-freer.o)
                                        0x77a (size before relaxing)
 .debug_str     0x00000000000092a3       0x41 /usr/lib/gcc/arm-none-eabi/8.3.1/../../../arm-none-eabi/lib/thumb/v6-m/nofp/libg.a(lib_a-fwalk.o)
                                        0x70f (size before relaxing)
 .debug_str     0x00000000000092e4       0x97 /usr/lib/gcc/arm-none-eabi/8.3.1/../../../arm-none-eabi/lib/thumb/v6-m/nofp/libg.a(lib_a-impure.o)
                                        0x599 (size before relaxing)
 .debug_str     0x000000000000937b       0xa0 /usr/lib/gcc/arm-none-eabi/8.3.1/../../../arm-none-eabi/lib/thumb/v6-m/nofp/libg.a(lib_a-mallocr.o)
                                        0x801 (size before relaxing)
 .debug_str     0x000000000000941b       0x4c /usr/lib/gcc/arm-none-eabi/8.3.1/../../../arm-none-eabi/lib/thumb/v6-m/nofp/libg.a(lib_a-mlock.o)
                                        0x5c5 (size before relaxing)
 .debug_str     0x0000000000009467       0x3c /usr/lib/gcc/arm-none-eabi/8.3.1/../../../arm-none-eabi/lib/thumb/v6-m/nofp/libg.a(lib_a-sbrkr.o)
                                        0x5dc (size before relaxing)
 .debug_str     0x00000000000094a3       0x92 /usr/lib/gcc/arm-none-eabi/8.3.1/../../../arm-none-eabi/lib/thumb/v6-m/nofp/libg.a(lib_a-stdio.o)
                                        0x763 (size before relaxing)
 .debug_str     0x0000000000009535       0xac /usr/lib/gcc/arm-none-eabi/8.3.1/../../../arm-none-eabi/lib/thumb/v6-m/nofp/libg.a(lib_a-strlen-stub.o)
                                        0x5c2 (size before relaxing)
 .debug_str     0x00000000000095e1       0x33 /usr/lib/gcc/arm-none-eabi/8.3.1/../../../arm-none-eabi/lib/thumb/v6-m/nofp/libg.a(lib_a-writer.o)
                                        0x5d9 (size before relaxing)
 .debug_str     0x0000000000009614       0x33 /usr/lib/gcc/arm-none-eabi/8.3.1/../../../arm-none-eabi/lib/thumb/v6-m/nofp/libg.a(lib_a-closer.o)
                                        0x5c9 (size before relaxing)
 .debug_str     0x0000000000009647       0x49 /usr/lib/gcc/arm-none-eabi/8.3.1/../../../arm-none-eabi/lib/thumb/v6-m/nofp/libg.a(lib_a-fclose.o)
                                        0x734 (size before relaxing)
 .debug_str     0x0000000000009690       0x3a /usr/lib/gcc/arm-none-eabi/8.3.1/../../../arm-none-eabi/lib/thumb/v6-m/nofp/libg.a(lib_a-lseekr.o)
                                        0x5d7 (size before relaxing)
 .debug_str     0x00000000000096ca       0x32 /usr/lib/gcc/arm-none-eabi/8.3.1/../../../arm-none-eabi/lib/thumb/v6-m/nofp/libg.a(lib_a-readr.o)
                                        0x5d7 (size before relaxing)
 .debug_str     0x00000000000096fc       0x5e /usr/lib/gcc/arm-none-eabi/8.3.1/../../../arm-none-eabi/lib/thumb/v6-m/nofp/libg.a(lib_a-reent.o)
                                        0x5d5 (size before relaxing)
 .debug_str     0x000000000000975a      0x109 /usr/lib/gcc/arm-none-eabi/8.3.1/../../../arm-none-eabi/lib/thumb/v6-m/nofp/libnosys.a(close.o)
                                        0x59a (size before relaxing)
 .debug_str     0x0000000000009863       0x2f /usr/lib/gcc/arm-none-eabi/8.3.1/../../../arm-none-eabi/lib/thumb/v6-m/nofp/libnosys.a(lseek.o)
                                        0x59f (size before relaxing)

.debug_frame    0x0000000000000000     0x3108
 .debug_frame   0x0000000000000000       0xe0 CMakeFiles/tinyusb_host_cdc_msc_hid.dir/src/hid_app.c.obj
 .debug_frame   0x00000000000000e0       0x9c CMakeFiles/tinyusb_host_cdc_msc_hid.dir/src/main.c.obj
 .debug_frame   0x000000000000017c       0x5c CMakeFiles/tinyusb_host_cdc_msc_hid.dir/src/msc_app.c.obj
 .debug_frame   0x00000000000001d8      0x200 CMakeFiles/tinyusb_host_cdc_msc_hid.dir/home/boemmelsebastian/pico/pico-sdk/src/rp2_common/hardware_gpio/gpio.c.obj
 .debug_frame   0x00000000000003d8       0x98 CMakeFiles/tinyusb_host_cdc_msc_hid.dir/home/boemmelsebastian/pico/pico-sdk/src/rp2_common/hardware_claim/claim.c.obj
 .debug_frame   0x0000000000000470       0x38 CMakeFiles/tinyusb_host_cdc_msc_hid.dir/home/boemmelsebastian/pico/pico-sdk/src/rp2_common/pico_platform/platform.c.obj
 .debug_frame   0x00000000000004a8       0xc4 CMakeFiles/tinyusb_host_cdc_msc_hid.dir/home/boemmelsebastian/pico/pico-sdk/src/rp2_common/hardware_sync/sync.c.obj
 .debug_frame   0x000000000000056c       0x78 CMakeFiles/tinyusb_host_cdc_msc_hid.dir/home/boemmelsebastian/pico/pico-sdk/src/rp2_common/hardware_uart/uart.c.obj
 .debug_frame   0x00000000000005e4      0x290 CMakeFiles/tinyusb_host_cdc_msc_hid.dir/home/boemmelsebastian/pico/pico-sdk/src/common/pico_time/time.c.obj
 .debug_frame   0x0000000000000874      0x13c CMakeFiles/tinyusb_host_cdc_msc_hid.dir/home/boemmelsebastian/pico/pico-sdk/src/rp2_common/hardware_timer/timer.c.obj
 .debug_frame   0x00000000000009b0       0x20 CMakeFiles/tinyusb_host_cdc_msc_hid.dir/home/boemmelsebastian/pico/pico-sdk/src/common/pico_sync/lock_core.c.obj
 .debug_frame   0x00000000000009d0      0x194 CMakeFiles/tinyusb_host_cdc_msc_hid.dir/home/boemmelsebastian/pico/pico-sdk/src/common/pico_sync/mutex.c.obj
 .debug_frame   0x0000000000000b64       0x50 CMakeFiles/tinyusb_host_cdc_msc_hid.dir/home/boemmelsebastian/pico/pico-sdk/src/common/pico_sync/critical_section.c.obj
 .debug_frame   0x0000000000000bb4      0x154 CMakeFiles/tinyusb_host_cdc_msc_hid.dir/home/boemmelsebastian/pico/pico-sdk/src/common/pico_util/pheap.c.obj
 .debug_frame   0x0000000000000d08       0xdc CMakeFiles/tinyusb_host_cdc_msc_hid.dir/home/boemmelsebastian/pico/pico-sdk/src/rp2_common/pico_runtime/runtime.c.obj
 .debug_frame   0x0000000000000de4      0x120 CMakeFiles/tinyusb_host_cdc_msc_hid.dir/home/boemmelsebastian/pico/pico-sdk/src/rp2_common/hardware_clocks/clocks.c.obj
 .debug_frame   0x0000000000000f04      0x188 CMakeFiles/tinyusb_host_cdc_msc_hid.dir/home/boemmelsebastian/pico/pico-sdk/src/rp2_common/hardware_irq/irq.c.obj
 .debug_frame   0x000000000000108c       0x40 CMakeFiles/tinyusb_host_cdc_msc_hid.dir/home/boemmelsebastian/pico/pico-sdk/src/rp2_common/hardware_pll/pll.c.obj
 .debug_frame   0x00000000000010cc       0xa8 CMakeFiles/tinyusb_host_cdc_msc_hid.dir/home/boemmelsebastian/pico/pico-sdk/src/rp2_common/hardware_watchdog/watchdog.c.obj
 .debug_frame   0x0000000000001174       0x40 CMakeFiles/tinyusb_host_cdc_msc_hid.dir/home/boemmelsebastian/pico/pico-sdk/src/rp2_common/hardware_xosc/xosc.c.obj
 .debug_frame   0x00000000000011b4      0x1f4 CMakeFiles/tinyusb_host_cdc_msc_hid.dir/home/boemmelsebastian/pico/pico-sdk/src/rp2_common/pico_printf/printf.c.obj
 .debug_frame   0x00000000000013a8       0x64 CMakeFiles/tinyusb_host_cdc_msc_hid.dir/home/boemmelsebastian/pico/pico-sdk/src/rp2_common/pico_bootrom/bootrom.c.obj
 .debug_frame   0x000000000000140c       0x2c CMakeFiles/tinyusb_host_cdc_msc_hid.dir/home/boemmelsebastian/pico/pico-sdk/src/rp2_common/pico_double/double_init_rom.c.obj
 .debug_frame   0x0000000000001438       0x2c CMakeFiles/tinyusb_host_cdc_msc_hid.dir/home/boemmelsebastian/pico/pico-sdk/src/rp2_common/pico_float/float_init_rom.c.obj
 .debug_frame   0x0000000000001464      0x274 CMakeFiles/tinyusb_host_cdc_msc_hid.dir/home/boemmelsebastian/pico/pico-sdk/src/rp2_common/pico_stdio/stdio.c.obj
 .debug_frame   0x00000000000016d8       0xb4 CMakeFiles/tinyusb_host_cdc_msc_hid.dir/home/boemmelsebastian/pico/pico-sdk/src/rp2_common/pico_stdio_uart/stdio_uart.c.obj
 .debug_frame   0x000000000000178c       0x28 CMakeFiles/tinyusb_host_cdc_msc_hid.dir/home/boemmelsebastian/pico/pico-sdk/src/rp2_common/pico_bootsel_via_double_reset/pico_bootsel_via_double_reset.c.obj
 .debug_frame   0x00000000000017b4       0xa4 CMakeFiles/tinyusb_host_cdc_msc_hid.dir/home/boemmelsebastian/pico/pico-sdk/lib/tinyusb/hw/bsp/rp2040/family.c.obj
 .debug_frame   0x0000000000001858      0x250 CMakeFiles/tinyusb_host_cdc_msc_hid.dir/home/boemmelsebastian/pico/pico-sdk/lib/tinyusb/src/portable/raspberrypi/rp2040/hcd_rp2040.c.obj
 .debug_frame   0x0000000000001aa8       0xf8 CMakeFiles/tinyusb_host_cdc_msc_hid.dir/home/boemmelsebastian/pico/pico-sdk/lib/tinyusb/src/portable/raspberrypi/rp2040/rp2040_usb.c.obj
 .debug_frame   0x0000000000001ba0      0x3fc CMakeFiles/tinyusb_host_cdc_msc_hid.dir/home/boemmelsebastian/pico/pico-sdk/lib/tinyusb/src/host/usbh.c.obj
 .debug_frame   0x0000000000001f9c       0x64 CMakeFiles/tinyusb_host_cdc_msc_hid.dir/home/boemmelsebastian/pico/pico-sdk/lib/tinyusb/src/host/usbh_control.c.obj
 .debug_frame   0x0000000000002000      0x1a4 CMakeFiles/tinyusb_host_cdc_msc_hid.dir/home/boemmelsebastian/pico/pico-sdk/lib/tinyusb/src/host/hub.c.obj
 .debug_frame   0x00000000000021a4      0x134 CMakeFiles/tinyusb_host_cdc_msc_hid.dir/home/boemmelsebastian/pico/pico-sdk/lib/tinyusb/src/class/cdc/cdc_host.c.obj
 .debug_frame   0x00000000000022d8      0x270 CMakeFiles/tinyusb_host_cdc_msc_hid.dir/home/boemmelsebastian/pico/pico-sdk/lib/tinyusb/src/class/hid/hid_host.c.obj
 .debug_frame   0x0000000000002548      0x258 CMakeFiles/tinyusb_host_cdc_msc_hid.dir/home/boemmelsebastian/pico/pico-sdk/lib/tinyusb/src/class/msc/msc_host.c.obj
 .debug_frame   0x00000000000027a0       0xd4 CMakeFiles/tinyusb_host_cdc_msc_hid.dir/home/boemmelsebastian/pico/pico-sdk/lib/tinyusb/src/tusb.c.obj
 .debug_frame   0x0000000000002874      0x364 CMakeFiles/tinyusb_host_cdc_msc_hid.dir/home/boemmelsebastian/pico/pico-sdk/lib/tinyusb/src/common/tusb_fifo.c.obj
 .debug_frame   0x0000000000002bd8       0x68 /usr/lib/gcc/arm-none-eabi/8.3.1/../../../arm-none-eabi/lib/thumb/v6-m/nofp/libg.a(lib_a-fflush.o)
 .debug_frame   0x0000000000002c40      0x148 /usr/lib/gcc/arm-none-eabi/8.3.1/../../../arm-none-eabi/lib/thumb/v6-m/nofp/libg.a(lib_a-findfp.o)
 .debug_frame   0x0000000000002d88       0x58 /usr/lib/gcc/arm-none-eabi/8.3.1/../../../arm-none-eabi/lib/thumb/v6-m/nofp/libg.a(lib_a-freer.o)
 .debug_frame   0x0000000000002de0       0x5c /usr/lib/gcc/arm-none-eabi/8.3.1/../../../arm-none-eabi/lib/thumb/v6-m/nofp/libg.a(lib_a-fwalk.o)
 .debug_frame   0x0000000000002e3c       0x3c /usr/lib/gcc/arm-none-eabi/8.3.1/../../../arm-none-eabi/lib/thumb/v6-m/nofp/libg.a(lib_a-mallocr.o)
 .debug_frame   0x0000000000002e78       0x30 /usr/lib/gcc/arm-none-eabi/8.3.1/../../../arm-none-eabi/lib/thumb/v6-m/nofp/libg.a(lib_a-mlock.o)
 .debug_frame   0x0000000000002ea8       0x2c /usr/lib/gcc/arm-none-eabi/8.3.1/../../../arm-none-eabi/lib/thumb/v6-m/nofp/libg.a(lib_a-sbrkr.o)
 .debug_frame   0x0000000000002ed4       0x90 /usr/lib/gcc/arm-none-eabi/8.3.1/../../../arm-none-eabi/lib/thumb/v6-m/nofp/libg.a(lib_a-stdio.o)
 .debug_frame   0x0000000000002f64       0x28 /usr/lib/gcc/arm-none-eabi/8.3.1/../../../arm-none-eabi/lib/thumb/v6-m/nofp/libg.a(lib_a-strlen-stub.o)
 .debug_frame   0x0000000000002f8c       0x2c /usr/lib/gcc/arm-none-eabi/8.3.1/../../../arm-none-eabi/lib/thumb/v6-m/nofp/libg.a(lib_a-writer.o)
 .debug_frame   0x0000000000002fb8       0x2c /usr/lib/gcc/arm-none-eabi/8.3.1/../../../arm-none-eabi/lib/thumb/v6-m/nofp/libg.a(lib_a-closer.o)
 .debug_frame   0x0000000000002fe4       0x44 /usr/lib/gcc/arm-none-eabi/8.3.1/../../../arm-none-eabi/lib/thumb/v6-m/nofp/libg.a(lib_a-fclose.o)
 .debug_frame   0x0000000000003028       0x2c /usr/lib/gcc/arm-none-eabi/8.3.1/../../../arm-none-eabi/lib/thumb/v6-m/nofp/libg.a(lib_a-lseekr.o)
 .debug_frame   0x0000000000003054       0x2c /usr/lib/gcc/arm-none-eabi/8.3.1/../../../arm-none-eabi/lib/thumb/v6-m/nofp/libg.a(lib_a-readr.o)
 .debug_frame   0x0000000000003080       0x48 /usr/lib/gcc/arm-none-eabi/8.3.1/../../../arm-none-eabi/lib/thumb/v6-m/nofp/libg.a(lib_a-reent.o)
 .debug_frame   0x00000000000030c8       0x20 /usr/lib/gcc/arm-none-eabi/8.3.1/../../../arm-none-eabi/lib/thumb/v6-m/nofp/libnosys.a(close.o)
 .debug_frame   0x00000000000030e8       0x20 /usr/lib/gcc/arm-none-eabi/8.3.1/../../../arm-none-eabi/lib/thumb/v6-m/nofp/libnosys.a(lseek.o)

.stab           0x0000000000000000       0x3c
 .stab          0x0000000000000000       0x24 /usr/lib/gcc/arm-none-eabi/8.3.1/../../../arm-none-eabi/lib/thumb/v6-m/nofp/libnosys.a(close.o)
 .stab          0x0000000000000024       0x18 /usr/lib/gcc/arm-none-eabi/8.3.1/../../../arm-none-eabi/lib/thumb/v6-m/nofp/libnosys.a(lseek.o)
                                         0x24 (size before relaxing)

.stabstr        0x0000000000000000       0x75
 .stabstr       0x0000000000000000       0x75 /usr/lib/gcc/arm-none-eabi/8.3.1/../../../arm-none-eabi/lib/thumb/v6-m/nofp/libnosys.a(close.o)
